; ModuleID = '/home/aimee/root_of_trust/operational_os/hls/contact_discovery_axi_experimental/solution1/.autopilot/db/a.o.3.bc'
target datalayout = "e-p:64:64:64-i1:8:8-i8:8:8-i16:16:16-i32:32:32-i64:64:64-f32:32:32-f64:64:64-v64:64:64-v128:128:128-a0:0:64-s0:64:64-f80:128:128-n8:16:32:64-S128"
target triple = "x86_64-unknown-linux-gnu"

@llvm_global_ctors_1 = appending global [1 x void ()*] [void ()* @_GLOBAL__I_a] ; [#uses=0 type=[1 x void ()*]*]
@llvm_global_ctors_0 = appending global [1 x i32] [i32 65535] ; [#uses=0 type=[1 x i32]*]
@contacts_size = internal unnamed_addr global i32 0, align 4 ; [#uses=3 type=i32*]
@contacts_V = internal unnamed_addr global [128 x i512] zeroinitializer ; [#uses=129 type=[128 x i512]*]
@contact_discovery_st = internal unnamed_addr constant [18 x i8] c"contact_discovery\00" ; [#uses=1 type=[18 x i8]*]
@p_str9 = private unnamed_addr constant [12 x i8] c"hls_label_0\00", align 1 ; [#uses=2 type=[12 x i8]*]
@p_str8 = private unnamed_addr constant [7 x i8] c"ap_vld\00", align 1 ; [#uses=1 type=[7 x i8]*]
@p_str7 = private unnamed_addr constant [5 x i8] c"both\00", align 1 ; [#uses=1 type=[5 x i8]*]
@p_str6 = private unnamed_addr constant [5 x i8] c"axis\00", align 1 ; [#uses=1 type=[5 x i8]*]
@p_str5 = private unnamed_addr constant [6 x i8] c"m_axi\00", align 1 ; [#uses=1 type=[6 x i8]*]
@p_str4 = private unnamed_addr constant [10 x i8] c"s_axilite\00", align 1 ; [#uses=7 type=[10 x i8]*]
@p_str3 = private unnamed_addr constant [1 x i8] zeroinitializer, align 1 ; [#uses=84 type=[1 x i8]*]
@p_str = private unnamed_addr constant [8 x i8] c"ap_none\00", align 1 ; [#uses=4 type=[8 x i8]*]

; [#uses=1]
define internal fastcc i1 @match_db_contact(i512 %db_item_V) readonly {
  %db_item_V_read = call i512 @_ssdm_op_Read.ap_auto.i512(i512 %db_item_V) ; [#uses=128 type=i512]
  %contacts_V_load = load i512* getelementptr inbounds ([128 x i512]* @contacts_V, i64 0, i64 0), align 64, !dbg !31 ; [#uses=1 type=i512] [debug line = 2925:9@25:15]
  %tmp_1 = icmp eq i512 %contacts_V_load, %db_item_V_read, !dbg !31 ; [#uses=1 type=i1] [debug line = 2925:9@25:15]
  %contacts_V_load_1 = load i512* getelementptr inbounds ([128 x i512]* @contacts_V, i64 0, i64 1), align 64, !dbg !31 ; [#uses=1 type=i512] [debug line = 2925:9@25:15]
  %tmp_1_1 = icmp eq i512 %contacts_V_load_1, %db_item_V_read, !dbg !31 ; [#uses=1 type=i1] [debug line = 2925:9@25:15]
  %contacts_V_load_2 = load i512* getelementptr inbounds ([128 x i512]* @contacts_V, i64 0, i64 2), align 64, !dbg !31 ; [#uses=1 type=i512] [debug line = 2925:9@25:15]
  %tmp_1_2 = icmp eq i512 %contacts_V_load_2, %db_item_V_read, !dbg !31 ; [#uses=1 type=i1] [debug line = 2925:9@25:15]
  %contacts_V_load_3 = load i512* getelementptr inbounds ([128 x i512]* @contacts_V, i64 0, i64 3), align 64, !dbg !31 ; [#uses=1 type=i512] [debug line = 2925:9@25:15]
  %tmp_1_3 = icmp eq i512 %contacts_V_load_3, %db_item_V_read, !dbg !31 ; [#uses=1 type=i1] [debug line = 2925:9@25:15]
  %contacts_V_load_4 = load i512* getelementptr inbounds ([128 x i512]* @contacts_V, i64 0, i64 4), align 64, !dbg !31 ; [#uses=1 type=i512] [debug line = 2925:9@25:15]
  %tmp_1_4 = icmp eq i512 %contacts_V_load_4, %db_item_V_read, !dbg !31 ; [#uses=1 type=i1] [debug line = 2925:9@25:15]
  %contacts_V_load_5 = load i512* getelementptr inbounds ([128 x i512]* @contacts_V, i64 0, i64 5), align 64, !dbg !31 ; [#uses=1 type=i512] [debug line = 2925:9@25:15]
  %tmp_1_5 = icmp eq i512 %contacts_V_load_5, %db_item_V_read, !dbg !31 ; [#uses=1 type=i1] [debug line = 2925:9@25:15]
  %contacts_V_load_6 = load i512* getelementptr inbounds ([128 x i512]* @contacts_V, i64 0, i64 6), align 64, !dbg !31 ; [#uses=1 type=i512] [debug line = 2925:9@25:15]
  %tmp_1_6 = icmp eq i512 %contacts_V_load_6, %db_item_V_read, !dbg !31 ; [#uses=1 type=i1] [debug line = 2925:9@25:15]
  %contacts_V_load_7 = load i512* getelementptr inbounds ([128 x i512]* @contacts_V, i64 0, i64 7), align 64, !dbg !31 ; [#uses=1 type=i512] [debug line = 2925:9@25:15]
  %tmp_1_7 = icmp eq i512 %contacts_V_load_7, %db_item_V_read, !dbg !31 ; [#uses=1 type=i1] [debug line = 2925:9@25:15]
  %contacts_V_load_8 = load i512* getelementptr inbounds ([128 x i512]* @contacts_V, i64 0, i64 8), align 64, !dbg !31 ; [#uses=1 type=i512] [debug line = 2925:9@25:15]
  %tmp_1_8 = icmp eq i512 %contacts_V_load_8, %db_item_V_read, !dbg !31 ; [#uses=1 type=i1] [debug line = 2925:9@25:15]
  %contacts_V_load_9 = load i512* getelementptr inbounds ([128 x i512]* @contacts_V, i64 0, i64 9), align 64, !dbg !31 ; [#uses=1 type=i512] [debug line = 2925:9@25:15]
  %tmp_1_9 = icmp eq i512 %contacts_V_load_9, %db_item_V_read, !dbg !31 ; [#uses=1 type=i1] [debug line = 2925:9@25:15]
  %contacts_V_load_10 = load i512* getelementptr inbounds ([128 x i512]* @contacts_V, i64 0, i64 10), align 64, !dbg !31 ; [#uses=1 type=i512] [debug line = 2925:9@25:15]
  %tmp_1_s = icmp eq i512 %contacts_V_load_10, %db_item_V_read, !dbg !31 ; [#uses=1 type=i1] [debug line = 2925:9@25:15]
  %contacts_V_load_11 = load i512* getelementptr inbounds ([128 x i512]* @contacts_V, i64 0, i64 11), align 64, !dbg !31 ; [#uses=1 type=i512] [debug line = 2925:9@25:15]
  %tmp_1_10 = icmp eq i512 %contacts_V_load_11, %db_item_V_read, !dbg !31 ; [#uses=1 type=i1] [debug line = 2925:9@25:15]
  %contacts_V_load_12 = load i512* getelementptr inbounds ([128 x i512]* @contacts_V, i64 0, i64 12), align 64, !dbg !31 ; [#uses=1 type=i512] [debug line = 2925:9@25:15]
  %tmp_1_11 = icmp eq i512 %contacts_V_load_12, %db_item_V_read, !dbg !31 ; [#uses=1 type=i1] [debug line = 2925:9@25:15]
  %contacts_V_load_13 = load i512* getelementptr inbounds ([128 x i512]* @contacts_V, i64 0, i64 13), align 64, !dbg !31 ; [#uses=1 type=i512] [debug line = 2925:9@25:15]
  %tmp_1_12 = icmp eq i512 %contacts_V_load_13, %db_item_V_read, !dbg !31 ; [#uses=1 type=i1] [debug line = 2925:9@25:15]
  %contacts_V_load_14 = load i512* getelementptr inbounds ([128 x i512]* @contacts_V, i64 0, i64 14), align 64, !dbg !31 ; [#uses=1 type=i512] [debug line = 2925:9@25:15]
  %tmp_1_13 = icmp eq i512 %contacts_V_load_14, %db_item_V_read, !dbg !31 ; [#uses=1 type=i1] [debug line = 2925:9@25:15]
  %contacts_V_load_15 = load i512* getelementptr inbounds ([128 x i512]* @contacts_V, i64 0, i64 15), align 64, !dbg !31 ; [#uses=1 type=i512] [debug line = 2925:9@25:15]
  %tmp_1_14 = icmp eq i512 %contacts_V_load_15, %db_item_V_read, !dbg !31 ; [#uses=1 type=i1] [debug line = 2925:9@25:15]
  %contacts_V_load_16 = load i512* getelementptr inbounds ([128 x i512]* @contacts_V, i64 0, i64 16), align 64, !dbg !31 ; [#uses=1 type=i512] [debug line = 2925:9@25:15]
  %tmp_1_15 = icmp eq i512 %contacts_V_load_16, %db_item_V_read, !dbg !31 ; [#uses=1 type=i1] [debug line = 2925:9@25:15]
  %contacts_V_load_17 = load i512* getelementptr inbounds ([128 x i512]* @contacts_V, i64 0, i64 17), align 64, !dbg !31 ; [#uses=1 type=i512] [debug line = 2925:9@25:15]
  %tmp_1_16 = icmp eq i512 %contacts_V_load_17, %db_item_V_read, !dbg !31 ; [#uses=1 type=i1] [debug line = 2925:9@25:15]
  %contacts_V_load_18 = load i512* getelementptr inbounds ([128 x i512]* @contacts_V, i64 0, i64 18), align 64, !dbg !31 ; [#uses=1 type=i512] [debug line = 2925:9@25:15]
  %tmp_1_17 = icmp eq i512 %contacts_V_load_18, %db_item_V_read, !dbg !31 ; [#uses=1 type=i1] [debug line = 2925:9@25:15]
  %contacts_V_load_19 = load i512* getelementptr inbounds ([128 x i512]* @contacts_V, i64 0, i64 19), align 64, !dbg !31 ; [#uses=1 type=i512] [debug line = 2925:9@25:15]
  %tmp_1_18 = icmp eq i512 %contacts_V_load_19, %db_item_V_read, !dbg !31 ; [#uses=1 type=i1] [debug line = 2925:9@25:15]
  %contacts_V_load_20 = load i512* getelementptr inbounds ([128 x i512]* @contacts_V, i64 0, i64 20), align 64, !dbg !31 ; [#uses=1 type=i512] [debug line = 2925:9@25:15]
  %tmp_1_19 = icmp eq i512 %contacts_V_load_20, %db_item_V_read, !dbg !31 ; [#uses=1 type=i1] [debug line = 2925:9@25:15]
  %contacts_V_load_21 = load i512* getelementptr inbounds ([128 x i512]* @contacts_V, i64 0, i64 21), align 64, !dbg !31 ; [#uses=1 type=i512] [debug line = 2925:9@25:15]
  %tmp_1_20 = icmp eq i512 %contacts_V_load_21, %db_item_V_read, !dbg !31 ; [#uses=1 type=i1] [debug line = 2925:9@25:15]
  %contacts_V_load_22 = load i512* getelementptr inbounds ([128 x i512]* @contacts_V, i64 0, i64 22), align 64, !dbg !31 ; [#uses=1 type=i512] [debug line = 2925:9@25:15]
  %tmp_1_21 = icmp eq i512 %contacts_V_load_22, %db_item_V_read, !dbg !31 ; [#uses=1 type=i1] [debug line = 2925:9@25:15]
  %contacts_V_load_23 = load i512* getelementptr inbounds ([128 x i512]* @contacts_V, i64 0, i64 23), align 64, !dbg !31 ; [#uses=1 type=i512] [debug line = 2925:9@25:15]
  %tmp_1_22 = icmp eq i512 %contacts_V_load_23, %db_item_V_read, !dbg !31 ; [#uses=1 type=i1] [debug line = 2925:9@25:15]
  %contacts_V_load_24 = load i512* getelementptr inbounds ([128 x i512]* @contacts_V, i64 0, i64 24), align 64, !dbg !31 ; [#uses=1 type=i512] [debug line = 2925:9@25:15]
  %tmp_1_23 = icmp eq i512 %contacts_V_load_24, %db_item_V_read, !dbg !31 ; [#uses=1 type=i1] [debug line = 2925:9@25:15]
  %contacts_V_load_25 = load i512* getelementptr inbounds ([128 x i512]* @contacts_V, i64 0, i64 25), align 64, !dbg !31 ; [#uses=1 type=i512] [debug line = 2925:9@25:15]
  %tmp_1_24 = icmp eq i512 %contacts_V_load_25, %db_item_V_read, !dbg !31 ; [#uses=1 type=i1] [debug line = 2925:9@25:15]
  %contacts_V_load_26 = load i512* getelementptr inbounds ([128 x i512]* @contacts_V, i64 0, i64 26), align 64, !dbg !31 ; [#uses=1 type=i512] [debug line = 2925:9@25:15]
  %tmp_1_25 = icmp eq i512 %contacts_V_load_26, %db_item_V_read, !dbg !31 ; [#uses=1 type=i1] [debug line = 2925:9@25:15]
  %contacts_V_load_27 = load i512* getelementptr inbounds ([128 x i512]* @contacts_V, i64 0, i64 27), align 64, !dbg !31 ; [#uses=1 type=i512] [debug line = 2925:9@25:15]
  %tmp_1_26 = icmp eq i512 %contacts_V_load_27, %db_item_V_read, !dbg !31 ; [#uses=1 type=i1] [debug line = 2925:9@25:15]
  %contacts_V_load_28 = load i512* getelementptr inbounds ([128 x i512]* @contacts_V, i64 0, i64 28), align 64, !dbg !31 ; [#uses=1 type=i512] [debug line = 2925:9@25:15]
  %tmp_1_27 = icmp eq i512 %contacts_V_load_28, %db_item_V_read, !dbg !31 ; [#uses=1 type=i1] [debug line = 2925:9@25:15]
  %contacts_V_load_29 = load i512* getelementptr inbounds ([128 x i512]* @contacts_V, i64 0, i64 29), align 64, !dbg !31 ; [#uses=1 type=i512] [debug line = 2925:9@25:15]
  %tmp_1_28 = icmp eq i512 %contacts_V_load_29, %db_item_V_read, !dbg !31 ; [#uses=1 type=i1] [debug line = 2925:9@25:15]
  %contacts_V_load_30 = load i512* getelementptr inbounds ([128 x i512]* @contacts_V, i64 0, i64 30), align 64, !dbg !31 ; [#uses=1 type=i512] [debug line = 2925:9@25:15]
  %tmp_1_29 = icmp eq i512 %contacts_V_load_30, %db_item_V_read, !dbg !31 ; [#uses=1 type=i1] [debug line = 2925:9@25:15]
  %contacts_V_load_31 = load i512* getelementptr inbounds ([128 x i512]* @contacts_V, i64 0, i64 31), align 64, !dbg !31 ; [#uses=1 type=i512] [debug line = 2925:9@25:15]
  %tmp_1_30 = icmp eq i512 %contacts_V_load_31, %db_item_V_read, !dbg !31 ; [#uses=1 type=i1] [debug line = 2925:9@25:15]
  %contacts_V_load_32 = load i512* getelementptr inbounds ([128 x i512]* @contacts_V, i64 0, i64 32), align 64, !dbg !31 ; [#uses=1 type=i512] [debug line = 2925:9@25:15]
  %tmp_1_31 = icmp eq i512 %contacts_V_load_32, %db_item_V_read, !dbg !31 ; [#uses=1 type=i1] [debug line = 2925:9@25:15]
  %contacts_V_load_33 = load i512* getelementptr inbounds ([128 x i512]* @contacts_V, i64 0, i64 33), align 64, !dbg !31 ; [#uses=1 type=i512] [debug line = 2925:9@25:15]
  %tmp_1_32 = icmp eq i512 %contacts_V_load_33, %db_item_V_read, !dbg !31 ; [#uses=1 type=i1] [debug line = 2925:9@25:15]
  %contacts_V_load_34 = load i512* getelementptr inbounds ([128 x i512]* @contacts_V, i64 0, i64 34), align 64, !dbg !31 ; [#uses=1 type=i512] [debug line = 2925:9@25:15]
  %tmp_1_33 = icmp eq i512 %contacts_V_load_34, %db_item_V_read, !dbg !31 ; [#uses=1 type=i1] [debug line = 2925:9@25:15]
  %contacts_V_load_35 = load i512* getelementptr inbounds ([128 x i512]* @contacts_V, i64 0, i64 35), align 64, !dbg !31 ; [#uses=1 type=i512] [debug line = 2925:9@25:15]
  %tmp_1_34 = icmp eq i512 %contacts_V_load_35, %db_item_V_read, !dbg !31 ; [#uses=1 type=i1] [debug line = 2925:9@25:15]
  %contacts_V_load_36 = load i512* getelementptr inbounds ([128 x i512]* @contacts_V, i64 0, i64 36), align 64, !dbg !31 ; [#uses=1 type=i512] [debug line = 2925:9@25:15]
  %tmp_1_35 = icmp eq i512 %contacts_V_load_36, %db_item_V_read, !dbg !31 ; [#uses=1 type=i1] [debug line = 2925:9@25:15]
  %contacts_V_load_37 = load i512* getelementptr inbounds ([128 x i512]* @contacts_V, i64 0, i64 37), align 64, !dbg !31 ; [#uses=1 type=i512] [debug line = 2925:9@25:15]
  %tmp_1_36 = icmp eq i512 %contacts_V_load_37, %db_item_V_read, !dbg !31 ; [#uses=1 type=i1] [debug line = 2925:9@25:15]
  %contacts_V_load_38 = load i512* getelementptr inbounds ([128 x i512]* @contacts_V, i64 0, i64 38), align 64, !dbg !31 ; [#uses=1 type=i512] [debug line = 2925:9@25:15]
  %tmp_1_37 = icmp eq i512 %contacts_V_load_38, %db_item_V_read, !dbg !31 ; [#uses=1 type=i1] [debug line = 2925:9@25:15]
  %contacts_V_load_39 = load i512* getelementptr inbounds ([128 x i512]* @contacts_V, i64 0, i64 39), align 64, !dbg !31 ; [#uses=1 type=i512] [debug line = 2925:9@25:15]
  %tmp_1_38 = icmp eq i512 %contacts_V_load_39, %db_item_V_read, !dbg !31 ; [#uses=1 type=i1] [debug line = 2925:9@25:15]
  %contacts_V_load_40 = load i512* getelementptr inbounds ([128 x i512]* @contacts_V, i64 0, i64 40), align 64, !dbg !31 ; [#uses=1 type=i512] [debug line = 2925:9@25:15]
  %tmp_1_39 = icmp eq i512 %contacts_V_load_40, %db_item_V_read, !dbg !31 ; [#uses=1 type=i1] [debug line = 2925:9@25:15]
  %contacts_V_load_41 = load i512* getelementptr inbounds ([128 x i512]* @contacts_V, i64 0, i64 41), align 64, !dbg !31 ; [#uses=1 type=i512] [debug line = 2925:9@25:15]
  %tmp_1_40 = icmp eq i512 %contacts_V_load_41, %db_item_V_read, !dbg !31 ; [#uses=1 type=i1] [debug line = 2925:9@25:15]
  %contacts_V_load_42 = load i512* getelementptr inbounds ([128 x i512]* @contacts_V, i64 0, i64 42), align 64, !dbg !31 ; [#uses=1 type=i512] [debug line = 2925:9@25:15]
  %tmp_1_41 = icmp eq i512 %contacts_V_load_42, %db_item_V_read, !dbg !31 ; [#uses=1 type=i1] [debug line = 2925:9@25:15]
  %contacts_V_load_43 = load i512* getelementptr inbounds ([128 x i512]* @contacts_V, i64 0, i64 43), align 64, !dbg !31 ; [#uses=1 type=i512] [debug line = 2925:9@25:15]
  %tmp_1_42 = icmp eq i512 %contacts_V_load_43, %db_item_V_read, !dbg !31 ; [#uses=1 type=i1] [debug line = 2925:9@25:15]
  %contacts_V_load_44 = load i512* getelementptr inbounds ([128 x i512]* @contacts_V, i64 0, i64 44), align 64, !dbg !31 ; [#uses=1 type=i512] [debug line = 2925:9@25:15]
  %tmp_1_43 = icmp eq i512 %contacts_V_load_44, %db_item_V_read, !dbg !31 ; [#uses=1 type=i1] [debug line = 2925:9@25:15]
  %contacts_V_load_45 = load i512* getelementptr inbounds ([128 x i512]* @contacts_V, i64 0, i64 45), align 64, !dbg !31 ; [#uses=1 type=i512] [debug line = 2925:9@25:15]
  %tmp_1_44 = icmp eq i512 %contacts_V_load_45, %db_item_V_read, !dbg !31 ; [#uses=1 type=i1] [debug line = 2925:9@25:15]
  %contacts_V_load_46 = load i512* getelementptr inbounds ([128 x i512]* @contacts_V, i64 0, i64 46), align 64, !dbg !31 ; [#uses=1 type=i512] [debug line = 2925:9@25:15]
  %tmp_1_45 = icmp eq i512 %contacts_V_load_46, %db_item_V_read, !dbg !31 ; [#uses=1 type=i1] [debug line = 2925:9@25:15]
  %contacts_V_load_47 = load i512* getelementptr inbounds ([128 x i512]* @contacts_V, i64 0, i64 47), align 64, !dbg !31 ; [#uses=1 type=i512] [debug line = 2925:9@25:15]
  %tmp_1_46 = icmp eq i512 %contacts_V_load_47, %db_item_V_read, !dbg !31 ; [#uses=1 type=i1] [debug line = 2925:9@25:15]
  %contacts_V_load_48 = load i512* getelementptr inbounds ([128 x i512]* @contacts_V, i64 0, i64 48), align 64, !dbg !31 ; [#uses=1 type=i512] [debug line = 2925:9@25:15]
  %tmp_1_47 = icmp eq i512 %contacts_V_load_48, %db_item_V_read, !dbg !31 ; [#uses=1 type=i1] [debug line = 2925:9@25:15]
  %contacts_V_load_49 = load i512* getelementptr inbounds ([128 x i512]* @contacts_V, i64 0, i64 49), align 64, !dbg !31 ; [#uses=1 type=i512] [debug line = 2925:9@25:15]
  %tmp_1_48 = icmp eq i512 %contacts_V_load_49, %db_item_V_read, !dbg !31 ; [#uses=1 type=i1] [debug line = 2925:9@25:15]
  %contacts_V_load_50 = load i512* getelementptr inbounds ([128 x i512]* @contacts_V, i64 0, i64 50), align 64, !dbg !31 ; [#uses=1 type=i512] [debug line = 2925:9@25:15]
  %tmp_1_49 = icmp eq i512 %contacts_V_load_50, %db_item_V_read, !dbg !31 ; [#uses=1 type=i1] [debug line = 2925:9@25:15]
  %contacts_V_load_51 = load i512* getelementptr inbounds ([128 x i512]* @contacts_V, i64 0, i64 51), align 64, !dbg !31 ; [#uses=1 type=i512] [debug line = 2925:9@25:15]
  %tmp_1_50 = icmp eq i512 %contacts_V_load_51, %db_item_V_read, !dbg !31 ; [#uses=1 type=i1] [debug line = 2925:9@25:15]
  %contacts_V_load_52 = load i512* getelementptr inbounds ([128 x i512]* @contacts_V, i64 0, i64 52), align 64, !dbg !31 ; [#uses=1 type=i512] [debug line = 2925:9@25:15]
  %tmp_1_51 = icmp eq i512 %contacts_V_load_52, %db_item_V_read, !dbg !31 ; [#uses=1 type=i1] [debug line = 2925:9@25:15]
  %contacts_V_load_53 = load i512* getelementptr inbounds ([128 x i512]* @contacts_V, i64 0, i64 53), align 64, !dbg !31 ; [#uses=1 type=i512] [debug line = 2925:9@25:15]
  %tmp_1_52 = icmp eq i512 %contacts_V_load_53, %db_item_V_read, !dbg !31 ; [#uses=1 type=i1] [debug line = 2925:9@25:15]
  %contacts_V_load_54 = load i512* getelementptr inbounds ([128 x i512]* @contacts_V, i64 0, i64 54), align 64, !dbg !31 ; [#uses=1 type=i512] [debug line = 2925:9@25:15]
  %tmp_1_53 = icmp eq i512 %contacts_V_load_54, %db_item_V_read, !dbg !31 ; [#uses=1 type=i1] [debug line = 2925:9@25:15]
  %contacts_V_load_55 = load i512* getelementptr inbounds ([128 x i512]* @contacts_V, i64 0, i64 55), align 64, !dbg !31 ; [#uses=1 type=i512] [debug line = 2925:9@25:15]
  %tmp_1_54 = icmp eq i512 %contacts_V_load_55, %db_item_V_read, !dbg !31 ; [#uses=1 type=i1] [debug line = 2925:9@25:15]
  %contacts_V_load_56 = load i512* getelementptr inbounds ([128 x i512]* @contacts_V, i64 0, i64 56), align 64, !dbg !31 ; [#uses=1 type=i512] [debug line = 2925:9@25:15]
  %tmp_1_55 = icmp eq i512 %contacts_V_load_56, %db_item_V_read, !dbg !31 ; [#uses=1 type=i1] [debug line = 2925:9@25:15]
  %contacts_V_load_57 = load i512* getelementptr inbounds ([128 x i512]* @contacts_V, i64 0, i64 57), align 64, !dbg !31 ; [#uses=1 type=i512] [debug line = 2925:9@25:15]
  %tmp_1_56 = icmp eq i512 %contacts_V_load_57, %db_item_V_read, !dbg !31 ; [#uses=1 type=i1] [debug line = 2925:9@25:15]
  %contacts_V_load_58 = load i512* getelementptr inbounds ([128 x i512]* @contacts_V, i64 0, i64 58), align 64, !dbg !31 ; [#uses=1 type=i512] [debug line = 2925:9@25:15]
  %tmp_1_57 = icmp eq i512 %contacts_V_load_58, %db_item_V_read, !dbg !31 ; [#uses=1 type=i1] [debug line = 2925:9@25:15]
  %contacts_V_load_59 = load i512* getelementptr inbounds ([128 x i512]* @contacts_V, i64 0, i64 59), align 64, !dbg !31 ; [#uses=1 type=i512] [debug line = 2925:9@25:15]
  %tmp_1_58 = icmp eq i512 %contacts_V_load_59, %db_item_V_read, !dbg !31 ; [#uses=1 type=i1] [debug line = 2925:9@25:15]
  %contacts_V_load_60 = load i512* getelementptr inbounds ([128 x i512]* @contacts_V, i64 0, i64 60), align 64, !dbg !31 ; [#uses=1 type=i512] [debug line = 2925:9@25:15]
  %tmp_1_59 = icmp eq i512 %contacts_V_load_60, %db_item_V_read, !dbg !31 ; [#uses=1 type=i1] [debug line = 2925:9@25:15]
  %contacts_V_load_61 = load i512* getelementptr inbounds ([128 x i512]* @contacts_V, i64 0, i64 61), align 64, !dbg !31 ; [#uses=1 type=i512] [debug line = 2925:9@25:15]
  %tmp_1_60 = icmp eq i512 %contacts_V_load_61, %db_item_V_read, !dbg !31 ; [#uses=1 type=i1] [debug line = 2925:9@25:15]
  %contacts_V_load_62 = load i512* getelementptr inbounds ([128 x i512]* @contacts_V, i64 0, i64 62), align 64, !dbg !31 ; [#uses=1 type=i512] [debug line = 2925:9@25:15]
  %tmp_1_61 = icmp eq i512 %contacts_V_load_62, %db_item_V_read, !dbg !31 ; [#uses=1 type=i1] [debug line = 2925:9@25:15]
  %contacts_V_load_63 = load i512* getelementptr inbounds ([128 x i512]* @contacts_V, i64 0, i64 63), align 64, !dbg !31 ; [#uses=1 type=i512] [debug line = 2925:9@25:15]
  %tmp_1_62 = icmp eq i512 %contacts_V_load_63, %db_item_V_read, !dbg !31 ; [#uses=1 type=i1] [debug line = 2925:9@25:15]
  %contacts_V_load_64 = load i512* getelementptr inbounds ([128 x i512]* @contacts_V, i64 0, i64 64), align 64, !dbg !31 ; [#uses=1 type=i512] [debug line = 2925:9@25:15]
  %tmp_1_63 = icmp eq i512 %contacts_V_load_64, %db_item_V_read, !dbg !31 ; [#uses=1 type=i1] [debug line = 2925:9@25:15]
  %contacts_V_load_65 = load i512* getelementptr inbounds ([128 x i512]* @contacts_V, i64 0, i64 65), align 64, !dbg !31 ; [#uses=1 type=i512] [debug line = 2925:9@25:15]
  %tmp_1_64 = icmp eq i512 %contacts_V_load_65, %db_item_V_read, !dbg !31 ; [#uses=1 type=i1] [debug line = 2925:9@25:15]
  %contacts_V_load_66 = load i512* getelementptr inbounds ([128 x i512]* @contacts_V, i64 0, i64 66), align 64, !dbg !31 ; [#uses=1 type=i512] [debug line = 2925:9@25:15]
  %tmp_1_65 = icmp eq i512 %contacts_V_load_66, %db_item_V_read, !dbg !31 ; [#uses=1 type=i1] [debug line = 2925:9@25:15]
  %contacts_V_load_67 = load i512* getelementptr inbounds ([128 x i512]* @contacts_V, i64 0, i64 67), align 64, !dbg !31 ; [#uses=1 type=i512] [debug line = 2925:9@25:15]
  %tmp_1_66 = icmp eq i512 %contacts_V_load_67, %db_item_V_read, !dbg !31 ; [#uses=1 type=i1] [debug line = 2925:9@25:15]
  %contacts_V_load_68 = load i512* getelementptr inbounds ([128 x i512]* @contacts_V, i64 0, i64 68), align 64, !dbg !31 ; [#uses=1 type=i512] [debug line = 2925:9@25:15]
  %tmp_1_67 = icmp eq i512 %contacts_V_load_68, %db_item_V_read, !dbg !31 ; [#uses=1 type=i1] [debug line = 2925:9@25:15]
  %contacts_V_load_69 = load i512* getelementptr inbounds ([128 x i512]* @contacts_V, i64 0, i64 69), align 64, !dbg !31 ; [#uses=1 type=i512] [debug line = 2925:9@25:15]
  %tmp_1_68 = icmp eq i512 %contacts_V_load_69, %db_item_V_read, !dbg !31 ; [#uses=1 type=i1] [debug line = 2925:9@25:15]
  %contacts_V_load_70 = load i512* getelementptr inbounds ([128 x i512]* @contacts_V, i64 0, i64 70), align 64, !dbg !31 ; [#uses=1 type=i512] [debug line = 2925:9@25:15]
  %tmp_1_69 = icmp eq i512 %contacts_V_load_70, %db_item_V_read, !dbg !31 ; [#uses=1 type=i1] [debug line = 2925:9@25:15]
  %contacts_V_load_71 = load i512* getelementptr inbounds ([128 x i512]* @contacts_V, i64 0, i64 71), align 64, !dbg !31 ; [#uses=1 type=i512] [debug line = 2925:9@25:15]
  %tmp_1_70 = icmp eq i512 %contacts_V_load_71, %db_item_V_read, !dbg !31 ; [#uses=1 type=i1] [debug line = 2925:9@25:15]
  %contacts_V_load_72 = load i512* getelementptr inbounds ([128 x i512]* @contacts_V, i64 0, i64 72), align 64, !dbg !31 ; [#uses=1 type=i512] [debug line = 2925:9@25:15]
  %tmp_1_71 = icmp eq i512 %contacts_V_load_72, %db_item_V_read, !dbg !31 ; [#uses=1 type=i1] [debug line = 2925:9@25:15]
  %contacts_V_load_73 = load i512* getelementptr inbounds ([128 x i512]* @contacts_V, i64 0, i64 73), align 64, !dbg !31 ; [#uses=1 type=i512] [debug line = 2925:9@25:15]
  %tmp_1_72 = icmp eq i512 %contacts_V_load_73, %db_item_V_read, !dbg !31 ; [#uses=1 type=i1] [debug line = 2925:9@25:15]
  %contacts_V_load_74 = load i512* getelementptr inbounds ([128 x i512]* @contacts_V, i64 0, i64 74), align 64, !dbg !31 ; [#uses=1 type=i512] [debug line = 2925:9@25:15]
  %tmp_1_73 = icmp eq i512 %contacts_V_load_74, %db_item_V_read, !dbg !31 ; [#uses=1 type=i1] [debug line = 2925:9@25:15]
  %contacts_V_load_75 = load i512* getelementptr inbounds ([128 x i512]* @contacts_V, i64 0, i64 75), align 64, !dbg !31 ; [#uses=1 type=i512] [debug line = 2925:9@25:15]
  %tmp_1_74 = icmp eq i512 %contacts_V_load_75, %db_item_V_read, !dbg !31 ; [#uses=1 type=i1] [debug line = 2925:9@25:15]
  %contacts_V_load_76 = load i512* getelementptr inbounds ([128 x i512]* @contacts_V, i64 0, i64 76), align 64, !dbg !31 ; [#uses=1 type=i512] [debug line = 2925:9@25:15]
  %tmp_1_75 = icmp eq i512 %contacts_V_load_76, %db_item_V_read, !dbg !31 ; [#uses=1 type=i1] [debug line = 2925:9@25:15]
  %contacts_V_load_77 = load i512* getelementptr inbounds ([128 x i512]* @contacts_V, i64 0, i64 77), align 64, !dbg !31 ; [#uses=1 type=i512] [debug line = 2925:9@25:15]
  %tmp_1_76 = icmp eq i512 %contacts_V_load_77, %db_item_V_read, !dbg !31 ; [#uses=1 type=i1] [debug line = 2925:9@25:15]
  %contacts_V_load_78 = load i512* getelementptr inbounds ([128 x i512]* @contacts_V, i64 0, i64 78), align 64, !dbg !31 ; [#uses=1 type=i512] [debug line = 2925:9@25:15]
  %tmp_1_77 = icmp eq i512 %contacts_V_load_78, %db_item_V_read, !dbg !31 ; [#uses=1 type=i1] [debug line = 2925:9@25:15]
  %contacts_V_load_79 = load i512* getelementptr inbounds ([128 x i512]* @contacts_V, i64 0, i64 79), align 64, !dbg !31 ; [#uses=1 type=i512] [debug line = 2925:9@25:15]
  %tmp_1_78 = icmp eq i512 %contacts_V_load_79, %db_item_V_read, !dbg !31 ; [#uses=1 type=i1] [debug line = 2925:9@25:15]
  %contacts_V_load_80 = load i512* getelementptr inbounds ([128 x i512]* @contacts_V, i64 0, i64 80), align 64, !dbg !31 ; [#uses=1 type=i512] [debug line = 2925:9@25:15]
  %tmp_1_79 = icmp eq i512 %contacts_V_load_80, %db_item_V_read, !dbg !31 ; [#uses=1 type=i1] [debug line = 2925:9@25:15]
  %contacts_V_load_81 = load i512* getelementptr inbounds ([128 x i512]* @contacts_V, i64 0, i64 81), align 64, !dbg !31 ; [#uses=1 type=i512] [debug line = 2925:9@25:15]
  %tmp_1_80 = icmp eq i512 %contacts_V_load_81, %db_item_V_read, !dbg !31 ; [#uses=1 type=i1] [debug line = 2925:9@25:15]
  %contacts_V_load_82 = load i512* getelementptr inbounds ([128 x i512]* @contacts_V, i64 0, i64 82), align 64, !dbg !31 ; [#uses=1 type=i512] [debug line = 2925:9@25:15]
  %tmp_1_81 = icmp eq i512 %contacts_V_load_82, %db_item_V_read, !dbg !31 ; [#uses=1 type=i1] [debug line = 2925:9@25:15]
  %contacts_V_load_83 = load i512* getelementptr inbounds ([128 x i512]* @contacts_V, i64 0, i64 83), align 64, !dbg !31 ; [#uses=1 type=i512] [debug line = 2925:9@25:15]
  %tmp_1_82 = icmp eq i512 %contacts_V_load_83, %db_item_V_read, !dbg !31 ; [#uses=1 type=i1] [debug line = 2925:9@25:15]
  %contacts_V_load_84 = load i512* getelementptr inbounds ([128 x i512]* @contacts_V, i64 0, i64 84), align 64, !dbg !31 ; [#uses=1 type=i512] [debug line = 2925:9@25:15]
  %tmp_1_83 = icmp eq i512 %contacts_V_load_84, %db_item_V_read, !dbg !31 ; [#uses=1 type=i1] [debug line = 2925:9@25:15]
  %contacts_V_load_85 = load i512* getelementptr inbounds ([128 x i512]* @contacts_V, i64 0, i64 85), align 64, !dbg !31 ; [#uses=1 type=i512] [debug line = 2925:9@25:15]
  %tmp_1_84 = icmp eq i512 %contacts_V_load_85, %db_item_V_read, !dbg !31 ; [#uses=1 type=i1] [debug line = 2925:9@25:15]
  %contacts_V_load_86 = load i512* getelementptr inbounds ([128 x i512]* @contacts_V, i64 0, i64 86), align 64, !dbg !31 ; [#uses=1 type=i512] [debug line = 2925:9@25:15]
  %tmp_1_85 = icmp eq i512 %contacts_V_load_86, %db_item_V_read, !dbg !31 ; [#uses=1 type=i1] [debug line = 2925:9@25:15]
  %contacts_V_load_87 = load i512* getelementptr inbounds ([128 x i512]* @contacts_V, i64 0, i64 87), align 64, !dbg !31 ; [#uses=1 type=i512] [debug line = 2925:9@25:15]
  %tmp_1_86 = icmp eq i512 %contacts_V_load_87, %db_item_V_read, !dbg !31 ; [#uses=1 type=i1] [debug line = 2925:9@25:15]
  %contacts_V_load_88 = load i512* getelementptr inbounds ([128 x i512]* @contacts_V, i64 0, i64 88), align 64, !dbg !31 ; [#uses=1 type=i512] [debug line = 2925:9@25:15]
  %tmp_1_87 = icmp eq i512 %contacts_V_load_88, %db_item_V_read, !dbg !31 ; [#uses=1 type=i1] [debug line = 2925:9@25:15]
  %contacts_V_load_89 = load i512* getelementptr inbounds ([128 x i512]* @contacts_V, i64 0, i64 89), align 64, !dbg !31 ; [#uses=1 type=i512] [debug line = 2925:9@25:15]
  %tmp_1_88 = icmp eq i512 %contacts_V_load_89, %db_item_V_read, !dbg !31 ; [#uses=1 type=i1] [debug line = 2925:9@25:15]
  %contacts_V_load_90 = load i512* getelementptr inbounds ([128 x i512]* @contacts_V, i64 0, i64 90), align 64, !dbg !31 ; [#uses=1 type=i512] [debug line = 2925:9@25:15]
  %tmp_1_89 = icmp eq i512 %contacts_V_load_90, %db_item_V_read, !dbg !31 ; [#uses=1 type=i1] [debug line = 2925:9@25:15]
  %contacts_V_load_91 = load i512* getelementptr inbounds ([128 x i512]* @contacts_V, i64 0, i64 91), align 64, !dbg !31 ; [#uses=1 type=i512] [debug line = 2925:9@25:15]
  %tmp_1_90 = icmp eq i512 %contacts_V_load_91, %db_item_V_read, !dbg !31 ; [#uses=1 type=i1] [debug line = 2925:9@25:15]
  %contacts_V_load_92 = load i512* getelementptr inbounds ([128 x i512]* @contacts_V, i64 0, i64 92), align 64, !dbg !31 ; [#uses=1 type=i512] [debug line = 2925:9@25:15]
  %tmp_1_91 = icmp eq i512 %contacts_V_load_92, %db_item_V_read, !dbg !31 ; [#uses=1 type=i1] [debug line = 2925:9@25:15]
  %contacts_V_load_93 = load i512* getelementptr inbounds ([128 x i512]* @contacts_V, i64 0, i64 93), align 64, !dbg !31 ; [#uses=1 type=i512] [debug line = 2925:9@25:15]
  %tmp_1_92 = icmp eq i512 %contacts_V_load_93, %db_item_V_read, !dbg !31 ; [#uses=1 type=i1] [debug line = 2925:9@25:15]
  %contacts_V_load_94 = load i512* getelementptr inbounds ([128 x i512]* @contacts_V, i64 0, i64 94), align 64, !dbg !31 ; [#uses=1 type=i512] [debug line = 2925:9@25:15]
  %tmp_1_93 = icmp eq i512 %contacts_V_load_94, %db_item_V_read, !dbg !31 ; [#uses=1 type=i1] [debug line = 2925:9@25:15]
  %contacts_V_load_95 = load i512* getelementptr inbounds ([128 x i512]* @contacts_V, i64 0, i64 95), align 64, !dbg !31 ; [#uses=1 type=i512] [debug line = 2925:9@25:15]
  %tmp_1_94 = icmp eq i512 %contacts_V_load_95, %db_item_V_read, !dbg !31 ; [#uses=1 type=i1] [debug line = 2925:9@25:15]
  %contacts_V_load_96 = load i512* getelementptr inbounds ([128 x i512]* @contacts_V, i64 0, i64 96), align 64, !dbg !31 ; [#uses=1 type=i512] [debug line = 2925:9@25:15]
  %tmp_1_95 = icmp eq i512 %contacts_V_load_96, %db_item_V_read, !dbg !31 ; [#uses=1 type=i1] [debug line = 2925:9@25:15]
  %contacts_V_load_97 = load i512* getelementptr inbounds ([128 x i512]* @contacts_V, i64 0, i64 97), align 64, !dbg !31 ; [#uses=1 type=i512] [debug line = 2925:9@25:15]
  %tmp_1_96 = icmp eq i512 %contacts_V_load_97, %db_item_V_read, !dbg !31 ; [#uses=1 type=i1] [debug line = 2925:9@25:15]
  %contacts_V_load_98 = load i512* getelementptr inbounds ([128 x i512]* @contacts_V, i64 0, i64 98), align 64, !dbg !31 ; [#uses=1 type=i512] [debug line = 2925:9@25:15]
  %tmp_1_97 = icmp eq i512 %contacts_V_load_98, %db_item_V_read, !dbg !31 ; [#uses=1 type=i1] [debug line = 2925:9@25:15]
  %contacts_V_load_99 = load i512* getelementptr inbounds ([128 x i512]* @contacts_V, i64 0, i64 99), align 64, !dbg !31 ; [#uses=1 type=i512] [debug line = 2925:9@25:15]
  %tmp_1_98 = icmp eq i512 %contacts_V_load_99, %db_item_V_read, !dbg !31 ; [#uses=1 type=i1] [debug line = 2925:9@25:15]
  %contacts_V_load_100 = load i512* getelementptr inbounds ([128 x i512]* @contacts_V, i64 0, i64 100), align 64, !dbg !31 ; [#uses=1 type=i512] [debug line = 2925:9@25:15]
  %tmp_1_99 = icmp eq i512 %contacts_V_load_100, %db_item_V_read, !dbg !31 ; [#uses=1 type=i1] [debug line = 2925:9@25:15]
  %contacts_V_load_101 = load i512* getelementptr inbounds ([128 x i512]* @contacts_V, i64 0, i64 101), align 64, !dbg !31 ; [#uses=1 type=i512] [debug line = 2925:9@25:15]
  %tmp_1_100 = icmp eq i512 %contacts_V_load_101, %db_item_V_read, !dbg !31 ; [#uses=1 type=i1] [debug line = 2925:9@25:15]
  %contacts_V_load_102 = load i512* getelementptr inbounds ([128 x i512]* @contacts_V, i64 0, i64 102), align 64, !dbg !31 ; [#uses=1 type=i512] [debug line = 2925:9@25:15]
  %tmp_1_101 = icmp eq i512 %contacts_V_load_102, %db_item_V_read, !dbg !31 ; [#uses=1 type=i1] [debug line = 2925:9@25:15]
  %contacts_V_load_103 = load i512* getelementptr inbounds ([128 x i512]* @contacts_V, i64 0, i64 103), align 64, !dbg !31 ; [#uses=1 type=i512] [debug line = 2925:9@25:15]
  %tmp_1_102 = icmp eq i512 %contacts_V_load_103, %db_item_V_read, !dbg !31 ; [#uses=1 type=i1] [debug line = 2925:9@25:15]
  %contacts_V_load_104 = load i512* getelementptr inbounds ([128 x i512]* @contacts_V, i64 0, i64 104), align 64, !dbg !31 ; [#uses=1 type=i512] [debug line = 2925:9@25:15]
  %tmp_1_103 = icmp eq i512 %contacts_V_load_104, %db_item_V_read, !dbg !31 ; [#uses=1 type=i1] [debug line = 2925:9@25:15]
  %contacts_V_load_105 = load i512* getelementptr inbounds ([128 x i512]* @contacts_V, i64 0, i64 105), align 64, !dbg !31 ; [#uses=1 type=i512] [debug line = 2925:9@25:15]
  %tmp_1_104 = icmp eq i512 %contacts_V_load_105, %db_item_V_read, !dbg !31 ; [#uses=1 type=i1] [debug line = 2925:9@25:15]
  %contacts_V_load_106 = load i512* getelementptr inbounds ([128 x i512]* @contacts_V, i64 0, i64 106), align 64, !dbg !31 ; [#uses=1 type=i512] [debug line = 2925:9@25:15]
  %tmp_1_105 = icmp eq i512 %contacts_V_load_106, %db_item_V_read, !dbg !31 ; [#uses=1 type=i1] [debug line = 2925:9@25:15]
  %contacts_V_load_107 = load i512* getelementptr inbounds ([128 x i512]* @contacts_V, i64 0, i64 107), align 64, !dbg !31 ; [#uses=1 type=i512] [debug line = 2925:9@25:15]
  %tmp_1_106 = icmp eq i512 %contacts_V_load_107, %db_item_V_read, !dbg !31 ; [#uses=1 type=i1] [debug line = 2925:9@25:15]
  %contacts_V_load_108 = load i512* getelementptr inbounds ([128 x i512]* @contacts_V, i64 0, i64 108), align 64, !dbg !31 ; [#uses=1 type=i512] [debug line = 2925:9@25:15]
  %tmp_1_107 = icmp eq i512 %contacts_V_load_108, %db_item_V_read, !dbg !31 ; [#uses=1 type=i1] [debug line = 2925:9@25:15]
  %contacts_V_load_109 = load i512* getelementptr inbounds ([128 x i512]* @contacts_V, i64 0, i64 109), align 64, !dbg !31 ; [#uses=1 type=i512] [debug line = 2925:9@25:15]
  %tmp_1_108 = icmp eq i512 %contacts_V_load_109, %db_item_V_read, !dbg !31 ; [#uses=1 type=i1] [debug line = 2925:9@25:15]
  %contacts_V_load_110 = load i512* getelementptr inbounds ([128 x i512]* @contacts_V, i64 0, i64 110), align 64, !dbg !31 ; [#uses=1 type=i512] [debug line = 2925:9@25:15]
  %tmp_1_109 = icmp eq i512 %contacts_V_load_110, %db_item_V_read, !dbg !31 ; [#uses=1 type=i1] [debug line = 2925:9@25:15]
  %contacts_V_load_111 = load i512* getelementptr inbounds ([128 x i512]* @contacts_V, i64 0, i64 111), align 64, !dbg !31 ; [#uses=1 type=i512] [debug line = 2925:9@25:15]
  %tmp_1_110 = icmp eq i512 %contacts_V_load_111, %db_item_V_read, !dbg !31 ; [#uses=1 type=i1] [debug line = 2925:9@25:15]
  %contacts_V_load_112 = load i512* getelementptr inbounds ([128 x i512]* @contacts_V, i64 0, i64 112), align 64, !dbg !31 ; [#uses=1 type=i512] [debug line = 2925:9@25:15]
  %tmp_1_111 = icmp eq i512 %contacts_V_load_112, %db_item_V_read, !dbg !31 ; [#uses=1 type=i1] [debug line = 2925:9@25:15]
  %contacts_V_load_113 = load i512* getelementptr inbounds ([128 x i512]* @contacts_V, i64 0, i64 113), align 64, !dbg !31 ; [#uses=1 type=i512] [debug line = 2925:9@25:15]
  %tmp_1_112 = icmp eq i512 %contacts_V_load_113, %db_item_V_read, !dbg !31 ; [#uses=1 type=i1] [debug line = 2925:9@25:15]
  %contacts_V_load_114 = load i512* getelementptr inbounds ([128 x i512]* @contacts_V, i64 0, i64 114), align 64, !dbg !31 ; [#uses=1 type=i512] [debug line = 2925:9@25:15]
  %tmp_1_113 = icmp eq i512 %contacts_V_load_114, %db_item_V_read, !dbg !31 ; [#uses=1 type=i1] [debug line = 2925:9@25:15]
  %contacts_V_load_115 = load i512* getelementptr inbounds ([128 x i512]* @contacts_V, i64 0, i64 115), align 64, !dbg !31 ; [#uses=1 type=i512] [debug line = 2925:9@25:15]
  %tmp_1_114 = icmp eq i512 %contacts_V_load_115, %db_item_V_read, !dbg !31 ; [#uses=1 type=i1] [debug line = 2925:9@25:15]
  %contacts_V_load_116 = load i512* getelementptr inbounds ([128 x i512]* @contacts_V, i64 0, i64 116), align 64, !dbg !31 ; [#uses=1 type=i512] [debug line = 2925:9@25:15]
  %tmp_1_115 = icmp eq i512 %contacts_V_load_116, %db_item_V_read, !dbg !31 ; [#uses=1 type=i1] [debug line = 2925:9@25:15]
  %contacts_V_load_117 = load i512* getelementptr inbounds ([128 x i512]* @contacts_V, i64 0, i64 117), align 64, !dbg !31 ; [#uses=1 type=i512] [debug line = 2925:9@25:15]
  %tmp_1_116 = icmp eq i512 %contacts_V_load_117, %db_item_V_read, !dbg !31 ; [#uses=1 type=i1] [debug line = 2925:9@25:15]
  %contacts_V_load_118 = load i512* getelementptr inbounds ([128 x i512]* @contacts_V, i64 0, i64 118), align 64, !dbg !31 ; [#uses=1 type=i512] [debug line = 2925:9@25:15]
  %tmp_1_117 = icmp eq i512 %contacts_V_load_118, %db_item_V_read, !dbg !31 ; [#uses=1 type=i1] [debug line = 2925:9@25:15]
  %contacts_V_load_119 = load i512* getelementptr inbounds ([128 x i512]* @contacts_V, i64 0, i64 119), align 64, !dbg !31 ; [#uses=1 type=i512] [debug line = 2925:9@25:15]
  %tmp_1_118 = icmp eq i512 %contacts_V_load_119, %db_item_V_read, !dbg !31 ; [#uses=1 type=i1] [debug line = 2925:9@25:15]
  %contacts_V_load_120 = load i512* getelementptr inbounds ([128 x i512]* @contacts_V, i64 0, i64 120), align 64, !dbg !31 ; [#uses=1 type=i512] [debug line = 2925:9@25:15]
  %tmp_1_119 = icmp eq i512 %contacts_V_load_120, %db_item_V_read, !dbg !31 ; [#uses=1 type=i1] [debug line = 2925:9@25:15]
  %contacts_V_load_121 = load i512* getelementptr inbounds ([128 x i512]* @contacts_V, i64 0, i64 121), align 64, !dbg !31 ; [#uses=1 type=i512] [debug line = 2925:9@25:15]
  %tmp_1_120 = icmp eq i512 %contacts_V_load_121, %db_item_V_read, !dbg !31 ; [#uses=1 type=i1] [debug line = 2925:9@25:15]
  %contacts_V_load_122 = load i512* getelementptr inbounds ([128 x i512]* @contacts_V, i64 0, i64 122), align 64, !dbg !31 ; [#uses=1 type=i512] [debug line = 2925:9@25:15]
  %tmp_1_121 = icmp eq i512 %contacts_V_load_122, %db_item_V_read, !dbg !31 ; [#uses=1 type=i1] [debug line = 2925:9@25:15]
  %contacts_V_load_123 = load i512* getelementptr inbounds ([128 x i512]* @contacts_V, i64 0, i64 123), align 64, !dbg !31 ; [#uses=1 type=i512] [debug line = 2925:9@25:15]
  %tmp_1_122 = icmp eq i512 %contacts_V_load_123, %db_item_V_read, !dbg !31 ; [#uses=1 type=i1] [debug line = 2925:9@25:15]
  %contacts_V_load_124 = load i512* getelementptr inbounds ([128 x i512]* @contacts_V, i64 0, i64 124), align 64, !dbg !31 ; [#uses=1 type=i512] [debug line = 2925:9@25:15]
  %tmp_1_123 = icmp eq i512 %contacts_V_load_124, %db_item_V_read, !dbg !31 ; [#uses=1 type=i1] [debug line = 2925:9@25:15]
  %contacts_V_load_125 = load i512* getelementptr inbounds ([128 x i512]* @contacts_V, i64 0, i64 125), align 64, !dbg !31 ; [#uses=1 type=i512] [debug line = 2925:9@25:15]
  %tmp_1_124 = icmp eq i512 %contacts_V_load_125, %db_item_V_read, !dbg !31 ; [#uses=1 type=i1] [debug line = 2925:9@25:15]
  %contacts_V_load_126 = load i512* getelementptr inbounds ([128 x i512]* @contacts_V, i64 0, i64 126), align 64, !dbg !31 ; [#uses=1 type=i512] [debug line = 2925:9@25:15]
  %tmp_1_125 = icmp eq i512 %contacts_V_load_126, %db_item_V_read, !dbg !31 ; [#uses=1 type=i1] [debug line = 2925:9@25:15]
  %contacts_V_load_127 = load i512* getelementptr inbounds ([128 x i512]* @contacts_V, i64 0, i64 127), align 64, !dbg !31 ; [#uses=1 type=i512] [debug line = 2925:9@25:15]
  %tmp_1_126 = icmp eq i512 %contacts_V_load_127, %db_item_V_read, !dbg !31 ; [#uses=1 type=i1] [debug line = 2925:9@25:15]
  %tmp5 = or i1 %tmp_1, %tmp_1_1, !dbg !324       ; [#uses=1 type=i1] [debug line = 25:15]
  %tmp6 = or i1 %tmp_1_2, %tmp_1_3, !dbg !324     ; [#uses=1 type=i1] [debug line = 25:15]
  %tmp4 = or i1 %tmp6, %tmp5, !dbg !324           ; [#uses=1 type=i1] [debug line = 25:15]
  %tmp8 = or i1 %tmp_1_4, %tmp_1_5, !dbg !324     ; [#uses=1 type=i1] [debug line = 25:15]
  %tmp9 = or i1 %tmp_1_6, %tmp_1_7, !dbg !324     ; [#uses=1 type=i1] [debug line = 25:15]
  %tmp7 = or i1 %tmp9, %tmp8, !dbg !324           ; [#uses=1 type=i1] [debug line = 25:15]
  %tmp3 = or i1 %tmp7, %tmp4, !dbg !324           ; [#uses=1 type=i1] [debug line = 25:15]
  %tmp12 = or i1 %tmp_1_8, %tmp_1_9, !dbg !324    ; [#uses=1 type=i1] [debug line = 25:15]
  %tmp13 = or i1 %tmp_1_s, %tmp_1_10, !dbg !324   ; [#uses=1 type=i1] [debug line = 25:15]
  %tmp11 = or i1 %tmp13, %tmp12, !dbg !324        ; [#uses=1 type=i1] [debug line = 25:15]
  %tmp15 = or i1 %tmp_1_11, %tmp_1_12, !dbg !324  ; [#uses=1 type=i1] [debug line = 25:15]
  %tmp16 = or i1 %tmp_1_13, %tmp_1_14, !dbg !324  ; [#uses=1 type=i1] [debug line = 25:15]
  %tmp14 = or i1 %tmp16, %tmp15, !dbg !324        ; [#uses=1 type=i1] [debug line = 25:15]
  %tmp10 = or i1 %tmp14, %tmp11, !dbg !324        ; [#uses=1 type=i1] [debug line = 25:15]
  %tmp2 = or i1 %tmp10, %tmp3, !dbg !324          ; [#uses=1 type=i1] [debug line = 25:15]
  %tmp20 = or i1 %tmp_1_15, %tmp_1_16, !dbg !324  ; [#uses=1 type=i1] [debug line = 25:15]
  %tmp21 = or i1 %tmp_1_17, %tmp_1_18, !dbg !324  ; [#uses=1 type=i1] [debug line = 25:15]
  %tmp19 = or i1 %tmp21, %tmp20, !dbg !324        ; [#uses=1 type=i1] [debug line = 25:15]
  %tmp23 = or i1 %tmp_1_19, %tmp_1_20, !dbg !324  ; [#uses=1 type=i1] [debug line = 25:15]
  %tmp24 = or i1 %tmp_1_21, %tmp_1_22, !dbg !324  ; [#uses=1 type=i1] [debug line = 25:15]
  %tmp22 = or i1 %tmp24, %tmp23, !dbg !324        ; [#uses=1 type=i1] [debug line = 25:15]
  %tmp18 = or i1 %tmp22, %tmp19, !dbg !324        ; [#uses=1 type=i1] [debug line = 25:15]
  %tmp27 = or i1 %tmp_1_23, %tmp_1_24, !dbg !324  ; [#uses=1 type=i1] [debug line = 25:15]
  %tmp28 = or i1 %tmp_1_25, %tmp_1_26, !dbg !324  ; [#uses=1 type=i1] [debug line = 25:15]
  %tmp26 = or i1 %tmp28, %tmp27, !dbg !324        ; [#uses=1 type=i1] [debug line = 25:15]
  %tmp30 = or i1 %tmp_1_27, %tmp_1_28, !dbg !324  ; [#uses=1 type=i1] [debug line = 25:15]
  %tmp31 = or i1 %tmp_1_29, %tmp_1_30, !dbg !324  ; [#uses=1 type=i1] [debug line = 25:15]
  %tmp29 = or i1 %tmp31, %tmp30, !dbg !324        ; [#uses=1 type=i1] [debug line = 25:15]
  %tmp25 = or i1 %tmp29, %tmp26, !dbg !324        ; [#uses=1 type=i1] [debug line = 25:15]
  %tmp17 = or i1 %tmp25, %tmp18, !dbg !324        ; [#uses=1 type=i1] [debug line = 25:15]
  %tmp1 = or i1 %tmp17, %tmp2, !dbg !324          ; [#uses=1 type=i1] [debug line = 25:15]
  %tmp36 = or i1 %tmp_1_31, %tmp_1_32, !dbg !324  ; [#uses=1 type=i1] [debug line = 25:15]
  %tmp37 = or i1 %tmp_1_33, %tmp_1_34, !dbg !324  ; [#uses=1 type=i1] [debug line = 25:15]
  %tmp35 = or i1 %tmp37, %tmp36, !dbg !324        ; [#uses=1 type=i1] [debug line = 25:15]
  %tmp39 = or i1 %tmp_1_35, %tmp_1_36, !dbg !324  ; [#uses=1 type=i1] [debug line = 25:15]
  %tmp40 = or i1 %tmp_1_37, %tmp_1_38, !dbg !324  ; [#uses=1 type=i1] [debug line = 25:15]
  %tmp38 = or i1 %tmp40, %tmp39, !dbg !324        ; [#uses=1 type=i1] [debug line = 25:15]
  %tmp34 = or i1 %tmp38, %tmp35, !dbg !324        ; [#uses=1 type=i1] [debug line = 25:15]
  %tmp43 = or i1 %tmp_1_39, %tmp_1_40, !dbg !324  ; [#uses=1 type=i1] [debug line = 25:15]
  %tmp44 = or i1 %tmp_1_41, %tmp_1_42, !dbg !324  ; [#uses=1 type=i1] [debug line = 25:15]
  %tmp42 = or i1 %tmp44, %tmp43, !dbg !324        ; [#uses=1 type=i1] [debug line = 25:15]
  %tmp46 = or i1 %tmp_1_43, %tmp_1_44, !dbg !324  ; [#uses=1 type=i1] [debug line = 25:15]
  %tmp47 = or i1 %tmp_1_45, %tmp_1_46, !dbg !324  ; [#uses=1 type=i1] [debug line = 25:15]
  %tmp45 = or i1 %tmp47, %tmp46, !dbg !324        ; [#uses=1 type=i1] [debug line = 25:15]
  %tmp41 = or i1 %tmp45, %tmp42, !dbg !324        ; [#uses=1 type=i1] [debug line = 25:15]
  %tmp33 = or i1 %tmp41, %tmp34, !dbg !324        ; [#uses=1 type=i1] [debug line = 25:15]
  %tmp51 = or i1 %tmp_1_47, %tmp_1_48, !dbg !324  ; [#uses=1 type=i1] [debug line = 25:15]
  %tmp52 = or i1 %tmp_1_49, %tmp_1_50, !dbg !324  ; [#uses=1 type=i1] [debug line = 25:15]
  %tmp50 = or i1 %tmp52, %tmp51, !dbg !324        ; [#uses=1 type=i1] [debug line = 25:15]
  %tmp54 = or i1 %tmp_1_51, %tmp_1_52, !dbg !324  ; [#uses=1 type=i1] [debug line = 25:15]
  %tmp55 = or i1 %tmp_1_53, %tmp_1_54, !dbg !324  ; [#uses=1 type=i1] [debug line = 25:15]
  %tmp53 = or i1 %tmp55, %tmp54, !dbg !324        ; [#uses=1 type=i1] [debug line = 25:15]
  %tmp49 = or i1 %tmp53, %tmp50, !dbg !324        ; [#uses=1 type=i1] [debug line = 25:15]
  %tmp58 = or i1 %tmp_1_55, %tmp_1_56, !dbg !324  ; [#uses=1 type=i1] [debug line = 25:15]
  %tmp59 = or i1 %tmp_1_57, %tmp_1_58, !dbg !324  ; [#uses=1 type=i1] [debug line = 25:15]
  %tmp57 = or i1 %tmp59, %tmp58, !dbg !324        ; [#uses=1 type=i1] [debug line = 25:15]
  %tmp61 = or i1 %tmp_1_59, %tmp_1_60, !dbg !324  ; [#uses=1 type=i1] [debug line = 25:15]
  %tmp62 = or i1 %tmp_1_61, %tmp_1_62, !dbg !324  ; [#uses=1 type=i1] [debug line = 25:15]
  %tmp60 = or i1 %tmp62, %tmp61, !dbg !324        ; [#uses=1 type=i1] [debug line = 25:15]
  %tmp56 = or i1 %tmp60, %tmp57, !dbg !324        ; [#uses=1 type=i1] [debug line = 25:15]
  %tmp48 = or i1 %tmp56, %tmp49, !dbg !324        ; [#uses=1 type=i1] [debug line = 25:15]
  %tmp32 = or i1 %tmp48, %tmp33, !dbg !324        ; [#uses=1 type=i1] [debug line = 25:15]
  %tmp = or i1 %tmp32, %tmp1, !dbg !324           ; [#uses=1 type=i1] [debug line = 25:15]
  %tmp68 = or i1 %tmp_1_63, %tmp_1_64, !dbg !324  ; [#uses=1 type=i1] [debug line = 25:15]
  %tmp69 = or i1 %tmp_1_65, %tmp_1_66, !dbg !324  ; [#uses=1 type=i1] [debug line = 25:15]
  %tmp67 = or i1 %tmp69, %tmp68, !dbg !324        ; [#uses=1 type=i1] [debug line = 25:15]
  %tmp71 = or i1 %tmp_1_67, %tmp_1_68, !dbg !324  ; [#uses=1 type=i1] [debug line = 25:15]
  %tmp72 = or i1 %tmp_1_69, %tmp_1_70, !dbg !324  ; [#uses=1 type=i1] [debug line = 25:15]
  %tmp70 = or i1 %tmp72, %tmp71, !dbg !324        ; [#uses=1 type=i1] [debug line = 25:15]
  %tmp66 = or i1 %tmp70, %tmp67, !dbg !324        ; [#uses=1 type=i1] [debug line = 25:15]
  %tmp75 = or i1 %tmp_1_71, %tmp_1_72, !dbg !324  ; [#uses=1 type=i1] [debug line = 25:15]
  %tmp76 = or i1 %tmp_1_73, %tmp_1_74, !dbg !324  ; [#uses=1 type=i1] [debug line = 25:15]
  %tmp74 = or i1 %tmp76, %tmp75, !dbg !324        ; [#uses=1 type=i1] [debug line = 25:15]
  %tmp78 = or i1 %tmp_1_75, %tmp_1_76, !dbg !324  ; [#uses=1 type=i1] [debug line = 25:15]
  %tmp79 = or i1 %tmp_1_77, %tmp_1_78, !dbg !324  ; [#uses=1 type=i1] [debug line = 25:15]
  %tmp77 = or i1 %tmp79, %tmp78, !dbg !324        ; [#uses=1 type=i1] [debug line = 25:15]
  %tmp73 = or i1 %tmp77, %tmp74, !dbg !324        ; [#uses=1 type=i1] [debug line = 25:15]
  %tmp65 = or i1 %tmp73, %tmp66, !dbg !324        ; [#uses=1 type=i1] [debug line = 25:15]
  %tmp83 = or i1 %tmp_1_79, %tmp_1_80, !dbg !324  ; [#uses=1 type=i1] [debug line = 25:15]
  %tmp84 = or i1 %tmp_1_81, %tmp_1_82, !dbg !324  ; [#uses=1 type=i1] [debug line = 25:15]
  %tmp82 = or i1 %tmp84, %tmp83, !dbg !324        ; [#uses=1 type=i1] [debug line = 25:15]
  %tmp86 = or i1 %tmp_1_83, %tmp_1_84, !dbg !324  ; [#uses=1 type=i1] [debug line = 25:15]
  %tmp87 = or i1 %tmp_1_85, %tmp_1_86, !dbg !324  ; [#uses=1 type=i1] [debug line = 25:15]
  %tmp85 = or i1 %tmp87, %tmp86, !dbg !324        ; [#uses=1 type=i1] [debug line = 25:15]
  %tmp81 = or i1 %tmp85, %tmp82, !dbg !324        ; [#uses=1 type=i1] [debug line = 25:15]
  %tmp90 = or i1 %tmp_1_87, %tmp_1_88, !dbg !324  ; [#uses=1 type=i1] [debug line = 25:15]
  %tmp91 = or i1 %tmp_1_89, %tmp_1_90, !dbg !324  ; [#uses=1 type=i1] [debug line = 25:15]
  %tmp89 = or i1 %tmp91, %tmp90, !dbg !324        ; [#uses=1 type=i1] [debug line = 25:15]
  %tmp93 = or i1 %tmp_1_91, %tmp_1_92, !dbg !324  ; [#uses=1 type=i1] [debug line = 25:15]
  %tmp94 = or i1 %tmp_1_93, %tmp_1_94, !dbg !324  ; [#uses=1 type=i1] [debug line = 25:15]
  %tmp92 = or i1 %tmp94, %tmp93, !dbg !324        ; [#uses=1 type=i1] [debug line = 25:15]
  %tmp88 = or i1 %tmp92, %tmp89, !dbg !324        ; [#uses=1 type=i1] [debug line = 25:15]
  %tmp80 = or i1 %tmp88, %tmp81, !dbg !324        ; [#uses=1 type=i1] [debug line = 25:15]
  %tmp64 = or i1 %tmp80, %tmp65, !dbg !324        ; [#uses=1 type=i1] [debug line = 25:15]
  %tmp99 = or i1 %tmp_1_95, %tmp_1_96, !dbg !324  ; [#uses=1 type=i1] [debug line = 25:15]
  %tmp100 = or i1 %tmp_1_97, %tmp_1_98, !dbg !324 ; [#uses=1 type=i1] [debug line = 25:15]
  %tmp98 = or i1 %tmp100, %tmp99, !dbg !324       ; [#uses=1 type=i1] [debug line = 25:15]
  %tmp102 = or i1 %tmp_1_99, %tmp_1_100, !dbg !324 ; [#uses=1 type=i1] [debug line = 25:15]
  %tmp103 = or i1 %tmp_1_101, %tmp_1_102, !dbg !324 ; [#uses=1 type=i1] [debug line = 25:15]
  %tmp101 = or i1 %tmp103, %tmp102, !dbg !324     ; [#uses=1 type=i1] [debug line = 25:15]
  %tmp97 = or i1 %tmp101, %tmp98, !dbg !324       ; [#uses=1 type=i1] [debug line = 25:15]
  %tmp106 = or i1 %tmp_1_103, %tmp_1_104, !dbg !324 ; [#uses=1 type=i1] [debug line = 25:15]
  %tmp107 = or i1 %tmp_1_105, %tmp_1_106, !dbg !324 ; [#uses=1 type=i1] [debug line = 25:15]
  %tmp105 = or i1 %tmp107, %tmp106, !dbg !324     ; [#uses=1 type=i1] [debug line = 25:15]
  %tmp109 = or i1 %tmp_1_107, %tmp_1_108, !dbg !324 ; [#uses=1 type=i1] [debug line = 25:15]
  %tmp110 = or i1 %tmp_1_109, %tmp_1_110, !dbg !324 ; [#uses=1 type=i1] [debug line = 25:15]
  %tmp108 = or i1 %tmp110, %tmp109, !dbg !324     ; [#uses=1 type=i1] [debug line = 25:15]
  %tmp104 = or i1 %tmp108, %tmp105, !dbg !324     ; [#uses=1 type=i1] [debug line = 25:15]
  %tmp96 = or i1 %tmp104, %tmp97, !dbg !324       ; [#uses=1 type=i1] [debug line = 25:15]
  %tmp114 = or i1 %tmp_1_111, %tmp_1_112, !dbg !324 ; [#uses=1 type=i1] [debug line = 25:15]
  %tmp115 = or i1 %tmp_1_113, %tmp_1_114, !dbg !324 ; [#uses=1 type=i1] [debug line = 25:15]
  %tmp113 = or i1 %tmp115, %tmp114, !dbg !324     ; [#uses=1 type=i1] [debug line = 25:15]
  %tmp117 = or i1 %tmp_1_115, %tmp_1_116, !dbg !324 ; [#uses=1 type=i1] [debug line = 25:15]
  %tmp118 = or i1 %tmp_1_117, %tmp_1_118, !dbg !324 ; [#uses=1 type=i1] [debug line = 25:15]
  %tmp116 = or i1 %tmp118, %tmp117, !dbg !324     ; [#uses=1 type=i1] [debug line = 25:15]
  %tmp112 = or i1 %tmp116, %tmp113, !dbg !324     ; [#uses=1 type=i1] [debug line = 25:15]
  %tmp121 = or i1 %tmp_1_119, %tmp_1_120, !dbg !324 ; [#uses=1 type=i1] [debug line = 25:15]
  %tmp122 = or i1 %tmp_1_121, %tmp_1_122, !dbg !324 ; [#uses=1 type=i1] [debug line = 25:15]
  %tmp120 = or i1 %tmp122, %tmp121, !dbg !324     ; [#uses=1 type=i1] [debug line = 25:15]
  %tmp124 = or i1 %tmp_1_123, %tmp_1_124, !dbg !324 ; [#uses=1 type=i1] [debug line = 25:15]
  %tmp125 = or i1 %tmp_1_125, %tmp_1_126, !dbg !324 ; [#uses=1 type=i1] [debug line = 25:15]
  %tmp123 = or i1 %tmp125, %tmp124, !dbg !324     ; [#uses=1 type=i1] [debug line = 25:15]
  %tmp119 = or i1 %tmp123, %tmp120, !dbg !324     ; [#uses=1 type=i1] [debug line = 25:15]
  %tmp111 = or i1 %tmp119, %tmp112, !dbg !324     ; [#uses=1 type=i1] [debug line = 25:15]
  %tmp95 = or i1 %tmp111, %tmp96, !dbg !324       ; [#uses=1 type=i1] [debug line = 25:15]
  %tmp63 = or i1 %tmp95, %tmp64, !dbg !324        ; [#uses=1 type=i1] [debug line = 25:15]
  %matched_1_s = or i1 %tmp63, %tmp, !dbg !324    ; [#uses=1 type=i1] [debug line = 25:15]
  ret i1 %matched_1_s, !dbg !409                  ; [debug line = 27:2]
}

; [#uses=1]
declare i32 @llvm.part.select.i32(i32, i32, i32) nounwind readnone

; [#uses=13]
declare void @llvm.dbg.value(metadata, i64, metadata) nounwind readnone

; [#uses=0]
define void @contact_discovery(i32 %operation, i512 %contact_in_V, i512* %db_mem_V, i64 %offset, i32 %db_size_in, i32* %error_out, i32* %contacts_size_out, i8* %results_out) {
  call void (...)* @_ssdm_op_SpecBitsMap(i32 %operation), !map !410
  call void (...)* @_ssdm_op_SpecBitsMap(i512 %contact_in_V), !map !416
  call void (...)* @_ssdm_op_SpecBitsMap(i512* %db_mem_V), !map !420
  call void (...)* @_ssdm_op_SpecBitsMap(i64 %offset), !map !426
  call void (...)* @_ssdm_op_SpecBitsMap(i32 %db_size_in), !map !430
  call void (...)* @_ssdm_op_SpecBitsMap(i32* %error_out), !map !434
  call void (...)* @_ssdm_op_SpecBitsMap(i32* %contacts_size_out), !map !438
  call void (...)* @_ssdm_op_SpecBitsMap(i8* %results_out), !map !442
  call void (...)* @_ssdm_op_SpecTopModule([18 x i8]* @contact_discovery_st) nounwind
  %db_size_in_read = call i32 @_ssdm_op_Read.ap_none.i32(i32 %db_size_in) ; [#uses=1 type=i32]
  call void @llvm.dbg.value(metadata !{i32 %db_size_in_read}, i64 0, metadata !448), !dbg !455 ; [debug line = 44:15] [debug variable = db_size_in]
  %offset_read = call i64 @_ssdm_op_Read.ap_none.i64(i64 %offset) ; [#uses=1 type=i64]
  call void @llvm.dbg.value(metadata !{i64 %offset_read}, i64 0, metadata !456), !dbg !457 ; [debug line = 43:21] [debug variable = offset]
  %contact_in_V_read = call i512 @_ssdm_op_Read.s_axilite.i512(i512 %contact_in_V) ; [#uses=1 type=i512]
  call void @llvm.dbg.value(metadata !{i512 %contact_in_V_read}, i64 0, metadata !458), !dbg !468 ; [debug line = 279:87@78:5] [debug variable = op2.V]
  %operation_read = call i32 @_ssdm_op_Read.ap_vld.i32(i32 %operation) ; [#uses=1 type=i32]
  call void @llvm.dbg.value(metadata !{i32 %operation_read}, i64 0, metadata !473), !dbg !474 ; [debug line = 40:6] [debug variable = operation]
  call void @llvm.dbg.value(metadata !{i32 %operation}, i64 0, metadata !473), !dbg !474 ; [debug line = 40:6] [debug variable = operation]
  call void @llvm.dbg.value(metadata !{i512* %db_mem_V}, i64 0, metadata !475), !dbg !480 ; [debug line = 42:7] [debug variable = db_mem.V]
  call void @llvm.dbg.value(metadata !{i64 %offset}, i64 0, metadata !456), !dbg !457 ; [debug line = 43:21] [debug variable = offset]
  call void @llvm.dbg.value(metadata !{i32 %db_size_in}, i64 0, metadata !448), !dbg !455 ; [debug line = 44:15] [debug variable = db_size_in]
  call void @llvm.dbg.value(metadata !{i32* %error_out}, i64 0, metadata !481), !dbg !482 ; [debug line = 45:7] [debug variable = error_out]
  call void @llvm.dbg.value(metadata !{i32* %contacts_size_out}, i64 0, metadata !483), !dbg !484 ; [debug line = 46:7] [debug variable = contacts_size_out]
  call void @llvm.dbg.value(metadata !{i8* %results_out}, i64 0, metadata !485), !dbg !489 ; [debug line = 47:16] [debug variable = results_out]
  call void (...)* @_ssdm_op_SpecInterface(i64 %offset, [8 x i8]* @p_str, i32 0, i32 0, [1 x i8]* @p_str3, i32 0, i32 0, [1 x i8]* @p_str3, [1 x i8]* @p_str3, [1 x i8]* @p_str3, i32 0, i32 0, i32 0, i32 0, [1 x i8]* @p_str3, [1 x i8]* @p_str3) nounwind, !dbg !490 ; [debug line = 49:1]
  call void (...)* @_ssdm_op_SpecInterface(i64 %offset, [10 x i8]* @p_str4, i32 0, i32 0, [1 x i8]* @p_str3, i32 0, i32 0, [1 x i8]* @p_str3, [1 x i8]* @p_str3, [1 x i8]* @p_str3, i32 0, i32 0, i32 0, i32 0, [1 x i8]* @p_str3, [1 x i8]* @p_str3) nounwind, !dbg !491 ; [debug line = 50:1]
  call void (...)* @_ssdm_op_SpecInterface(i512* %db_mem_V, [6 x i8]* @p_str5, i32 0, i32 0, [1 x i8]* @p_str3, i32 0, i32 536870912, [1 x i8]* @p_str3, [1 x i8]* @p_str3, [1 x i8]* @p_str3, i32 16, i32 16, i32 4, i32 16, [1 x i8]* @p_str3, [1 x i8]* @p_str3)
  call void (...)* @_ssdm_op_SpecInterface(i8* %results_out, [5 x i8]* @p_str6, i32 1, i32 1, [5 x i8]* @p_str7, i32 0, i32 0, [1 x i8]* @p_str3, [1 x i8]* @p_str3, [1 x i8]* @p_str3, i32 0, i32 0, i32 0, i32 0, [1 x i8]* @p_str3, [1 x i8]* @p_str3)
  call void (...)* @_ssdm_op_SpecInterface(i32 %db_size_in, [8 x i8]* @p_str, i32 0, i32 0, [1 x i8]* @p_str3, i32 0, i32 0, [1 x i8]* @p_str3, [1 x i8]* @p_str3, [1 x i8]* @p_str3, i32 0, i32 0, i32 0, i32 0, [1 x i8]* @p_str3, [1 x i8]* @p_str3) nounwind, !dbg !492 ; [debug line = 54:1]
  call void (...)* @_ssdm_op_SpecInterface(i32 %db_size_in, [10 x i8]* @p_str4, i32 0, i32 0, [1 x i8]* @p_str3, i32 0, i32 0, [1 x i8]* @p_str3, [1 x i8]* @p_str3, [1 x i8]* @p_str3, i32 0, i32 0, i32 0, i32 0, [1 x i8]* @p_str3, [1 x i8]* @p_str3) nounwind, !dbg !493 ; [debug line = 55:1]
  call void (...)* @_ssdm_op_SpecInterface(i32 %operation, [7 x i8]* @p_str8, i32 0, i32 0, [1 x i8]* @p_str3, i32 0, i32 0, [1 x i8]* @p_str3, [1 x i8]* @p_str3, [1 x i8]* @p_str3, i32 0, i32 0, i32 0, i32 0, [1 x i8]* @p_str3, [1 x i8]* @p_str3) nounwind, !dbg !494 ; [debug line = 57:1]
  call void (...)* @_ssdm_op_SpecInterface(i32 0, [10 x i8]* @p_str4, i32 0, i32 0, [1 x i8]* @p_str3, i32 0, i32 0, [1 x i8]* @p_str3, [1 x i8]* @p_str3, [1 x i8]* @p_str3, i32 0, i32 0, i32 0, i32 0, [1 x i8]* @p_str3, [1 x i8]* @p_str3) nounwind, !dbg !495 ; [debug line = 58:1]
  call void (...)* @_ssdm_op_SpecInterface(i32* %contacts_size_out, [8 x i8]* @p_str, i32 1, i32 1, [1 x i8]* @p_str3, i32 0, i32 0, [1 x i8]* @p_str3, [1 x i8]* @p_str3, [1 x i8]* @p_str3, i32 0, i32 0, i32 0, i32 0, [1 x i8]* @p_str3, [1 x i8]* @p_str3) nounwind, !dbg !496 ; [debug line = 59:1]
  call void (...)* @_ssdm_op_SpecInterface(i32* %contacts_size_out, [10 x i8]* @p_str4, i32 0, i32 0, [1 x i8]* @p_str3, i32 0, i32 0, [1 x i8]* @p_str3, [1 x i8]* @p_str3, [1 x i8]* @p_str3, i32 0, i32 0, i32 0, i32 0, [1 x i8]* @p_str3, [1 x i8]* @p_str3) nounwind, !dbg !497 ; [debug line = 60:1]
  call void (...)* @_ssdm_op_SpecInterface(i32* %error_out, [8 x i8]* @p_str, i32 1, i32 1, [1 x i8]* @p_str3, i32 0, i32 0, [1 x i8]* @p_str3, [1 x i8]* @p_str3, [1 x i8]* @p_str3, i32 0, i32 0, i32 0, i32 0, [1 x i8]* @p_str3, [1 x i8]* @p_str3) nounwind, !dbg !498 ; [debug line = 61:1]
  call void (...)* @_ssdm_op_SpecInterface(i32* %error_out, [10 x i8]* @p_str4, i32 0, i32 0, [1 x i8]* @p_str3, i32 0, i32 0, [1 x i8]* @p_str3, [1 x i8]* @p_str3, [1 x i8]* @p_str3, i32 0, i32 0, i32 0, i32 0, [1 x i8]* @p_str3, [1 x i8]* @p_str3) nounwind, !dbg !499 ; [debug line = 62:1]
  call void (...)* @_ssdm_op_SpecInterface(i32 %operation, [10 x i8]* @p_str4, i32 1, i32 1, [1 x i8]* @p_str3, i32 0, i32 0, [1 x i8]* @p_str3, [1 x i8]* @p_str3, [1 x i8]* @p_str3, i32 0, i32 0, i32 0, i32 0, [1 x i8]* @p_str3, [1 x i8]* @p_str3) nounwind, !dbg !500 ; [debug line = 63:1]
  call void (...)* @_ssdm_op_SpecInterface(i512 %contact_in_V, [10 x i8]* @p_str4, i32 0, i32 0, [1 x i8]* @p_str3, i32 0, i32 0, [1 x i8]* @p_str3, [1 x i8]* @p_str3, [1 x i8]* @p_str3, i32 0, i32 0, i32 0, i32 0, [1 x i8]* @p_str3, [1 x i8]* @p_str3) nounwind, !dbg !501 ; [debug line = 64:1]
  %contacts_size_load = load i32* @contacts_size, align 4, !dbg !502 ; [#uses=6 type=i32] [debug line = 73:4]
  switch i32 %operation_read, label %10 [
    i32 0, label %1
    i32 1, label %5
    i32 2, label %9
  ], !dbg !503                                    ; [debug line = 69:2]

; <label>:1                                       ; preds = %0
  call void @_ssdm_op_Write.ap_none.i32P(i32* %error_out, i32 0), !dbg !504 ; [debug line = 72:4]
  %tmp = call i25 @_ssdm_op_PartSelect.i25.i32.i32.i32(i32 %contacts_size_load, i32 7, i32 31), !dbg !505 ; [#uses=1 type=i25] [debug line = 74:4]
  %icmp = icmp sgt i25 %tmp, 0, !dbg !505         ; [#uses=1 type=i1] [debug line = 74:4]
  br i1 %icmp, label %2, label %3, !dbg !505      ; [debug line = 74:4]

; <label>:2                                       ; preds = %1
  call void @_ssdm_op_Write.ap_none.i32P(i32* %error_out, i32 1), !dbg !506 ; [debug line = 75:5]
  br label %4, !dbg !508                          ; [debug line = 77:4]

; <label>:3                                       ; preds = %1
  %tmp_4 = sext i32 %contacts_size_load to i64, !dbg !469 ; [#uses=1 type=i64] [debug line = 78:5]
  call void @llvm.dbg.value(metadata !{i512 %contact_in_V}, i64 0, metadata !458), !dbg !468 ; [debug line = 279:87@78:5] [debug variable = op2.V]
  %contacts_V_addr = getelementptr [128 x i512]* @contacts_V, i64 0, i64 %tmp_4, !dbg !509 ; [#uses=1 type=i512*] [debug line = 280:10@78:5]
  store i512 %contact_in_V_read, i512* %contacts_V_addr, align 64, !dbg !509 ; [debug line = 280:10@78:5]
  %tmp_5 = add nsw i32 %contacts_size_load, 1, !dbg !511 ; [#uses=2 type=i32] [debug line = 79:5]
  store i32 %tmp_5, i32* @contacts_size, align 4, !dbg !511 ; [debug line = 79:5]
  br label %4

; <label>:4                                       ; preds = %3, %2
  %storemerge = phi i32 [ %tmp_5, %3 ], [ %contacts_size_load, %2 ] ; [#uses=1 type=i32]
  call void @_ssdm_op_Write.ap_none.i32P(i32* %contacts_size_out, i32 %storemerge), !dbg !512 ; [debug line = 76:5]
  br label %11, !dbg !513                         ; [debug line = 82:4]

; <label>:5                                       ; preds = %0
  call void @_ssdm_op_Write.ap_none.i32P(i32* %error_out, i32 0), !dbg !514 ; [debug line = 85:4]
  call void @_ssdm_op_Write.ap_none.i32P(i32* %contacts_size_out, i32 %contacts_size_load), !dbg !515 ; [debug line = 86:4]
  %tmp_126 = trunc i64 %offset_read to i25        ; [#uses=1 type=i25]
  br label %6, !dbg !516                          ; [debug line = 89:8]

; <label>:6                                       ; preds = %8, %5
  %database_index = phi i24 [ 0, %5 ], [ %database_index_1, %8 ] ; [#uses=4 type=i24]
  %tmp_127 = call i1 @_ssdm_op_BitSelect.i1.i24.i32(i24 %database_index, i32 23), !dbg !516 ; [#uses=1 type=i1] [debug line = 89:8]
  %database_index_1 = add i24 %database_index, 1, !dbg !518 ; [#uses=1 type=i24] [debug line = 89:54]
  br i1 %tmp_127, label %.loopexit, label %7, !dbg !516 ; [debug line = 89:8]

; <label>:7                                       ; preds = %6
  %database_index_cast1 = zext i24 %database_index to i32, !dbg !516 ; [#uses=1 type=i32] [debug line = 89:8]
  %empty = call i32 (...)* @_ssdm_op_SpecLoopTripCount(i64 1, i64 8388608, i64 4194304) ; [#uses=0 type=i32]
  %tmp_2 = call i32 (...)* @_ssdm_op_SpecRegionBegin([12 x i8]* @p_str9), !dbg !519 ; [#uses=1 type=i32] [debug line = 89:72]
  call void (...)* @_ssdm_op_SpecPipeline(i32 -1, i32 1, i32 1, i32 0, [1 x i8]* @p_str3) nounwind, !dbg !521 ; [debug line = 90:1]
  %tmp_7_cast = zext i24 %database_index to i25, !dbg !522 ; [#uses=1 type=i25] [debug line = 99:5]
  %tmp_8 = icmp ult i32 %database_index_cast1, %db_size_in_read, !dbg !522 ; [#uses=1 type=i1] [debug line = 99:5]
  br i1 %tmp_8, label %8, label %.loopexit, !dbg !522 ; [debug line = 99:5]

; <label>:8                                       ; preds = %7
  %sum = add i25 %tmp_7_cast, %tmp_126            ; [#uses=1 type=i25]
  %sum_cast = zext i25 %sum to i64                ; [#uses=1 type=i64]
  %db_mem_V_addr = getelementptr i512* %db_mem_V, i64 %sum_cast ; [#uses=2 type=i512*]
  %db_mem_V_load_req = call i1 @_ssdm_op_ReadReq.m_axi.i512P(i512* %db_mem_V_addr, i32 1), !dbg !523 ; [#uses=0 type=i1] [debug line = 100:52]
  %db_mem_V_addr_read = call i512 @_ssdm_op_Read.m_axi.i512P(i512* %db_mem_V_addr), !dbg !523 ; [#uses=1 type=i512] [debug line = 100:52]
  %tmp_s = call fastcc i1 @match_db_contact(i512 %db_mem_V_addr_read), !dbg !523 ; [#uses=1 type=i1] [debug line = 100:52]
  %tmp_1 = zext i1 %tmp_s to i8, !dbg !523        ; [#uses=1 type=i8] [debug line = 100:52]
  call void @_ssdm_op_Write.axis.volatile.i8P(i8* %results_out, i8 %tmp_1), !dbg !523 ; [debug line = 100:52]
  %empty_4 = call i32 (...)* @_ssdm_op_SpecRegionEnd([12 x i8]* @p_str9, i32 %tmp_2), !dbg !525 ; [#uses=0 type=i32] [debug line = 120:4]
  call void @llvm.dbg.value(metadata !{i24 %database_index_1}, i64 0, metadata !526), !dbg !518 ; [debug line = 89:54] [debug variable = database_index]
  br label %6, !dbg !518                          ; [debug line = 89:54]

.loopexit:                                        ; preds = %7, %6
  br label %11, !dbg !527                         ; [debug line = 121:4]

; <label>:9                                       ; preds = %0
  call void @_ssdm_op_Write.ap_none.i32P(i32* %error_out, i32 0), !dbg !528 ; [debug line = 124:4]
  store i32 0, i32* @contacts_size, align 4, !dbg !529 ; [debug line = 125:4]
  call void @_ssdm_op_Write.ap_none.i32P(i32* %contacts_size_out, i32 0), !dbg !530 ; [debug line = 126:4]
  br label %11, !dbg !531                         ; [debug line = 127:4]

; <label>:10                                      ; preds = %0
  call void @_ssdm_op_Write.ap_none.i32P(i32* %contacts_size_out, i32 %contacts_size_load), !dbg !532 ; [debug line = 130:4]
  call void @_ssdm_op_Write.ap_none.i32P(i32* %error_out, i32 3), !dbg !533 ; [debug line = 131:4]
  br label %11, !dbg !534                         ; [debug line = 132:4]

; <label>:11                                      ; preds = %10, %9, %.loopexit, %4
  ret void, !dbg !535                             ; [debug line = 134:1]
}

; [#uses=1]
define weak void @_ssdm_op_Write.axis.volatile.i8P(i8*, i8) {
entry:
  store i8 %1, i8* %0
  ret void
}

; [#uses=9]
define weak void @_ssdm_op_Write.ap_none.i32P(i32*, i32) {
entry:
  store i32 %1, i32* %0
  ret void
}

; [#uses=1]
define weak void @_ssdm_op_SpecTopModule(...) {
entry:
  ret void
}

; [#uses=1]
define weak i32 @_ssdm_op_SpecRegionEnd(...) {
entry:
  ret i32 0
}

; [#uses=1]
define weak i32 @_ssdm_op_SpecRegionBegin(...) {
entry:
  ret i32 0
}

; [#uses=1]
define weak void @_ssdm_op_SpecPipeline(...) nounwind {
entry:
  ret void
}

; [#uses=1]
define weak i32 @_ssdm_op_SpecLoopTripCount(...) {
entry:
  ret i32 0
}

; [#uses=14]
define weak void @_ssdm_op_SpecInterface(...) nounwind {
entry:
  ret void
}

; [#uses=8]
define weak void @_ssdm_op_SpecBitsMap(...) {
entry:
  ret void
}

; [#uses=1]
define weak i1 @_ssdm_op_ReadReq.m_axi.i512P(i512*, i32) {
entry:
  ret i1 true
}

; [#uses=1]
define weak i512 @_ssdm_op_Read.s_axilite.i512(i512) {
entry:
  ret i512 %0
}

; [#uses=1]
define weak i512 @_ssdm_op_Read.m_axi.i512P(i512*) {
entry:
  %empty = load i512* %0                          ; [#uses=1 type=i512]
  ret i512 %empty
}

; [#uses=1]
define weak i32 @_ssdm_op_Read.ap_vld.i32(i32) {
entry:
  ret i32 %0
}

; [#uses=1]
define weak i64 @_ssdm_op_Read.ap_none.i64(i64) {
entry:
  ret i64 %0
}

; [#uses=1]
define weak i32 @_ssdm_op_Read.ap_none.i32(i32) {
entry:
  ret i32 %0
}

; [#uses=1]
define weak i512 @_ssdm_op_Read.ap_auto.i512(i512) {
entry:
  ret i512 %0
}

; [#uses=0]
declare i25 @_ssdm_op_PartSelect.i25.i64.i32.i32(i64, i32, i32) nounwind readnone

; [#uses=1]
define weak i25 @_ssdm_op_PartSelect.i25.i32.i32.i32(i32, i32, i32) nounwind readnone {
entry:
  %empty = call i32 @llvm.part.select.i32(i32 %0, i32 %1, i32 %2) ; [#uses=1 type=i32]
  %empty_5 = trunc i32 %empty to i25              ; [#uses=1 type=i25]
  ret i25 %empty_5
}

; [#uses=1]
define weak i1 @_ssdm_op_BitSelect.i1.i24.i32(i24, i32) nounwind readnone {
entry:
  %empty = trunc i32 %1 to i24                    ; [#uses=1 type=i24]
  %empty_6 = shl i24 1, %empty                    ; [#uses=1 type=i24]
  %empty_7 = and i24 %0, %empty_6                 ; [#uses=1 type=i24]
  %empty_8 = icmp ne i24 %empty_7, 0              ; [#uses=1 type=i1]
  ret i1 %empty_8
}

; [#uses=1]
declare void @_GLOBAL__I_a() nounwind section ".text.startup"

!hls.encrypted.func = !{}
!opencl.kernels = !{!0, !7, !13, !16, !18, !18, !18, !18}
!llvm.map.gv = !{!24}

!0 = metadata !{null, metadata !1, metadata !2, metadata !3, metadata !4, metadata !5, metadata !6}
!1 = metadata !{metadata !"kernel_arg_addr_space", i32 0}
!2 = metadata !{metadata !"kernel_arg_access_qual", metadata !"none"}
!3 = metadata !{metadata !"kernel_arg_type", metadata !"hash"}
!4 = metadata !{metadata !"kernel_arg_type_qual", metadata !""}
!5 = metadata !{metadata !"kernel_arg_name", metadata !"db_item"}
!6 = metadata !{metadata !"reqd_work_group_size", i32 1, i32 1, i32 1}
!7 = metadata !{null, metadata !8, metadata !9, metadata !10, metadata !11, metadata !12, metadata !6}
!8 = metadata !{metadata !"kernel_arg_addr_space", i32 0, i32 0, i32 1, i32 0, i32 0, i32 1, i32 1, i32 1}
!9 = metadata !{metadata !"kernel_arg_access_qual", metadata !"none", metadata !"none", metadata !"none", metadata !"none", metadata !"none", metadata !"none", metadata !"none", metadata !"none"}
!10 = metadata !{metadata !"kernel_arg_type", metadata !"int", metadata !"hash", metadata !"hash*", metadata !"ulong long", metadata !"uint", metadata !"int*", metadata !"int*", metadata !"uchar*"}
!11 = metadata !{metadata !"kernel_arg_type_qual", metadata !"", metadata !"", metadata !"", metadata !"", metadata !"", metadata !"", metadata !"", metadata !""}
!12 = metadata !{metadata !"kernel_arg_name", metadata !"operation", metadata !"contact_in", metadata !"db_mem", metadata !"offset", metadata !"db_size_in", metadata !"error_out", metadata !"contacts_size_out", metadata !"results_out"}
!13 = metadata !{null, metadata !1, metadata !2, metadata !14, metadata !4, metadata !15, metadata !6}
!14 = metadata !{metadata !"kernel_arg_type", metadata !"const ap_uint<512> &"}
!15 = metadata !{metadata !"kernel_arg_name", metadata !"op2"}
!16 = metadata !{null, metadata !1, metadata !2, metadata !17, metadata !4, metadata !15, metadata !6}
!17 = metadata !{metadata !"kernel_arg_type", metadata !"const ap_int_base<512, false> &"}
!18 = metadata !{null, metadata !19, metadata !20, metadata !21, metadata !22, metadata !23, metadata !6}
!19 = metadata !{metadata !"kernel_arg_addr_space"}
!20 = metadata !{metadata !"kernel_arg_access_qual"}
!21 = metadata !{metadata !"kernel_arg_type"}
!22 = metadata !{metadata !"kernel_arg_type_qual"}
!23 = metadata !{metadata !"kernel_arg_name"}
!24 = metadata !{metadata !25, [1 x i32]* @llvm_global_ctors_0}
!25 = metadata !{metadata !26}
!26 = metadata !{i32 0, i32 31, metadata !27}
!27 = metadata !{metadata !28}
!28 = metadata !{metadata !"llvm.global_ctors.0", metadata !29, metadata !"", i32 0, i32 31}
!29 = metadata !{metadata !30}
!30 = metadata !{i32 0, i32 0, i32 1}
!31 = metadata !{i32 2925, i32 9, metadata !32, metadata !324}
!32 = metadata !{i32 786443, metadata !33, i32 2924, i32 107, metadata !34, i32 12} ; [ DW_TAG_lexical_block ]
!33 = metadata !{i32 786478, i32 0, null, metadata !"operator==<512, false>", metadata !"operator==<512, false>", metadata !"_ZNK11ap_int_baseILi512ELb0ELb0EEeqILi512ELb0EEEbRKS_IXT_EXT0_EXleT_Li64EEE", metadata !34, i32 2924, metadata !35, i1 false, i1 true, i32 0, i32 0, null, i32 256, i1 false, null, metadata !66, null, metadata !52, i32 2924} ; [ DW_TAG_subprogram ]
!34 = metadata !{i32 786473, metadata !"/Xilinx/Vivado_HLS/2017.1/common/technology/autopilot/ap_int_syn.h", metadata !"/home/aimee/root_of_trust/operational_os/hls", null} ; [ DW_TAG_file_type ]
!35 = metadata !{i32 786453, i32 0, metadata !"", i32 0, i32 0, i64 0, i64 0, i64 0, i32 0, null, metadata !36, i32 0, i32 0} ; [ DW_TAG_subroutine_type ]
!36 = metadata !{metadata !37, metadata !38, metadata !65}
!37 = metadata !{i32 786468, null, metadata !"bool", null, i32 0, i64 8, i64 8, i64 0, i32 0, i32 2} ; [ DW_TAG_base_type ]
!38 = metadata !{i32 786447, i32 0, metadata !"", i32 0, i32 0, i64 64, i64 64, i64 0, i32 64, metadata !39} ; [ DW_TAG_pointer_type ]
!39 = metadata !{i32 786470, null, metadata !"", null, i32 0, i64 0, i64 0, i64 0, i32 0, metadata !40} ; [ DW_TAG_const_type ]
!40 = metadata !{i32 786434, null, metadata !"ap_int_base<512, false, false>", metadata !34, i32 2343, i64 512, i64 512, i32 0, i32 0, null, metadata !41, i32 0, null, metadata !321} ; [ DW_TAG_class_type ]
!41 = metadata !{metadata !42, metadata !58, metadata !62, metadata !69, metadata !75, metadata !78, metadata !82, metadata !86, metadata !90, metadata !94, metadata !97, metadata !101, metadata !105, metadata !109, metadata !114, metadata !119, metadata !124, metadata !128, metadata !132, metadata !138, metadata !141, metadata !145, metadata !148, metadata !151, metadata !152, metadata !156, metadata !159, metadata !162, metadata !165, metadata !168, metadata !171, metadata !174, metadata !177, metadata !180, metadata !183, metadata !186, metadata !189, metadata !198, metadata !201, metadata !202, metadata !203, metadata !204, metadata !205, metadata !208, metadata !211, metadata !214, metadata !217, metadata !220, metadata !223, metadata !226, metadata !227, metadata !231, metadata !234, metadata !235, metadata !236, metadata !237, metadata !238, metadata !239, metadata !242, metadata !243, metadata !246, metadata !247, metadata !248, metadata !249, metadata !250, metadata !251, metadata !254, metadata !255, metadata !256, metadata !259, metadata !260, metadata !263, metadata !271, metadata !272, metadata !275, metadata !279, metadata !280, metadata !283, metadata !284, metadata !288, metadata !289, metadata !290, metadata !291, metadata !294, metadata !295, metadata !296, metadata !297, metadata !298, metadata !299, metadata !300, metadata !301, metadata !302, metadata !303, metadata !304, metadata !305, metadata !315, metadata !318}
!42 = metadata !{i32 786460, metadata !40, null, metadata !34, i32 0, i64 0, i64 0, i64 0, i32 0, metadata !43} ; [ DW_TAG_inheritance ]
!43 = metadata !{i32 786434, null, metadata !"ssdm_int<512 + 1024 * 0, false>", metadata !44, i32 526, i64 512, i64 512, i32 0, i32 0, null, metadata !45, i32 0, null, metadata !54} ; [ DW_TAG_class_type ]
!44 = metadata !{i32 786473, metadata !"/Xilinx/Vivado_HLS/2017.1/common/technology/autopilot/etc/autopilot_dt.def", metadata !"/home/aimee/root_of_trust/operational_os/hls", null} ; [ DW_TAG_file_type ]
!45 = metadata !{metadata !46, metadata !48}
!46 = metadata !{i32 786445, metadata !43, metadata !"V", metadata !44, i32 526, i64 512, i64 512, i64 0, i32 0, metadata !47} ; [ DW_TAG_member ]
!47 = metadata !{i32 786468, null, metadata !"uint512", null, i32 0, i64 512, i64 512, i64 0, i32 0, i32 7} ; [ DW_TAG_base_type ]
!48 = metadata !{i32 786478, i32 0, metadata !43, metadata !"ssdm_int", metadata !"ssdm_int", metadata !"", metadata !44, i32 526, metadata !49, i1 false, i1 false, i32 0, i32 0, null, i32 256, i1 false, null, null, i32 0, metadata !52, i32 526} ; [ DW_TAG_subprogram ]
!49 = metadata !{i32 786453, i32 0, metadata !"", i32 0, i32 0, i64 0, i64 0, i64 0, i32 0, null, metadata !50, i32 0, i32 0} ; [ DW_TAG_subroutine_type ]
!50 = metadata !{null, metadata !51}
!51 = metadata !{i32 786447, i32 0, metadata !"", i32 0, i32 0, i64 64, i64 64, i64 0, i32 64, metadata !43} ; [ DW_TAG_pointer_type ]
!52 = metadata !{metadata !53}
!53 = metadata !{i32 786468}                      ; [ DW_TAG_base_type ]
!54 = metadata !{metadata !55, metadata !57}
!55 = metadata !{i32 786480, null, metadata !"_AP_N", metadata !56, i64 512, null, i32 0, i32 0} ; [ DW_TAG_template_value_parameter ]
!56 = metadata !{i32 786468, null, metadata !"int", null, i32 0, i64 32, i64 32, i64 0, i32 0, i32 5} ; [ DW_TAG_base_type ]
!57 = metadata !{i32 786480, null, metadata !"_AP_S", metadata !37, i64 0, null, i32 0, i32 0} ; [ DW_TAG_template_value_parameter ]
!58 = metadata !{i32 786478, i32 0, metadata !40, metadata !"ap_int_base", metadata !"ap_int_base", metadata !"", metadata !34, i32 2381, metadata !59, i1 false, i1 false, i32 0, i32 0, null, i32 256, i1 false, null, null, i32 0, metadata !52, i32 2381} ; [ DW_TAG_subprogram ]
!59 = metadata !{i32 786453, i32 0, metadata !"", i32 0, i32 0, i64 0, i64 0, i64 0, i32 0, null, metadata !60, i32 0, i32 0} ; [ DW_TAG_subroutine_type ]
!60 = metadata !{null, metadata !61}
!61 = metadata !{i32 786447, i32 0, metadata !"", i32 0, i32 0, i64 64, i64 64, i64 0, i32 64, metadata !40} ; [ DW_TAG_pointer_type ]
!62 = metadata !{i32 786478, i32 0, metadata !40, metadata !"ap_int_base<512, false>", metadata !"ap_int_base<512, false>", metadata !"", metadata !34, i32 2393, metadata !63, i1 false, i1 false, i32 0, i32 0, null, i32 256, i1 false, null, metadata !66, i32 0, metadata !52, i32 2393} ; [ DW_TAG_subprogram ]
!63 = metadata !{i32 786453, i32 0, metadata !"", i32 0, i32 0, i64 0, i64 0, i64 0, i32 0, null, metadata !64, i32 0, i32 0} ; [ DW_TAG_subroutine_type ]
!64 = metadata !{null, metadata !61, metadata !65}
!65 = metadata !{i32 786448, null, null, null, i32 0, i64 0, i64 0, i64 0, i32 0, metadata !39} ; [ DW_TAG_reference_type ]
!66 = metadata !{metadata !67, metadata !68}
!67 = metadata !{i32 786480, null, metadata !"_AP_W2", metadata !56, i64 512, null, i32 0, i32 0} ; [ DW_TAG_template_value_parameter ]
!68 = metadata !{i32 786480, null, metadata !"_AP_S2", metadata !37, i64 0, null, i32 0, i32 0} ; [ DW_TAG_template_value_parameter ]
!69 = metadata !{i32 786478, i32 0, metadata !40, metadata !"ap_int_base<512, false>", metadata !"ap_int_base<512, false>", metadata !"", metadata !34, i32 2396, metadata !70, i1 false, i1 false, i32 0, i32 0, null, i32 256, i1 false, null, metadata !66, i32 0, metadata !52, i32 2396} ; [ DW_TAG_subprogram ]
!70 = metadata !{i32 786453, i32 0, metadata !"", i32 0, i32 0, i64 0, i64 0, i64 0, i32 0, null, metadata !71, i32 0, i32 0} ; [ DW_TAG_subroutine_type ]
!71 = metadata !{null, metadata !61, metadata !72}
!72 = metadata !{i32 786448, null, null, null, i32 0, i64 0, i64 0, i64 0, i32 0, metadata !73} ; [ DW_TAG_reference_type ]
!73 = metadata !{i32 786470, null, metadata !"", null, i32 0, i64 0, i64 0, i64 0, i32 0, metadata !74} ; [ DW_TAG_const_type ]
!74 = metadata !{i32 786485, null, metadata !"", null, i32 0, i64 0, i64 0, i64 0, i32 0, metadata !40} ; [ DW_TAG_volatile_type ]
!75 = metadata !{i32 786478, i32 0, metadata !40, metadata !"ap_int_base", metadata !"ap_int_base", metadata !"", metadata !34, i32 2403, metadata !76, i1 false, i1 false, i32 0, i32 0, null, i32 384, i1 false, null, null, i32 0, metadata !52, i32 2403} ; [ DW_TAG_subprogram ]
!76 = metadata !{i32 786453, i32 0, metadata !"", i32 0, i32 0, i64 0, i64 0, i64 0, i32 0, null, metadata !77, i32 0, i32 0} ; [ DW_TAG_subroutine_type ]
!77 = metadata !{null, metadata !61, metadata !37}
!78 = metadata !{i32 786478, i32 0, metadata !40, metadata !"ap_int_base", metadata !"ap_int_base", metadata !"", metadata !34, i32 2404, metadata !79, i1 false, i1 false, i32 0, i32 0, null, i32 384, i1 false, null, null, i32 0, metadata !52, i32 2404} ; [ DW_TAG_subprogram ]
!79 = metadata !{i32 786453, i32 0, metadata !"", i32 0, i32 0, i64 0, i64 0, i64 0, i32 0, null, metadata !80, i32 0, i32 0} ; [ DW_TAG_subroutine_type ]
!80 = metadata !{null, metadata !61, metadata !81}
!81 = metadata !{i32 786468, null, metadata !"signed char", null, i32 0, i64 8, i64 8, i64 0, i32 0, i32 6} ; [ DW_TAG_base_type ]
!82 = metadata !{i32 786478, i32 0, metadata !40, metadata !"ap_int_base", metadata !"ap_int_base", metadata !"", metadata !34, i32 2405, metadata !83, i1 false, i1 false, i32 0, i32 0, null, i32 384, i1 false, null, null, i32 0, metadata !52, i32 2405} ; [ DW_TAG_subprogram ]
!83 = metadata !{i32 786453, i32 0, metadata !"", i32 0, i32 0, i64 0, i64 0, i64 0, i32 0, null, metadata !84, i32 0, i32 0} ; [ DW_TAG_subroutine_type ]
!84 = metadata !{null, metadata !61, metadata !85}
!85 = metadata !{i32 786468, null, metadata !"unsigned char", null, i32 0, i64 8, i64 8, i64 0, i32 0, i32 8} ; [ DW_TAG_base_type ]
!86 = metadata !{i32 786478, i32 0, metadata !40, metadata !"ap_int_base", metadata !"ap_int_base", metadata !"", metadata !34, i32 2406, metadata !87, i1 false, i1 false, i32 0, i32 0, null, i32 384, i1 false, null, null, i32 0, metadata !52, i32 2406} ; [ DW_TAG_subprogram ]
!87 = metadata !{i32 786453, i32 0, metadata !"", i32 0, i32 0, i64 0, i64 0, i64 0, i32 0, null, metadata !88, i32 0, i32 0} ; [ DW_TAG_subroutine_type ]
!88 = metadata !{null, metadata !61, metadata !89}
!89 = metadata !{i32 786468, null, metadata !"short", null, i32 0, i64 16, i64 16, i64 0, i32 0, i32 5} ; [ DW_TAG_base_type ]
!90 = metadata !{i32 786478, i32 0, metadata !40, metadata !"ap_int_base", metadata !"ap_int_base", metadata !"", metadata !34, i32 2407, metadata !91, i1 false, i1 false, i32 0, i32 0, null, i32 384, i1 false, null, null, i32 0, metadata !52, i32 2407} ; [ DW_TAG_subprogram ]
!91 = metadata !{i32 786453, i32 0, metadata !"", i32 0, i32 0, i64 0, i64 0, i64 0, i32 0, null, metadata !92, i32 0, i32 0} ; [ DW_TAG_subroutine_type ]
!92 = metadata !{null, metadata !61, metadata !93}
!93 = metadata !{i32 786468, null, metadata !"unsigned short", null, i32 0, i64 16, i64 16, i64 0, i32 0, i32 7} ; [ DW_TAG_base_type ]
!94 = metadata !{i32 786478, i32 0, metadata !40, metadata !"ap_int_base", metadata !"ap_int_base", metadata !"", metadata !34, i32 2408, metadata !95, i1 false, i1 false, i32 0, i32 0, null, i32 384, i1 false, null, null, i32 0, metadata !52, i32 2408} ; [ DW_TAG_subprogram ]
!95 = metadata !{i32 786453, i32 0, metadata !"", i32 0, i32 0, i64 0, i64 0, i64 0, i32 0, null, metadata !96, i32 0, i32 0} ; [ DW_TAG_subroutine_type ]
!96 = metadata !{null, metadata !61, metadata !56}
!97 = metadata !{i32 786478, i32 0, metadata !40, metadata !"ap_int_base", metadata !"ap_int_base", metadata !"", metadata !34, i32 2409, metadata !98, i1 false, i1 false, i32 0, i32 0, null, i32 384, i1 false, null, null, i32 0, metadata !52, i32 2409} ; [ DW_TAG_subprogram ]
!98 = metadata !{i32 786453, i32 0, metadata !"", i32 0, i32 0, i64 0, i64 0, i64 0, i32 0, null, metadata !99, i32 0, i32 0} ; [ DW_TAG_subroutine_type ]
!99 = metadata !{null, metadata !61, metadata !100}
!100 = metadata !{i32 786468, null, metadata !"unsigned int", null, i32 0, i64 32, i64 32, i64 0, i32 0, i32 7} ; [ DW_TAG_base_type ]
!101 = metadata !{i32 786478, i32 0, metadata !40, metadata !"ap_int_base", metadata !"ap_int_base", metadata !"", metadata !34, i32 2410, metadata !102, i1 false, i1 false, i32 0, i32 0, null, i32 384, i1 false, null, null, i32 0, metadata !52, i32 2410} ; [ DW_TAG_subprogram ]
!102 = metadata !{i32 786453, i32 0, metadata !"", i32 0, i32 0, i64 0, i64 0, i64 0, i32 0, null, metadata !103, i32 0, i32 0} ; [ DW_TAG_subroutine_type ]
!103 = metadata !{null, metadata !61, metadata !104}
!104 = metadata !{i32 786468, null, metadata !"long int", null, i32 0, i64 64, i64 64, i64 0, i32 0, i32 5} ; [ DW_TAG_base_type ]
!105 = metadata !{i32 786478, i32 0, metadata !40, metadata !"ap_int_base", metadata !"ap_int_base", metadata !"", metadata !34, i32 2411, metadata !106, i1 false, i1 false, i32 0, i32 0, null, i32 384, i1 false, null, null, i32 0, metadata !52, i32 2411} ; [ DW_TAG_subprogram ]
!106 = metadata !{i32 786453, i32 0, metadata !"", i32 0, i32 0, i64 0, i64 0, i64 0, i32 0, null, metadata !107, i32 0, i32 0} ; [ DW_TAG_subroutine_type ]
!107 = metadata !{null, metadata !61, metadata !108}
!108 = metadata !{i32 786468, null, metadata !"long unsigned int", null, i32 0, i64 64, i64 64, i64 0, i32 0, i32 7} ; [ DW_TAG_base_type ]
!109 = metadata !{i32 786478, i32 0, metadata !40, metadata !"ap_int_base", metadata !"ap_int_base", metadata !"", metadata !34, i32 2412, metadata !110, i1 false, i1 false, i32 0, i32 0, null, i32 384, i1 false, null, null, i32 0, metadata !52, i32 2412} ; [ DW_TAG_subprogram ]
!110 = metadata !{i32 786453, i32 0, metadata !"", i32 0, i32 0, i64 0, i64 0, i64 0, i32 0, null, metadata !111, i32 0, i32 0} ; [ DW_TAG_subroutine_type ]
!111 = metadata !{null, metadata !61, metadata !112}
!112 = metadata !{i32 786454, null, metadata !"ap_slong", metadata !34, i32 112, i64 0, i64 0, i64 0, i32 0, metadata !113} ; [ DW_TAG_typedef ]
!113 = metadata !{i32 786468, null, metadata !"long long int", null, i32 0, i64 64, i64 64, i64 0, i32 0, i32 5} ; [ DW_TAG_base_type ]
!114 = metadata !{i32 786478, i32 0, metadata !40, metadata !"ap_int_base", metadata !"ap_int_base", metadata !"", metadata !34, i32 2413, metadata !115, i1 false, i1 false, i32 0, i32 0, null, i32 384, i1 false, null, null, i32 0, metadata !52, i32 2413} ; [ DW_TAG_subprogram ]
!115 = metadata !{i32 786453, i32 0, metadata !"", i32 0, i32 0, i64 0, i64 0, i64 0, i32 0, null, metadata !116, i32 0, i32 0} ; [ DW_TAG_subroutine_type ]
!116 = metadata !{null, metadata !61, metadata !117}
!117 = metadata !{i32 786454, null, metadata !"ap_ulong", metadata !34, i32 111, i64 0, i64 0, i64 0, i32 0, metadata !118} ; [ DW_TAG_typedef ]
!118 = metadata !{i32 786468, null, metadata !"long long unsigned int", null, i32 0, i64 64, i64 64, i64 0, i32 0, i32 7} ; [ DW_TAG_base_type ]
!119 = metadata !{i32 786478, i32 0, metadata !40, metadata !"ap_int_base", metadata !"ap_int_base", metadata !"", metadata !34, i32 2414, metadata !120, i1 false, i1 false, i32 0, i32 0, null, i32 384, i1 false, null, null, i32 0, metadata !52, i32 2414} ; [ DW_TAG_subprogram ]
!120 = metadata !{i32 786453, i32 0, metadata !"", i32 0, i32 0, i64 0, i64 0, i64 0, i32 0, null, metadata !121, i32 0, i32 0} ; [ DW_TAG_subroutine_type ]
!121 = metadata !{null, metadata !61, metadata !122}
!122 = metadata !{i32 786454, null, metadata !"half", metadata !34, i32 54, i64 0, i64 0, i64 0, i32 0, metadata !123} ; [ DW_TAG_typedef ]
!123 = metadata !{i32 786468, null, metadata !"half", null, i32 0, i64 16, i64 16, i64 0, i32 0, i32 4} ; [ DW_TAG_base_type ]
!124 = metadata !{i32 786478, i32 0, metadata !40, metadata !"ap_int_base", metadata !"ap_int_base", metadata !"", metadata !34, i32 2415, metadata !125, i1 false, i1 false, i32 0, i32 0, null, i32 384, i1 false, null, null, i32 0, metadata !52, i32 2415} ; [ DW_TAG_subprogram ]
!125 = metadata !{i32 786453, i32 0, metadata !"", i32 0, i32 0, i64 0, i64 0, i64 0, i32 0, null, metadata !126, i32 0, i32 0} ; [ DW_TAG_subroutine_type ]
!126 = metadata !{null, metadata !61, metadata !127}
!127 = metadata !{i32 786468, null, metadata !"float", null, i32 0, i64 32, i64 32, i64 0, i32 0, i32 4} ; [ DW_TAG_base_type ]
!128 = metadata !{i32 786478, i32 0, metadata !40, metadata !"ap_int_base", metadata !"ap_int_base", metadata !"", metadata !34, i32 2416, metadata !129, i1 false, i1 false, i32 0, i32 0, null, i32 384, i1 false, null, null, i32 0, metadata !52, i32 2416} ; [ DW_TAG_subprogram ]
!129 = metadata !{i32 786453, i32 0, metadata !"", i32 0, i32 0, i64 0, i64 0, i64 0, i32 0, null, metadata !130, i32 0, i32 0} ; [ DW_TAG_subroutine_type ]
!130 = metadata !{null, metadata !61, metadata !131}
!131 = metadata !{i32 786468, null, metadata !"double", null, i32 0, i64 64, i64 64, i64 0, i32 0, i32 4} ; [ DW_TAG_base_type ]
!132 = metadata !{i32 786478, i32 0, metadata !40, metadata !"ap_int_base", metadata !"ap_int_base", metadata !"", metadata !34, i32 2443, metadata !133, i1 false, i1 false, i32 0, i32 0, null, i32 256, i1 false, null, null, i32 0, metadata !52, i32 2443} ; [ DW_TAG_subprogram ]
!133 = metadata !{i32 786453, i32 0, metadata !"", i32 0, i32 0, i64 0, i64 0, i64 0, i32 0, null, metadata !134, i32 0, i32 0} ; [ DW_TAG_subroutine_type ]
!134 = metadata !{null, metadata !61, metadata !135}
!135 = metadata !{i32 786447, null, metadata !"", null, i32 0, i64 64, i64 64, i64 0, i32 0, metadata !136} ; [ DW_TAG_pointer_type ]
!136 = metadata !{i32 786470, null, metadata !"", null, i32 0, i64 0, i64 0, i64 0, i32 0, metadata !137} ; [ DW_TAG_const_type ]
!137 = metadata !{i32 786468, null, metadata !"char", null, i32 0, i64 8, i64 8, i64 0, i32 0, i32 6} ; [ DW_TAG_base_type ]
!138 = metadata !{i32 786478, i32 0, metadata !40, metadata !"ap_int_base", metadata !"ap_int_base", metadata !"", metadata !34, i32 2450, metadata !139, i1 false, i1 false, i32 0, i32 0, null, i32 256, i1 false, null, null, i32 0, metadata !52, i32 2450} ; [ DW_TAG_subprogram ]
!139 = metadata !{i32 786453, i32 0, metadata !"", i32 0, i32 0, i64 0, i64 0, i64 0, i32 0, null, metadata !140, i32 0, i32 0} ; [ DW_TAG_subroutine_type ]
!140 = metadata !{null, metadata !61, metadata !135, metadata !81}
!141 = metadata !{i32 786478, i32 0, metadata !40, metadata !"read", metadata !"read", metadata !"_ZNV11ap_int_baseILi512ELb0ELb0EE4readEv", metadata !34, i32 2471, metadata !142, i1 false, i1 false, i32 0, i32 0, null, i32 256, i1 false, null, null, i32 0, metadata !52, i32 2471} ; [ DW_TAG_subprogram ]
!142 = metadata !{i32 786453, i32 0, metadata !"", i32 0, i32 0, i64 0, i64 0, i64 0, i32 0, null, metadata !143, i32 0, i32 0} ; [ DW_TAG_subroutine_type ]
!143 = metadata !{metadata !40, metadata !144}
!144 = metadata !{i32 786447, i32 0, metadata !"", i32 0, i32 0, i64 64, i64 64, i64 0, i32 64, metadata !74} ; [ DW_TAG_pointer_type ]
!145 = metadata !{i32 786478, i32 0, metadata !40, metadata !"write", metadata !"write", metadata !"_ZNV11ap_int_baseILi512ELb0ELb0EE5writeERKS0_", metadata !34, i32 2477, metadata !146, i1 false, i1 false, i32 0, i32 0, null, i32 256, i1 false, null, null, i32 0, metadata !52, i32 2477} ; [ DW_TAG_subprogram ]
!146 = metadata !{i32 786453, i32 0, metadata !"", i32 0, i32 0, i64 0, i64 0, i64 0, i32 0, null, metadata !147, i32 0, i32 0} ; [ DW_TAG_subroutine_type ]
!147 = metadata !{null, metadata !144, metadata !65}
!148 = metadata !{i32 786478, i32 0, metadata !40, metadata !"operator=", metadata !"operator=", metadata !"_ZNV11ap_int_baseILi512ELb0ELb0EEaSERVKS0_", metadata !34, i32 2489, metadata !149, i1 false, i1 false, i32 0, i32 0, null, i32 256, i1 false, null, null, i32 0, metadata !52, i32 2489} ; [ DW_TAG_subprogram ]
!149 = metadata !{i32 786453, i32 0, metadata !"", i32 0, i32 0, i64 0, i64 0, i64 0, i32 0, null, metadata !150, i32 0, i32 0} ; [ DW_TAG_subroutine_type ]
!150 = metadata !{null, metadata !144, metadata !72}
!151 = metadata !{i32 786478, i32 0, metadata !40, metadata !"operator=", metadata !"operator=", metadata !"_ZNV11ap_int_baseILi512ELb0ELb0EEaSERKS0_", metadata !34, i32 2498, metadata !146, i1 false, i1 false, i32 0, i32 0, null, i32 256, i1 false, null, null, i32 0, metadata !52, i32 2498} ; [ DW_TAG_subprogram ]
!152 = metadata !{i32 786478, i32 0, metadata !40, metadata !"operator=", metadata !"operator=", metadata !"_ZN11ap_int_baseILi512ELb0ELb0EEaSERVKS0_", metadata !34, i32 2521, metadata !153, i1 false, i1 false, i32 0, i32 0, null, i32 256, i1 false, null, null, i32 0, metadata !52, i32 2521} ; [ DW_TAG_subprogram ]
!153 = metadata !{i32 786453, i32 0, metadata !"", i32 0, i32 0, i64 0, i64 0, i64 0, i32 0, null, metadata !154, i32 0, i32 0} ; [ DW_TAG_subroutine_type ]
!154 = metadata !{metadata !155, metadata !61, metadata !72}
!155 = metadata !{i32 786448, null, null, null, i32 0, i64 0, i64 0, i64 0, i32 0, metadata !40} ; [ DW_TAG_reference_type ]
!156 = metadata !{i32 786478, i32 0, metadata !40, metadata !"operator=", metadata !"operator=", metadata !"_ZN11ap_int_baseILi512ELb0ELb0EEaSERKS0_", metadata !34, i32 2526, metadata !157, i1 false, i1 false, i32 0, i32 0, null, i32 256, i1 false, null, null, i32 0, metadata !52, i32 2526} ; [ DW_TAG_subprogram ]
!157 = metadata !{i32 786453, i32 0, metadata !"", i32 0, i32 0, i64 0, i64 0, i64 0, i32 0, null, metadata !158, i32 0, i32 0} ; [ DW_TAG_subroutine_type ]
!158 = metadata !{metadata !155, metadata !61, metadata !65}
!159 = metadata !{i32 786478, i32 0, metadata !40, metadata !"operator=", metadata !"operator=", metadata !"_ZN11ap_int_baseILi512ELb0ELb0EEaSEPKc", metadata !34, i32 2530, metadata !160, i1 false, i1 false, i32 0, i32 0, null, i32 256, i1 false, null, null, i32 0, metadata !52, i32 2530} ; [ DW_TAG_subprogram ]
!160 = metadata !{i32 786453, i32 0, metadata !"", i32 0, i32 0, i64 0, i64 0, i64 0, i32 0, null, metadata !161, i32 0, i32 0} ; [ DW_TAG_subroutine_type ]
!161 = metadata !{metadata !155, metadata !61, metadata !135}
!162 = metadata !{i32 786478, i32 0, metadata !40, metadata !"set", metadata !"set", metadata !"_ZN11ap_int_baseILi512ELb0ELb0EE3setEPKca", metadata !34, i32 2538, metadata !163, i1 false, i1 false, i32 0, i32 0, null, i32 256, i1 false, null, null, i32 0, metadata !52, i32 2538} ; [ DW_TAG_subprogram ]
!163 = metadata !{i32 786453, i32 0, metadata !"", i32 0, i32 0, i64 0, i64 0, i64 0, i32 0, null, metadata !164, i32 0, i32 0} ; [ DW_TAG_subroutine_type ]
!164 = metadata !{metadata !155, metadata !61, metadata !135, metadata !81}
!165 = metadata !{i32 786478, i32 0, metadata !40, metadata !"operator=", metadata !"operator=", metadata !"_ZN11ap_int_baseILi512ELb0ELb0EEaSEc", metadata !34, i32 2552, metadata !166, i1 false, i1 false, i32 0, i32 0, null, i32 256, i1 false, null, null, i32 0, metadata !52, i32 2552} ; [ DW_TAG_subprogram ]
!166 = metadata !{i32 786453, i32 0, metadata !"", i32 0, i32 0, i64 0, i64 0, i64 0, i32 0, null, metadata !167, i32 0, i32 0} ; [ DW_TAG_subroutine_type ]
!167 = metadata !{metadata !155, metadata !61, metadata !137}
!168 = metadata !{i32 786478, i32 0, metadata !40, metadata !"operator=", metadata !"operator=", metadata !"_ZN11ap_int_baseILi512ELb0ELb0EEaSEh", metadata !34, i32 2553, metadata !169, i1 false, i1 false, i32 0, i32 0, null, i32 256, i1 false, null, null, i32 0, metadata !52, i32 2553} ; [ DW_TAG_subprogram ]
!169 = metadata !{i32 786453, i32 0, metadata !"", i32 0, i32 0, i64 0, i64 0, i64 0, i32 0, null, metadata !170, i32 0, i32 0} ; [ DW_TAG_subroutine_type ]
!170 = metadata !{metadata !155, metadata !61, metadata !85}
!171 = metadata !{i32 786478, i32 0, metadata !40, metadata !"operator=", metadata !"operator=", metadata !"_ZN11ap_int_baseILi512ELb0ELb0EEaSEs", metadata !34, i32 2554, metadata !172, i1 false, i1 false, i32 0, i32 0, null, i32 256, i1 false, null, null, i32 0, metadata !52, i32 2554} ; [ DW_TAG_subprogram ]
!172 = metadata !{i32 786453, i32 0, metadata !"", i32 0, i32 0, i64 0, i64 0, i64 0, i32 0, null, metadata !173, i32 0, i32 0} ; [ DW_TAG_subroutine_type ]
!173 = metadata !{metadata !155, metadata !61, metadata !89}
!174 = metadata !{i32 786478, i32 0, metadata !40, metadata !"operator=", metadata !"operator=", metadata !"_ZN11ap_int_baseILi512ELb0ELb0EEaSEt", metadata !34, i32 2555, metadata !175, i1 false, i1 false, i32 0, i32 0, null, i32 256, i1 false, null, null, i32 0, metadata !52, i32 2555} ; [ DW_TAG_subprogram ]
!175 = metadata !{i32 786453, i32 0, metadata !"", i32 0, i32 0, i64 0, i64 0, i64 0, i32 0, null, metadata !176, i32 0, i32 0} ; [ DW_TAG_subroutine_type ]
!176 = metadata !{metadata !155, metadata !61, metadata !93}
!177 = metadata !{i32 786478, i32 0, metadata !40, metadata !"operator=", metadata !"operator=", metadata !"_ZN11ap_int_baseILi512ELb0ELb0EEaSEi", metadata !34, i32 2556, metadata !178, i1 false, i1 false, i32 0, i32 0, null, i32 256, i1 false, null, null, i32 0, metadata !52, i32 2556} ; [ DW_TAG_subprogram ]
!178 = metadata !{i32 786453, i32 0, metadata !"", i32 0, i32 0, i64 0, i64 0, i64 0, i32 0, null, metadata !179, i32 0, i32 0} ; [ DW_TAG_subroutine_type ]
!179 = metadata !{metadata !155, metadata !61, metadata !56}
!180 = metadata !{i32 786478, i32 0, metadata !40, metadata !"operator=", metadata !"operator=", metadata !"_ZN11ap_int_baseILi512ELb0ELb0EEaSEj", metadata !34, i32 2557, metadata !181, i1 false, i1 false, i32 0, i32 0, null, i32 256, i1 false, null, null, i32 0, metadata !52, i32 2557} ; [ DW_TAG_subprogram ]
!181 = metadata !{i32 786453, i32 0, metadata !"", i32 0, i32 0, i64 0, i64 0, i64 0, i32 0, null, metadata !182, i32 0, i32 0} ; [ DW_TAG_subroutine_type ]
!182 = metadata !{metadata !155, metadata !61, metadata !100}
!183 = metadata !{i32 786478, i32 0, metadata !40, metadata !"operator=", metadata !"operator=", metadata !"_ZN11ap_int_baseILi512ELb0ELb0EEaSEx", metadata !34, i32 2558, metadata !184, i1 false, i1 false, i32 0, i32 0, null, i32 256, i1 false, null, null, i32 0, metadata !52, i32 2558} ; [ DW_TAG_subprogram ]
!184 = metadata !{i32 786453, i32 0, metadata !"", i32 0, i32 0, i64 0, i64 0, i64 0, i32 0, null, metadata !185, i32 0, i32 0} ; [ DW_TAG_subroutine_type ]
!185 = metadata !{metadata !155, metadata !61, metadata !112}
!186 = metadata !{i32 786478, i32 0, metadata !40, metadata !"operator=", metadata !"operator=", metadata !"_ZN11ap_int_baseILi512ELb0ELb0EEaSEy", metadata !34, i32 2559, metadata !187, i1 false, i1 false, i32 0, i32 0, null, i32 256, i1 false, null, null, i32 0, metadata !52, i32 2559} ; [ DW_TAG_subprogram ]
!187 = metadata !{i32 786453, i32 0, metadata !"", i32 0, i32 0, i64 0, i64 0, i64 0, i32 0, null, metadata !188, i32 0, i32 0} ; [ DW_TAG_subroutine_type ]
!188 = metadata !{metadata !155, metadata !61, metadata !117}
!189 = metadata !{i32 786478, i32 0, metadata !40, metadata !"operator unsigned long long", metadata !"operator unsigned long long", metadata !"_ZNK11ap_int_baseILi512ELb0ELb0EEcvyEv", metadata !34, i32 2598, metadata !190, i1 false, i1 false, i32 0, i32 0, null, i32 256, i1 false, null, null, i32 0, metadata !52, i32 2598} ; [ DW_TAG_subprogram ]
!190 = metadata !{i32 786453, i32 0, metadata !"", i32 0, i32 0, i64 0, i64 0, i64 0, i32 0, null, metadata !191, i32 0, i32 0} ; [ DW_TAG_subroutine_type ]
!191 = metadata !{metadata !192, metadata !38}
!192 = metadata !{i32 786454, metadata !40, metadata !"RetType", metadata !34, i32 2347, i64 0, i64 0, i64 0, i32 0, metadata !193} ; [ DW_TAG_typedef ]
!193 = metadata !{i32 786454, metadata !194, metadata !"Type", metadata !34, i32 1364, i64 0, i64 0, i64 0, i32 0, metadata !117} ; [ DW_TAG_typedef ]
!194 = metadata !{i32 786434, null, metadata !"retval<8, false>", metadata !34, i32 1363, i64 8, i64 8, i32 0, i32 0, null, metadata !195, i32 0, null, metadata !196} ; [ DW_TAG_class_type ]
!195 = metadata !{i32 0}
!196 = metadata !{metadata !197, metadata !57}
!197 = metadata !{i32 786480, null, metadata !"_AP_N", metadata !56, i64 8, null, i32 0, i32 0} ; [ DW_TAG_template_value_parameter ]
!198 = metadata !{i32 786478, i32 0, metadata !40, metadata !"to_bool", metadata !"to_bool", metadata !"_ZNK11ap_int_baseILi512ELb0ELb0EE7to_boolEv", metadata !34, i32 2604, metadata !199, i1 false, i1 false, i32 0, i32 0, null, i32 256, i1 false, null, null, i32 0, metadata !52, i32 2604} ; [ DW_TAG_subprogram ]
!199 = metadata !{i32 786453, i32 0, metadata !"", i32 0, i32 0, i64 0, i64 0, i64 0, i32 0, null, metadata !200, i32 0, i32 0} ; [ DW_TAG_subroutine_type ]
!200 = metadata !{metadata !37, metadata !38}
!201 = metadata !{i32 786478, i32 0, metadata !40, metadata !"to_uchar", metadata !"to_uchar", metadata !"_ZNK11ap_int_baseILi512ELb0ELb0EE8to_ucharEv", metadata !34, i32 2605, metadata !199, i1 false, i1 false, i32 0, i32 0, null, i32 256, i1 false, null, null, i32 0, metadata !52, i32 2605} ; [ DW_TAG_subprogram ]
!202 = metadata !{i32 786478, i32 0, metadata !40, metadata !"to_char", metadata !"to_char", metadata !"_ZNK11ap_int_baseILi512ELb0ELb0EE7to_charEv", metadata !34, i32 2606, metadata !199, i1 false, i1 false, i32 0, i32 0, null, i32 256, i1 false, null, null, i32 0, metadata !52, i32 2606} ; [ DW_TAG_subprogram ]
!203 = metadata !{i32 786478, i32 0, metadata !40, metadata !"to_ushort", metadata !"to_ushort", metadata !"_ZNK11ap_int_baseILi512ELb0ELb0EE9to_ushortEv", metadata !34, i32 2607, metadata !199, i1 false, i1 false, i32 0, i32 0, null, i32 256, i1 false, null, null, i32 0, metadata !52, i32 2607} ; [ DW_TAG_subprogram ]
!204 = metadata !{i32 786478, i32 0, metadata !40, metadata !"to_short", metadata !"to_short", metadata !"_ZNK11ap_int_baseILi512ELb0ELb0EE8to_shortEv", metadata !34, i32 2608, metadata !199, i1 false, i1 false, i32 0, i32 0, null, i32 256, i1 false, null, null, i32 0, metadata !52, i32 2608} ; [ DW_TAG_subprogram ]
!205 = metadata !{i32 786478, i32 0, metadata !40, metadata !"to_int", metadata !"to_int", metadata !"_ZNK11ap_int_baseILi512ELb0ELb0EE6to_intEv", metadata !34, i32 2609, metadata !206, i1 false, i1 false, i32 0, i32 0, null, i32 256, i1 false, null, null, i32 0, metadata !52, i32 2609} ; [ DW_TAG_subprogram ]
!206 = metadata !{i32 786453, i32 0, metadata !"", i32 0, i32 0, i64 0, i64 0, i64 0, i32 0, null, metadata !207, i32 0, i32 0} ; [ DW_TAG_subroutine_type ]
!207 = metadata !{metadata !56, metadata !38}
!208 = metadata !{i32 786478, i32 0, metadata !40, metadata !"to_uint", metadata !"to_uint", metadata !"_ZNK11ap_int_baseILi512ELb0ELb0EE7to_uintEv", metadata !34, i32 2610, metadata !209, i1 false, i1 false, i32 0, i32 0, null, i32 256, i1 false, null, null, i32 0, metadata !52, i32 2610} ; [ DW_TAG_subprogram ]
!209 = metadata !{i32 786453, i32 0, metadata !"", i32 0, i32 0, i64 0, i64 0, i64 0, i32 0, null, metadata !210, i32 0, i32 0} ; [ DW_TAG_subroutine_type ]
!210 = metadata !{metadata !100, metadata !38}
!211 = metadata !{i32 786478, i32 0, metadata !40, metadata !"to_long", metadata !"to_long", metadata !"_ZNK11ap_int_baseILi512ELb0ELb0EE7to_longEv", metadata !34, i32 2611, metadata !212, i1 false, i1 false, i32 0, i32 0, null, i32 256, i1 false, null, null, i32 0, metadata !52, i32 2611} ; [ DW_TAG_subprogram ]
!212 = metadata !{i32 786453, i32 0, metadata !"", i32 0, i32 0, i64 0, i64 0, i64 0, i32 0, null, metadata !213, i32 0, i32 0} ; [ DW_TAG_subroutine_type ]
!213 = metadata !{metadata !104, metadata !38}
!214 = metadata !{i32 786478, i32 0, metadata !40, metadata !"to_ulong", metadata !"to_ulong", metadata !"_ZNK11ap_int_baseILi512ELb0ELb0EE8to_ulongEv", metadata !34, i32 2612, metadata !215, i1 false, i1 false, i32 0, i32 0, null, i32 256, i1 false, null, null, i32 0, metadata !52, i32 2612} ; [ DW_TAG_subprogram ]
!215 = metadata !{i32 786453, i32 0, metadata !"", i32 0, i32 0, i64 0, i64 0, i64 0, i32 0, null, metadata !216, i32 0, i32 0} ; [ DW_TAG_subroutine_type ]
!216 = metadata !{metadata !108, metadata !38}
!217 = metadata !{i32 786478, i32 0, metadata !40, metadata !"to_int64", metadata !"to_int64", metadata !"_ZNK11ap_int_baseILi512ELb0ELb0EE8to_int64Ev", metadata !34, i32 2613, metadata !218, i1 false, i1 false, i32 0, i32 0, null, i32 256, i1 false, null, null, i32 0, metadata !52, i32 2613} ; [ DW_TAG_subprogram ]
!218 = metadata !{i32 786453, i32 0, metadata !"", i32 0, i32 0, i64 0, i64 0, i64 0, i32 0, null, metadata !219, i32 0, i32 0} ; [ DW_TAG_subroutine_type ]
!219 = metadata !{metadata !112, metadata !38}
!220 = metadata !{i32 786478, i32 0, metadata !40, metadata !"to_uint64", metadata !"to_uint64", metadata !"_ZNK11ap_int_baseILi512ELb0ELb0EE9to_uint64Ev", metadata !34, i32 2614, metadata !221, i1 false, i1 false, i32 0, i32 0, null, i32 256, i1 false, null, null, i32 0, metadata !52, i32 2614} ; [ DW_TAG_subprogram ]
!221 = metadata !{i32 786453, i32 0, metadata !"", i32 0, i32 0, i64 0, i64 0, i64 0, i32 0, null, metadata !222, i32 0, i32 0} ; [ DW_TAG_subroutine_type ]
!222 = metadata !{metadata !117, metadata !38}
!223 = metadata !{i32 786478, i32 0, metadata !40, metadata !"to_double", metadata !"to_double", metadata !"_ZNK11ap_int_baseILi512ELb0ELb0EE9to_doubleEv", metadata !34, i32 2615, metadata !224, i1 false, i1 false, i32 0, i32 0, null, i32 256, i1 false, null, null, i32 0, metadata !52, i32 2615} ; [ DW_TAG_subprogram ]
!224 = metadata !{i32 786453, i32 0, metadata !"", i32 0, i32 0, i64 0, i64 0, i64 0, i32 0, null, metadata !225, i32 0, i32 0} ; [ DW_TAG_subroutine_type ]
!225 = metadata !{metadata !131, metadata !38}
!226 = metadata !{i32 786478, i32 0, metadata !40, metadata !"length", metadata !"length", metadata !"_ZNK11ap_int_baseILi512ELb0ELb0EE6lengthEv", metadata !34, i32 2628, metadata !206, i1 false, i1 false, i32 0, i32 0, null, i32 256, i1 false, null, null, i32 0, metadata !52, i32 2628} ; [ DW_TAG_subprogram ]
!227 = metadata !{i32 786478, i32 0, metadata !40, metadata !"length", metadata !"length", metadata !"_ZNVK11ap_int_baseILi512ELb0ELb0EE6lengthEv", metadata !34, i32 2629, metadata !228, i1 false, i1 false, i32 0, i32 0, null, i32 256, i1 false, null, null, i32 0, metadata !52, i32 2629} ; [ DW_TAG_subprogram ]
!228 = metadata !{i32 786453, i32 0, metadata !"", i32 0, i32 0, i64 0, i64 0, i64 0, i32 0, null, metadata !229, i32 0, i32 0} ; [ DW_TAG_subroutine_type ]
!229 = metadata !{metadata !56, metadata !230}
!230 = metadata !{i32 786447, i32 0, metadata !"", i32 0, i32 0, i64 64, i64 64, i64 0, i32 64, metadata !73} ; [ DW_TAG_pointer_type ]
!231 = metadata !{i32 786478, i32 0, metadata !40, metadata !"reverse", metadata !"reverse", metadata !"_ZN11ap_int_baseILi512ELb0ELb0EE7reverseEv", metadata !34, i32 2634, metadata !232, i1 false, i1 false, i32 0, i32 0, null, i32 256, i1 false, null, null, i32 0, metadata !52, i32 2634} ; [ DW_TAG_subprogram ]
!232 = metadata !{i32 786453, i32 0, metadata !"", i32 0, i32 0, i64 0, i64 0, i64 0, i32 0, null, metadata !233, i32 0, i32 0} ; [ DW_TAG_subroutine_type ]
!233 = metadata !{metadata !155, metadata !61}
!234 = metadata !{i32 786478, i32 0, metadata !40, metadata !"iszero", metadata !"iszero", metadata !"_ZNK11ap_int_baseILi512ELb0ELb0EE6iszeroEv", metadata !34, i32 2640, metadata !199, i1 false, i1 false, i32 0, i32 0, null, i32 256, i1 false, null, null, i32 0, metadata !52, i32 2640} ; [ DW_TAG_subprogram ]
!235 = metadata !{i32 786478, i32 0, metadata !40, metadata !"is_zero", metadata !"is_zero", metadata !"_ZNK11ap_int_baseILi512ELb0ELb0EE7is_zeroEv", metadata !34, i32 2645, metadata !199, i1 false, i1 false, i32 0, i32 0, null, i32 256, i1 false, null, null, i32 0, metadata !52, i32 2645} ; [ DW_TAG_subprogram ]
!236 = metadata !{i32 786478, i32 0, metadata !40, metadata !"sign", metadata !"sign", metadata !"_ZNK11ap_int_baseILi512ELb0ELb0EE4signEv", metadata !34, i32 2650, metadata !199, i1 false, i1 false, i32 0, i32 0, null, i32 256, i1 false, null, null, i32 0, metadata !52, i32 2650} ; [ DW_TAG_subprogram ]
!237 = metadata !{i32 786478, i32 0, metadata !40, metadata !"clear", metadata !"clear", metadata !"_ZN11ap_int_baseILi512ELb0ELb0EE5clearEi", metadata !34, i32 2658, metadata !95, i1 false, i1 false, i32 0, i32 0, null, i32 256, i1 false, null, null, i32 0, metadata !52, i32 2658} ; [ DW_TAG_subprogram ]
!238 = metadata !{i32 786478, i32 0, metadata !40, metadata !"invert", metadata !"invert", metadata !"_ZN11ap_int_baseILi512ELb0ELb0EE6invertEi", metadata !34, i32 2664, metadata !95, i1 false, i1 false, i32 0, i32 0, null, i32 256, i1 false, null, null, i32 0, metadata !52, i32 2664} ; [ DW_TAG_subprogram ]
!239 = metadata !{i32 786478, i32 0, metadata !40, metadata !"test", metadata !"test", metadata !"_ZNK11ap_int_baseILi512ELb0ELb0EE4testEi", metadata !34, i32 2672, metadata !240, i1 false, i1 false, i32 0, i32 0, null, i32 256, i1 false, null, null, i32 0, metadata !52, i32 2672} ; [ DW_TAG_subprogram ]
!240 = metadata !{i32 786453, i32 0, metadata !"", i32 0, i32 0, i64 0, i64 0, i64 0, i32 0, null, metadata !241, i32 0, i32 0} ; [ DW_TAG_subroutine_type ]
!241 = metadata !{metadata !37, metadata !38, metadata !56}
!242 = metadata !{i32 786478, i32 0, metadata !40, metadata !"set", metadata !"set", metadata !"_ZN11ap_int_baseILi512ELb0ELb0EE3setEi", metadata !34, i32 2678, metadata !95, i1 false, i1 false, i32 0, i32 0, null, i32 256, i1 false, null, null, i32 0, metadata !52, i32 2678} ; [ DW_TAG_subprogram ]
!243 = metadata !{i32 786478, i32 0, metadata !40, metadata !"set", metadata !"set", metadata !"_ZN11ap_int_baseILi512ELb0ELb0EE3setEib", metadata !34, i32 2684, metadata !244, i1 false, i1 false, i32 0, i32 0, null, i32 256, i1 false, null, null, i32 0, metadata !52, i32 2684} ; [ DW_TAG_subprogram ]
!244 = metadata !{i32 786453, i32 0, metadata !"", i32 0, i32 0, i64 0, i64 0, i64 0, i32 0, null, metadata !245, i32 0, i32 0} ; [ DW_TAG_subroutine_type ]
!245 = metadata !{null, metadata !61, metadata !56, metadata !37}
!246 = metadata !{i32 786478, i32 0, metadata !40, metadata !"lrotate", metadata !"lrotate", metadata !"_ZN11ap_int_baseILi512ELb0ELb0EE7lrotateEi", metadata !34, i32 2691, metadata !95, i1 false, i1 false, i32 0, i32 0, null, i32 256, i1 false, null, null, i32 0, metadata !52, i32 2691} ; [ DW_TAG_subprogram ]
!247 = metadata !{i32 786478, i32 0, metadata !40, metadata !"rrotate", metadata !"rrotate", metadata !"_ZN11ap_int_baseILi512ELb0ELb0EE7rrotateEi", metadata !34, i32 2700, metadata !95, i1 false, i1 false, i32 0, i32 0, null, i32 256, i1 false, null, null, i32 0, metadata !52, i32 2700} ; [ DW_TAG_subprogram ]
!248 = metadata !{i32 786478, i32 0, metadata !40, metadata !"set_bit", metadata !"set_bit", metadata !"_ZN11ap_int_baseILi512ELb0ELb0EE7set_bitEib", metadata !34, i32 2708, metadata !244, i1 false, i1 false, i32 0, i32 0, null, i32 256, i1 false, null, null, i32 0, metadata !52, i32 2708} ; [ DW_TAG_subprogram ]
!249 = metadata !{i32 786478, i32 0, metadata !40, metadata !"get_bit", metadata !"get_bit", metadata !"_ZNK11ap_int_baseILi512ELb0ELb0EE7get_bitEi", metadata !34, i32 2713, metadata !240, i1 false, i1 false, i32 0, i32 0, null, i32 256, i1 false, null, null, i32 0, metadata !52, i32 2713} ; [ DW_TAG_subprogram ]
!250 = metadata !{i32 786478, i32 0, metadata !40, metadata !"b_not", metadata !"b_not", metadata !"_ZN11ap_int_baseILi512ELb0ELb0EE5b_notEv", metadata !34, i32 2718, metadata !59, i1 false, i1 false, i32 0, i32 0, null, i32 256, i1 false, null, null, i32 0, metadata !52, i32 2718} ; [ DW_TAG_subprogram ]
!251 = metadata !{i32 786478, i32 0, metadata !40, metadata !"countLeadingZeros", metadata !"countLeadingZeros", metadata !"_ZN11ap_int_baseILi512ELb0ELb0EE17countLeadingZerosEv", metadata !34, i32 2725, metadata !252, i1 false, i1 false, i32 0, i32 0, null, i32 256, i1 false, null, null, i32 0, metadata !52, i32 2725} ; [ DW_TAG_subprogram ]
!252 = metadata !{i32 786453, i32 0, metadata !"", i32 0, i32 0, i64 0, i64 0, i64 0, i32 0, null, metadata !253, i32 0, i32 0} ; [ DW_TAG_subroutine_type ]
!253 = metadata !{metadata !56, metadata !61}
!254 = metadata !{i32 786478, i32 0, metadata !40, metadata !"operator++", metadata !"operator++", metadata !"_ZN11ap_int_baseILi512ELb0ELb0EEppEv", metadata !34, i32 2782, metadata !232, i1 false, i1 false, i32 0, i32 0, null, i32 256, i1 false, null, null, i32 0, metadata !52, i32 2782} ; [ DW_TAG_subprogram ]
!255 = metadata !{i32 786478, i32 0, metadata !40, metadata !"operator--", metadata !"operator--", metadata !"_ZN11ap_int_baseILi512ELb0ELb0EEmmEv", metadata !34, i32 2786, metadata !232, i1 false, i1 false, i32 0, i32 0, null, i32 256, i1 false, null, null, i32 0, metadata !52, i32 2786} ; [ DW_TAG_subprogram ]
!256 = metadata !{i32 786478, i32 0, metadata !40, metadata !"operator++", metadata !"operator++", metadata !"_ZN11ap_int_baseILi512ELb0ELb0EEppEi", metadata !34, i32 2794, metadata !257, i1 false, i1 false, i32 0, i32 0, null, i32 256, i1 false, null, null, i32 0, metadata !52, i32 2794} ; [ DW_TAG_subprogram ]
!257 = metadata !{i32 786453, i32 0, metadata !"", i32 0, i32 0, i64 0, i64 0, i64 0, i32 0, null, metadata !258, i32 0, i32 0} ; [ DW_TAG_subroutine_type ]
!258 = metadata !{metadata !39, metadata !61, metadata !56}
!259 = metadata !{i32 786478, i32 0, metadata !40, metadata !"operator--", metadata !"operator--", metadata !"_ZN11ap_int_baseILi512ELb0ELb0EEmmEi", metadata !34, i32 2799, metadata !257, i1 false, i1 false, i32 0, i32 0, null, i32 256, i1 false, null, null, i32 0, metadata !52, i32 2799} ; [ DW_TAG_subprogram ]
!260 = metadata !{i32 786478, i32 0, metadata !40, metadata !"operator+", metadata !"operator+", metadata !"_ZNK11ap_int_baseILi512ELb0ELb0EEpsEv", metadata !34, i32 2808, metadata !261, i1 false, i1 false, i32 0, i32 0, null, i32 256, i1 false, null, null, i32 0, metadata !52, i32 2808} ; [ DW_TAG_subprogram ]
!261 = metadata !{i32 786453, i32 0, metadata !"", i32 0, i32 0, i64 0, i64 0, i64 0, i32 0, null, metadata !262, i32 0, i32 0} ; [ DW_TAG_subroutine_type ]
!262 = metadata !{metadata !40, metadata !38}
!263 = metadata !{i32 786478, i32 0, metadata !40, metadata !"operator-", metadata !"operator-", metadata !"_ZNK11ap_int_baseILi512ELb0ELb0EEngEv", metadata !34, i32 2812, metadata !264, i1 false, i1 false, i32 0, i32 0, null, i32 256, i1 false, null, null, i32 0, metadata !52, i32 2812} ; [ DW_TAG_subprogram ]
!264 = metadata !{i32 786453, i32 0, metadata !"", i32 0, i32 0, i64 0, i64 0, i64 0, i32 0, null, metadata !265, i32 0, i32 0} ; [ DW_TAG_subroutine_type ]
!265 = metadata !{metadata !266, metadata !38}
!266 = metadata !{i32 786454, metadata !267, metadata !"minus", metadata !34, i32 2370, i64 0, i64 0, i64 0, i32 0, metadata !270} ; [ DW_TAG_typedef ]
!267 = metadata !{i32 786434, metadata !40, metadata !"RType<1, false>", metadata !34, i32 2352, i64 8, i64 8, i32 0, i32 0, null, metadata !195, i32 0, null, metadata !268} ; [ DW_TAG_class_type ]
!268 = metadata !{metadata !269, metadata !68}
!269 = metadata !{i32 786480, null, metadata !"_AP_W2", metadata !56, i64 1, null, i32 0, i32 0} ; [ DW_TAG_template_value_parameter ]
!270 = metadata !{i32 786434, null, metadata !"ap_int_base<513, true, false>", metadata !34, i32 651, i32 0, i32 0, i32 0, i32 4, null, null, i32 0} ; [ DW_TAG_class_type ]
!271 = metadata !{i32 786478, i32 0, metadata !40, metadata !"operator!", metadata !"operator!", metadata !"_ZNK11ap_int_baseILi512ELb0ELb0EEntEv", metadata !34, i32 2819, metadata !199, i1 false, i1 false, i32 0, i32 0, null, i32 256, i1 false, null, null, i32 0, metadata !52, i32 2819} ; [ DW_TAG_subprogram ]
!272 = metadata !{i32 786478, i32 0, metadata !40, metadata !"operator~", metadata !"operator~", metadata !"_ZNK11ap_int_baseILi512ELb0ELb0EEcoEv", metadata !34, i32 2826, metadata !273, i1 false, i1 false, i32 0, i32 0, null, i32 256, i1 false, null, null, i32 0, metadata !52, i32 2826} ; [ DW_TAG_subprogram ]
!273 = metadata !{i32 786453, i32 0, metadata !"", i32 0, i32 0, i64 0, i64 0, i64 0, i32 0, null, metadata !274, i32 0, i32 0} ; [ DW_TAG_subroutine_type ]
!274 = metadata !{metadata !270, metadata !38}
!275 = metadata !{i32 786478, i32 0, metadata !40, metadata !"range", metadata !"range", metadata !"_ZN11ap_int_baseILi512ELb0ELb0EE5rangeEii", metadata !34, i32 2953, metadata !276, i1 false, i1 false, i32 0, i32 0, null, i32 256, i1 false, null, null, i32 0, metadata !52, i32 2953} ; [ DW_TAG_subprogram ]
!276 = metadata !{i32 786453, i32 0, metadata !"", i32 0, i32 0, i64 0, i64 0, i64 0, i32 0, null, metadata !277, i32 0, i32 0} ; [ DW_TAG_subroutine_type ]
!277 = metadata !{metadata !278, metadata !61, metadata !56, metadata !56}
!278 = metadata !{i32 786434, null, metadata !"ap_range_ref<512, false>", metadata !34, i32 924, i32 0, i32 0, i32 0, i32 4, null, null, i32 0} ; [ DW_TAG_class_type ]
!279 = metadata !{i32 786478, i32 0, metadata !40, metadata !"operator()", metadata !"operator()", metadata !"_ZN11ap_int_baseILi512ELb0ELb0EEclEii", metadata !34, i32 2959, metadata !276, i1 false, i1 false, i32 0, i32 0, null, i32 256, i1 false, null, null, i32 0, metadata !52, i32 2959} ; [ DW_TAG_subprogram ]
!280 = metadata !{i32 786478, i32 0, metadata !40, metadata !"range", metadata !"range", metadata !"_ZNK11ap_int_baseILi512ELb0ELb0EE5rangeEii", metadata !34, i32 2965, metadata !281, i1 false, i1 false, i32 0, i32 0, null, i32 256, i1 false, null, null, i32 0, metadata !52, i32 2965} ; [ DW_TAG_subprogram ]
!281 = metadata !{i32 786453, i32 0, metadata !"", i32 0, i32 0, i64 0, i64 0, i64 0, i32 0, null, metadata !282, i32 0, i32 0} ; [ DW_TAG_subroutine_type ]
!282 = metadata !{metadata !278, metadata !38, metadata !56, metadata !56}
!283 = metadata !{i32 786478, i32 0, metadata !40, metadata !"operator()", metadata !"operator()", metadata !"_ZNK11ap_int_baseILi512ELb0ELb0EEclEii", metadata !34, i32 2971, metadata !281, i1 false, i1 false, i32 0, i32 0, null, i32 256, i1 false, null, null, i32 0, metadata !52, i32 2971} ; [ DW_TAG_subprogram ]
!284 = metadata !{i32 786478, i32 0, metadata !40, metadata !"operator[]", metadata !"operator[]", metadata !"_ZN11ap_int_baseILi512ELb0ELb0EEixEi", metadata !34, i32 2991, metadata !285, i1 false, i1 false, i32 0, i32 0, null, i32 256, i1 false, null, null, i32 0, metadata !52, i32 2991} ; [ DW_TAG_subprogram ]
!285 = metadata !{i32 786453, i32 0, metadata !"", i32 0, i32 0, i64 0, i64 0, i64 0, i32 0, null, metadata !286, i32 0, i32 0} ; [ DW_TAG_subroutine_type ]
!286 = metadata !{metadata !287, metadata !61, metadata !56}
!287 = metadata !{i32 786434, null, metadata !"ap_bit_ref<512, false>", metadata !34, i32 1194, i32 0, i32 0, i32 0, i32 4, null, null, i32 0} ; [ DW_TAG_class_type ]
!288 = metadata !{i32 786478, i32 0, metadata !40, metadata !"operator[]", metadata !"operator[]", metadata !"_ZNK11ap_int_baseILi512ELb0ELb0EEixEi", metadata !34, i32 3005, metadata !240, i1 false, i1 false, i32 0, i32 0, null, i32 256, i1 false, null, null, i32 0, metadata !52, i32 3005} ; [ DW_TAG_subprogram ]
!289 = metadata !{i32 786478, i32 0, metadata !40, metadata !"bit", metadata !"bit", metadata !"_ZN11ap_int_baseILi512ELb0ELb0EE3bitEi", metadata !34, i32 3019, metadata !285, i1 false, i1 false, i32 0, i32 0, null, i32 256, i1 false, null, null, i32 0, metadata !52, i32 3019} ; [ DW_TAG_subprogram ]
!290 = metadata !{i32 786478, i32 0, metadata !40, metadata !"bit", metadata !"bit", metadata !"_ZNK11ap_int_baseILi512ELb0ELb0EE3bitEi", metadata !34, i32 3033, metadata !240, i1 false, i1 false, i32 0, i32 0, null, i32 256, i1 false, null, null, i32 0, metadata !52, i32 3033} ; [ DW_TAG_subprogram ]
!291 = metadata !{i32 786478, i32 0, metadata !40, metadata !"and_reduce", metadata !"and_reduce", metadata !"_ZN11ap_int_baseILi512ELb0ELb0EE10and_reduceEv", metadata !34, i32 3213, metadata !292, i1 false, i1 false, i32 0, i32 0, null, i32 256, i1 false, null, null, i32 0, metadata !52, i32 3213} ; [ DW_TAG_subprogram ]
!292 = metadata !{i32 786453, i32 0, metadata !"", i32 0, i32 0, i64 0, i64 0, i64 0, i32 0, null, metadata !293, i32 0, i32 0} ; [ DW_TAG_subroutine_type ]
!293 = metadata !{metadata !37, metadata !61}
!294 = metadata !{i32 786478, i32 0, metadata !40, metadata !"nand_reduce", metadata !"nand_reduce", metadata !"_ZN11ap_int_baseILi512ELb0ELb0EE11nand_reduceEv", metadata !34, i32 3216, metadata !292, i1 false, i1 false, i32 0, i32 0, null, i32 256, i1 false, null, null, i32 0, metadata !52, i32 3216} ; [ DW_TAG_subprogram ]
!295 = metadata !{i32 786478, i32 0, metadata !40, metadata !"or_reduce", metadata !"or_reduce", metadata !"_ZN11ap_int_baseILi512ELb0ELb0EE9or_reduceEv", metadata !34, i32 3219, metadata !292, i1 false, i1 false, i32 0, i32 0, null, i32 256, i1 false, null, null, i32 0, metadata !52, i32 3219} ; [ DW_TAG_subprogram ]
!296 = metadata !{i32 786478, i32 0, metadata !40, metadata !"nor_reduce", metadata !"nor_reduce", metadata !"_ZN11ap_int_baseILi512ELb0ELb0EE10nor_reduceEv", metadata !34, i32 3222, metadata !292, i1 false, i1 false, i32 0, i32 0, null, i32 256, i1 false, null, null, i32 0, metadata !52, i32 3222} ; [ DW_TAG_subprogram ]
!297 = metadata !{i32 786478, i32 0, metadata !40, metadata !"xor_reduce", metadata !"xor_reduce", metadata !"_ZN11ap_int_baseILi512ELb0ELb0EE10xor_reduceEv", metadata !34, i32 3225, metadata !292, i1 false, i1 false, i32 0, i32 0, null, i32 256, i1 false, null, null, i32 0, metadata !52, i32 3225} ; [ DW_TAG_subprogram ]
!298 = metadata !{i32 786478, i32 0, metadata !40, metadata !"xnor_reduce", metadata !"xnor_reduce", metadata !"_ZN11ap_int_baseILi512ELb0ELb0EE11xnor_reduceEv", metadata !34, i32 3228, metadata !292, i1 false, i1 false, i32 0, i32 0, null, i32 256, i1 false, null, null, i32 0, metadata !52, i32 3228} ; [ DW_TAG_subprogram ]
!299 = metadata !{i32 786478, i32 0, metadata !40, metadata !"and_reduce", metadata !"and_reduce", metadata !"_ZNK11ap_int_baseILi512ELb0ELb0EE10and_reduceEv", metadata !34, i32 3232, metadata !199, i1 false, i1 false, i32 0, i32 0, null, i32 256, i1 false, null, null, i32 0, metadata !52, i32 3232} ; [ DW_TAG_subprogram ]
!300 = metadata !{i32 786478, i32 0, metadata !40, metadata !"nand_reduce", metadata !"nand_reduce", metadata !"_ZNK11ap_int_baseILi512ELb0ELb0EE11nand_reduceEv", metadata !34, i32 3235, metadata !199, i1 false, i1 false, i32 0, i32 0, null, i32 256, i1 false, null, null, i32 0, metadata !52, i32 3235} ; [ DW_TAG_subprogram ]
!301 = metadata !{i32 786478, i32 0, metadata !40, metadata !"or_reduce", metadata !"or_reduce", metadata !"_ZNK11ap_int_baseILi512ELb0ELb0EE9or_reduceEv", metadata !34, i32 3238, metadata !199, i1 false, i1 false, i32 0, i32 0, null, i32 256, i1 false, null, null, i32 0, metadata !52, i32 3238} ; [ DW_TAG_subprogram ]
!302 = metadata !{i32 786478, i32 0, metadata !40, metadata !"nor_reduce", metadata !"nor_reduce", metadata !"_ZNK11ap_int_baseILi512ELb0ELb0EE10nor_reduceEv", metadata !34, i32 3241, metadata !199, i1 false, i1 false, i32 0, i32 0, null, i32 256, i1 false, null, null, i32 0, metadata !52, i32 3241} ; [ DW_TAG_subprogram ]
!303 = metadata !{i32 786478, i32 0, metadata !40, metadata !"xor_reduce", metadata !"xor_reduce", metadata !"_ZNK11ap_int_baseILi512ELb0ELb0EE10xor_reduceEv", metadata !34, i32 3244, metadata !199, i1 false, i1 false, i32 0, i32 0, null, i32 256, i1 false, null, null, i32 0, metadata !52, i32 3244} ; [ DW_TAG_subprogram ]
!304 = metadata !{i32 786478, i32 0, metadata !40, metadata !"xnor_reduce", metadata !"xnor_reduce", metadata !"_ZNK11ap_int_baseILi512ELb0ELb0EE11xnor_reduceEv", metadata !34, i32 3247, metadata !199, i1 false, i1 false, i32 0, i32 0, null, i32 256, i1 false, null, null, i32 0, metadata !52, i32 3247} ; [ DW_TAG_subprogram ]
!305 = metadata !{i32 786478, i32 0, metadata !40, metadata !"to_string", metadata !"to_string", metadata !"_ZNK11ap_int_baseILi512ELb0ELb0EE9to_stringEPci8BaseModeb", metadata !34, i32 3254, metadata !306, i1 false, i1 false, i32 0, i32 0, null, i32 256, i1 false, null, null, i32 0, metadata !52, i32 3254} ; [ DW_TAG_subprogram ]
!306 = metadata !{i32 786453, i32 0, metadata !"", i32 0, i32 0, i64 0, i64 0, i64 0, i32 0, null, metadata !307, i32 0, i32 0} ; [ DW_TAG_subroutine_type ]
!307 = metadata !{null, metadata !38, metadata !308, metadata !56, metadata !309, metadata !37}
!308 = metadata !{i32 786447, null, metadata !"", null, i32 0, i64 64, i64 64, i64 0, i32 0, metadata !137} ; [ DW_TAG_pointer_type ]
!309 = metadata !{i32 786436, null, metadata !"BaseMode", metadata !34, i32 603, i64 5, i64 8, i32 0, i32 0, null, metadata !310, i32 0, i32 0} ; [ DW_TAG_enumeration_type ]
!310 = metadata !{metadata !311, metadata !312, metadata !313, metadata !314}
!311 = metadata !{i32 786472, metadata !"SC_BIN", i64 2} ; [ DW_TAG_enumerator ]
!312 = metadata !{i32 786472, metadata !"SC_OCT", i64 8} ; [ DW_TAG_enumerator ]
!313 = metadata !{i32 786472, metadata !"SC_DEC", i64 10} ; [ DW_TAG_enumerator ]
!314 = metadata !{i32 786472, metadata !"SC_HEX", i64 16} ; [ DW_TAG_enumerator ]
!315 = metadata !{i32 786478, i32 0, metadata !40, metadata !"to_string", metadata !"to_string", metadata !"_ZNK11ap_int_baseILi512ELb0ELb0EE9to_stringE8BaseModeb", metadata !34, i32 3281, metadata !316, i1 false, i1 false, i32 0, i32 0, null, i32 256, i1 false, null, null, i32 0, metadata !52, i32 3281} ; [ DW_TAG_subprogram ]
!316 = metadata !{i32 786453, i32 0, metadata !"", i32 0, i32 0, i64 0, i64 0, i64 0, i32 0, null, metadata !317, i32 0, i32 0} ; [ DW_TAG_subroutine_type ]
!317 = metadata !{metadata !308, metadata !38, metadata !309, metadata !37}
!318 = metadata !{i32 786478, i32 0, metadata !40, metadata !"to_string", metadata !"to_string", metadata !"_ZNK11ap_int_baseILi512ELb0ELb0EE9to_stringEab", metadata !34, i32 3285, metadata !319, i1 false, i1 false, i32 0, i32 0, null, i32 256, i1 false, null, null, i32 0, metadata !52, i32 3285} ; [ DW_TAG_subprogram ]
!319 = metadata !{i32 786453, i32 0, metadata !"", i32 0, i32 0, i64 0, i64 0, i64 0, i32 0, null, metadata !320, i32 0, i32 0} ; [ DW_TAG_subroutine_type ]
!320 = metadata !{metadata !308, metadata !38, metadata !81, metadata !37}
!321 = metadata !{metadata !322, metadata !57, metadata !323}
!322 = metadata !{i32 786480, null, metadata !"_AP_W", metadata !56, i64 512, null, i32 0, i32 0} ; [ DW_TAG_template_value_parameter ]
!323 = metadata !{i32 786480, null, metadata !"_AP_C", metadata !37, i64 0, null, i32 0, i32 0} ; [ DW_TAG_template_value_parameter ]
!324 = metadata !{i32 25, i32 15, metadata !325, null}
!325 = metadata !{i32 786443, metadata !326, i32 24, i32 63, metadata !329, i32 2} ; [ DW_TAG_lexical_block ]
!326 = metadata !{i32 786443, metadata !327, i32 24, i32 2, metadata !329, i32 1} ; [ DW_TAG_lexical_block ]
!327 = metadata !{i32 786443, metadata !328, i32 21, i32 36, metadata !329, i32 0} ; [ DW_TAG_lexical_block ]
!328 = metadata !{i32 786478, i32 0, metadata !329, metadata !"match_db_contact", metadata !"match_db_contact", metadata !"_Z16match_db_contact7ap_uintILi512EE", metadata !329, i32 21, metadata !330, i1 false, i1 true, i32 0, i32 0, null, i32 256, i1 false, null, null, null, metadata !52, i32 21} ; [ DW_TAG_subprogram ]
!329 = metadata !{i32 786473, metadata !"contact_discovery_axi_experimental/src/contact_discovery.cpp", metadata !"/home/aimee/root_of_trust/operational_os/hls", null} ; [ DW_TAG_file_type ]
!330 = metadata !{i32 786453, i32 0, metadata !"", i32 0, i32 0, i64 0, i64 0, i64 0, i32 0, null, metadata !331, i32 0, i32 0} ; [ DW_TAG_subroutine_type ]
!331 = metadata !{metadata !37, metadata !332}
!332 = metadata !{i32 786454, null, metadata !"hash", metadata !329, i32 11, i64 0, i64 0, i64 0, i32 0, metadata !333} ; [ DW_TAG_typedef ]
!333 = metadata !{i32 786434, null, metadata !"ap_uint<512>", metadata !334, i32 182, i64 512, i64 512, i32 0, i32 0, null, metadata !335, i32 0, null, metadata !408} ; [ DW_TAG_class_type ]
!334 = metadata !{i32 786473, metadata !"/Xilinx/Vivado_HLS/2017.1/common/technology/autopilot/ap_int.h", metadata !"/home/aimee/root_of_trust/operational_os/hls", null} ; [ DW_TAG_file_type ]
!335 = metadata !{metadata !336, metadata !337, metadata !341, metadata !344, metadata !347, metadata !350, metadata !353, metadata !356, metadata !359, metadata !362, metadata !365, metadata !368, metadata !371, metadata !374, metadata !377, metadata !380, metadata !383, metadata !386, metadata !389, metadata !396, metadata !401, metadata !405}
!336 = metadata !{i32 786460, metadata !333, null, metadata !334, i32 0, i64 0, i64 0, i64 0, i32 0, metadata !40} ; [ DW_TAG_inheritance ]
!337 = metadata !{i32 786478, i32 0, metadata !333, metadata !"ap_uint", metadata !"ap_uint", metadata !"", metadata !334, i32 185, metadata !338, i1 false, i1 false, i32 0, i32 0, null, i32 256, i1 false, null, null, i32 0, metadata !52, i32 185} ; [ DW_TAG_subprogram ]
!338 = metadata !{i32 786453, i32 0, metadata !"", i32 0, i32 0, i64 0, i64 0, i64 0, i32 0, null, metadata !339, i32 0, i32 0} ; [ DW_TAG_subroutine_type ]
!339 = metadata !{null, metadata !340}
!340 = metadata !{i32 786447, i32 0, metadata !"", i32 0, i32 0, i64 64, i64 64, i64 0, i32 64, metadata !333} ; [ DW_TAG_pointer_type ]
!341 = metadata !{i32 786478, i32 0, metadata !333, metadata !"ap_uint", metadata !"ap_uint", metadata !"", metadata !334, i32 247, metadata !342, i1 false, i1 false, i32 0, i32 0, null, i32 256, i1 false, null, null, i32 0, metadata !52, i32 247} ; [ DW_TAG_subprogram ]
!342 = metadata !{i32 786453, i32 0, metadata !"", i32 0, i32 0, i64 0, i64 0, i64 0, i32 0, null, metadata !343, i32 0, i32 0} ; [ DW_TAG_subroutine_type ]
!343 = metadata !{null, metadata !340, metadata !37}
!344 = metadata !{i32 786478, i32 0, metadata !333, metadata !"ap_uint", metadata !"ap_uint", metadata !"", metadata !334, i32 248, metadata !345, i1 false, i1 false, i32 0, i32 0, null, i32 256, i1 false, null, null, i32 0, metadata !52, i32 248} ; [ DW_TAG_subprogram ]
!345 = metadata !{i32 786453, i32 0, metadata !"", i32 0, i32 0, i64 0, i64 0, i64 0, i32 0, null, metadata !346, i32 0, i32 0} ; [ DW_TAG_subroutine_type ]
!346 = metadata !{null, metadata !340, metadata !81}
!347 = metadata !{i32 786478, i32 0, metadata !333, metadata !"ap_uint", metadata !"ap_uint", metadata !"", metadata !334, i32 249, metadata !348, i1 false, i1 false, i32 0, i32 0, null, i32 256, i1 false, null, null, i32 0, metadata !52, i32 249} ; [ DW_TAG_subprogram ]
!348 = metadata !{i32 786453, i32 0, metadata !"", i32 0, i32 0, i64 0, i64 0, i64 0, i32 0, null, metadata !349, i32 0, i32 0} ; [ DW_TAG_subroutine_type ]
!349 = metadata !{null, metadata !340, metadata !85}
!350 = metadata !{i32 786478, i32 0, metadata !333, metadata !"ap_uint", metadata !"ap_uint", metadata !"", metadata !334, i32 250, metadata !351, i1 false, i1 false, i32 0, i32 0, null, i32 256, i1 false, null, null, i32 0, metadata !52, i32 250} ; [ DW_TAG_subprogram ]
!351 = metadata !{i32 786453, i32 0, metadata !"", i32 0, i32 0, i64 0, i64 0, i64 0, i32 0, null, metadata !352, i32 0, i32 0} ; [ DW_TAG_subroutine_type ]
!352 = metadata !{null, metadata !340, metadata !89}
!353 = metadata !{i32 786478, i32 0, metadata !333, metadata !"ap_uint", metadata !"ap_uint", metadata !"", metadata !334, i32 251, metadata !354, i1 false, i1 false, i32 0, i32 0, null, i32 256, i1 false, null, null, i32 0, metadata !52, i32 251} ; [ DW_TAG_subprogram ]
!354 = metadata !{i32 786453, i32 0, metadata !"", i32 0, i32 0, i64 0, i64 0, i64 0, i32 0, null, metadata !355, i32 0, i32 0} ; [ DW_TAG_subroutine_type ]
!355 = metadata !{null, metadata !340, metadata !93}
!356 = metadata !{i32 786478, i32 0, metadata !333, metadata !"ap_uint", metadata !"ap_uint", metadata !"", metadata !334, i32 252, metadata !357, i1 false, i1 false, i32 0, i32 0, null, i32 256, i1 false, null, null, i32 0, metadata !52, i32 252} ; [ DW_TAG_subprogram ]
!357 = metadata !{i32 786453, i32 0, metadata !"", i32 0, i32 0, i64 0, i64 0, i64 0, i32 0, null, metadata !358, i32 0, i32 0} ; [ DW_TAG_subroutine_type ]
!358 = metadata !{null, metadata !340, metadata !56}
!359 = metadata !{i32 786478, i32 0, metadata !333, metadata !"ap_uint", metadata !"ap_uint", metadata !"", metadata !334, i32 253, metadata !360, i1 false, i1 false, i32 0, i32 0, null, i32 256, i1 false, null, null, i32 0, metadata !52, i32 253} ; [ DW_TAG_subprogram ]
!360 = metadata !{i32 786453, i32 0, metadata !"", i32 0, i32 0, i64 0, i64 0, i64 0, i32 0, null, metadata !361, i32 0, i32 0} ; [ DW_TAG_subroutine_type ]
!361 = metadata !{null, metadata !340, metadata !100}
!362 = metadata !{i32 786478, i32 0, metadata !333, metadata !"ap_uint", metadata !"ap_uint", metadata !"", metadata !334, i32 254, metadata !363, i1 false, i1 false, i32 0, i32 0, null, i32 256, i1 false, null, null, i32 0, metadata !52, i32 254} ; [ DW_TAG_subprogram ]
!363 = metadata !{i32 786453, i32 0, metadata !"", i32 0, i32 0, i64 0, i64 0, i64 0, i32 0, null, metadata !364, i32 0, i32 0} ; [ DW_TAG_subroutine_type ]
!364 = metadata !{null, metadata !340, metadata !104}
!365 = metadata !{i32 786478, i32 0, metadata !333, metadata !"ap_uint", metadata !"ap_uint", metadata !"", metadata !334, i32 255, metadata !366, i1 false, i1 false, i32 0, i32 0, null, i32 256, i1 false, null, null, i32 0, metadata !52, i32 255} ; [ DW_TAG_subprogram ]
!366 = metadata !{i32 786453, i32 0, metadata !"", i32 0, i32 0, i64 0, i64 0, i64 0, i32 0, null, metadata !367, i32 0, i32 0} ; [ DW_TAG_subroutine_type ]
!367 = metadata !{null, metadata !340, metadata !108}
!368 = metadata !{i32 786478, i32 0, metadata !333, metadata !"ap_uint", metadata !"ap_uint", metadata !"", metadata !334, i32 256, metadata !369, i1 false, i1 false, i32 0, i32 0, null, i32 256, i1 false, null, null, i32 0, metadata !52, i32 256} ; [ DW_TAG_subprogram ]
!369 = metadata !{i32 786453, i32 0, metadata !"", i32 0, i32 0, i64 0, i64 0, i64 0, i32 0, null, metadata !370, i32 0, i32 0} ; [ DW_TAG_subroutine_type ]
!370 = metadata !{null, metadata !340, metadata !118}
!371 = metadata !{i32 786478, i32 0, metadata !333, metadata !"ap_uint", metadata !"ap_uint", metadata !"", metadata !334, i32 257, metadata !372, i1 false, i1 false, i32 0, i32 0, null, i32 256, i1 false, null, null, i32 0, metadata !52, i32 257} ; [ DW_TAG_subprogram ]
!372 = metadata !{i32 786453, i32 0, metadata !"", i32 0, i32 0, i64 0, i64 0, i64 0, i32 0, null, metadata !373, i32 0, i32 0} ; [ DW_TAG_subroutine_type ]
!373 = metadata !{null, metadata !340, metadata !113}
!374 = metadata !{i32 786478, i32 0, metadata !333, metadata !"ap_uint", metadata !"ap_uint", metadata !"", metadata !334, i32 258, metadata !375, i1 false, i1 false, i32 0, i32 0, null, i32 256, i1 false, null, null, i32 0, metadata !52, i32 258} ; [ DW_TAG_subprogram ]
!375 = metadata !{i32 786453, i32 0, metadata !"", i32 0, i32 0, i64 0, i64 0, i64 0, i32 0, null, metadata !376, i32 0, i32 0} ; [ DW_TAG_subroutine_type ]
!376 = metadata !{null, metadata !340, metadata !122}
!377 = metadata !{i32 786478, i32 0, metadata !333, metadata !"ap_uint", metadata !"ap_uint", metadata !"", metadata !334, i32 259, metadata !378, i1 false, i1 false, i32 0, i32 0, null, i32 256, i1 false, null, null, i32 0, metadata !52, i32 259} ; [ DW_TAG_subprogram ]
!378 = metadata !{i32 786453, i32 0, metadata !"", i32 0, i32 0, i64 0, i64 0, i64 0, i32 0, null, metadata !379, i32 0, i32 0} ; [ DW_TAG_subroutine_type ]
!379 = metadata !{null, metadata !340, metadata !127}
!380 = metadata !{i32 786478, i32 0, metadata !333, metadata !"ap_uint", metadata !"ap_uint", metadata !"", metadata !334, i32 260, metadata !381, i1 false, i1 false, i32 0, i32 0, null, i32 256, i1 false, null, null, i32 0, metadata !52, i32 260} ; [ DW_TAG_subprogram ]
!381 = metadata !{i32 786453, i32 0, metadata !"", i32 0, i32 0, i64 0, i64 0, i64 0, i32 0, null, metadata !382, i32 0, i32 0} ; [ DW_TAG_subroutine_type ]
!382 = metadata !{null, metadata !340, metadata !131}
!383 = metadata !{i32 786478, i32 0, metadata !333, metadata !"ap_uint", metadata !"ap_uint", metadata !"", metadata !334, i32 262, metadata !384, i1 false, i1 false, i32 0, i32 0, null, i32 256, i1 false, null, null, i32 0, metadata !52, i32 262} ; [ DW_TAG_subprogram ]
!384 = metadata !{i32 786453, i32 0, metadata !"", i32 0, i32 0, i64 0, i64 0, i64 0, i32 0, null, metadata !385, i32 0, i32 0} ; [ DW_TAG_subroutine_type ]
!385 = metadata !{null, metadata !340, metadata !135}
!386 = metadata !{i32 786478, i32 0, metadata !333, metadata !"ap_uint", metadata !"ap_uint", metadata !"", metadata !334, i32 263, metadata !387, i1 false, i1 false, i32 0, i32 0, null, i32 256, i1 false, null, null, i32 0, metadata !52, i32 263} ; [ DW_TAG_subprogram ]
!387 = metadata !{i32 786453, i32 0, metadata !"", i32 0, i32 0, i64 0, i64 0, i64 0, i32 0, null, metadata !388, i32 0, i32 0} ; [ DW_TAG_subroutine_type ]
!388 = metadata !{null, metadata !340, metadata !135, metadata !81}
!389 = metadata !{i32 786478, i32 0, metadata !333, metadata !"operator=", metadata !"operator=", metadata !"_ZNV7ap_uintILi512EEaSERKS0_", metadata !334, i32 266, metadata !390, i1 false, i1 false, i32 0, i32 0, null, i32 256, i1 false, null, null, i32 0, metadata !52, i32 266} ; [ DW_TAG_subprogram ]
!390 = metadata !{i32 786453, i32 0, metadata !"", i32 0, i32 0, i64 0, i64 0, i64 0, i32 0, null, metadata !391, i32 0, i32 0} ; [ DW_TAG_subroutine_type ]
!391 = metadata !{null, metadata !392, metadata !394}
!392 = metadata !{i32 786447, i32 0, metadata !"", i32 0, i32 0, i64 64, i64 64, i64 0, i32 64, metadata !393} ; [ DW_TAG_pointer_type ]
!393 = metadata !{i32 786485, null, metadata !"", null, i32 0, i64 0, i64 0, i64 0, i32 0, metadata !333} ; [ DW_TAG_volatile_type ]
!394 = metadata !{i32 786448, null, null, null, i32 0, i64 0, i64 0, i64 0, i32 0, metadata !395} ; [ DW_TAG_reference_type ]
!395 = metadata !{i32 786470, null, metadata !"", null, i32 0, i64 0, i64 0, i64 0, i32 0, metadata !333} ; [ DW_TAG_const_type ]
!396 = metadata !{i32 786478, i32 0, metadata !333, metadata !"operator=", metadata !"operator=", metadata !"_ZNV7ap_uintILi512EEaSERVKS0_", metadata !334, i32 270, metadata !397, i1 false, i1 false, i32 0, i32 0, null, i32 256, i1 false, null, null, i32 0, metadata !52, i32 270} ; [ DW_TAG_subprogram ]
!397 = metadata !{i32 786453, i32 0, metadata !"", i32 0, i32 0, i64 0, i64 0, i64 0, i32 0, null, metadata !398, i32 0, i32 0} ; [ DW_TAG_subroutine_type ]
!398 = metadata !{null, metadata !392, metadata !399}
!399 = metadata !{i32 786448, null, null, null, i32 0, i64 0, i64 0, i64 0, i32 0, metadata !400} ; [ DW_TAG_reference_type ]
!400 = metadata !{i32 786470, null, metadata !"", null, i32 0, i64 0, i64 0, i64 0, i32 0, metadata !393} ; [ DW_TAG_const_type ]
!401 = metadata !{i32 786478, i32 0, metadata !333, metadata !"operator=", metadata !"operator=", metadata !"_ZN7ap_uintILi512EEaSERVKS0_", metadata !334, i32 274, metadata !402, i1 false, i1 false, i32 0, i32 0, null, i32 256, i1 false, null, null, i32 0, metadata !52, i32 274} ; [ DW_TAG_subprogram ]
!402 = metadata !{i32 786453, i32 0, metadata !"", i32 0, i32 0, i64 0, i64 0, i64 0, i32 0, null, metadata !403, i32 0, i32 0} ; [ DW_TAG_subroutine_type ]
!403 = metadata !{metadata !404, metadata !340, metadata !399}
!404 = metadata !{i32 786448, null, null, null, i32 0, i64 0, i64 0, i64 0, i32 0, metadata !333} ; [ DW_TAG_reference_type ]
!405 = metadata !{i32 786478, i32 0, metadata !333, metadata !"operator=", metadata !"operator=", metadata !"_ZN7ap_uintILi512EEaSERKS0_", metadata !334, i32 279, metadata !406, i1 false, i1 false, i32 0, i32 0, null, i32 256, i1 false, null, null, i32 0, metadata !52, i32 279} ; [ DW_TAG_subprogram ]
!406 = metadata !{i32 786453, i32 0, metadata !"", i32 0, i32 0, i64 0, i64 0, i64 0, i32 0, null, metadata !407, i32 0, i32 0} ; [ DW_TAG_subroutine_type ]
!407 = metadata !{metadata !404, metadata !340, metadata !394}
!408 = metadata !{metadata !322}
!409 = metadata !{i32 27, i32 2, metadata !327, null}
!410 = metadata !{metadata !411}
!411 = metadata !{i32 0, i32 31, metadata !412}
!412 = metadata !{metadata !413}
!413 = metadata !{metadata !"operation", metadata !414, metadata !"int", i32 0, i32 31}
!414 = metadata !{metadata !415}
!415 = metadata !{i32 0, i32 0, i32 0}
!416 = metadata !{metadata !417}
!417 = metadata !{i32 0, i32 511, metadata !418}
!418 = metadata !{metadata !419}
!419 = metadata !{metadata !"contact_in.V", metadata !414, metadata !"uint512", i32 0, i32 511}
!420 = metadata !{metadata !421}
!421 = metadata !{i32 0, i32 511, metadata !422}
!422 = metadata !{metadata !423}
!423 = metadata !{metadata !"db_mem.V", metadata !424, metadata !"uint512", i32 0, i32 511}
!424 = metadata !{metadata !425}
!425 = metadata !{i32 0, i32 8388607, i32 1}
!426 = metadata !{metadata !427}
!427 = metadata !{i32 0, i32 63, metadata !428}
!428 = metadata !{metadata !429}
!429 = metadata !{metadata !"offset", metadata !414, metadata !"long long unsigned int", i32 0, i32 63}
!430 = metadata !{metadata !431}
!431 = metadata !{i32 0, i32 31, metadata !432}
!432 = metadata !{metadata !433}
!433 = metadata !{metadata !"db_size_in", metadata !414, metadata !"unsigned int", i32 0, i32 31}
!434 = metadata !{metadata !435}
!435 = metadata !{i32 0, i32 31, metadata !436}
!436 = metadata !{metadata !437}
!437 = metadata !{metadata !"error_out", metadata !29, metadata !"int", i32 0, i32 31}
!438 = metadata !{metadata !439}
!439 = metadata !{i32 0, i32 31, metadata !440}
!440 = metadata !{metadata !441}
!441 = metadata !{metadata !"contacts_size_out", metadata !29, metadata !"int", i32 0, i32 31}
!442 = metadata !{metadata !443}
!443 = metadata !{i32 0, i32 7, metadata !444}
!444 = metadata !{metadata !445}
!445 = metadata !{metadata !"results_out", metadata !446, metadata !"unsigned char", i32 0, i32 7}
!446 = metadata !{metadata !447}
!447 = metadata !{i32 0, i32 1048575, i32 1}
!448 = metadata !{i32 786689, metadata !449, metadata !"db_size_in", metadata !329, i32 83886124, metadata !100, i32 0, i32 0} ; [ DW_TAG_arg_variable ]
!449 = metadata !{i32 786478, i32 0, metadata !329, metadata !"contact_discovery", metadata !"contact_discovery", metadata !"_Z17contact_discoveryi7ap_uintILi512EEPS0_yjPiS2_Ph", metadata !329, i32 39, metadata !450, i1 false, i1 true, i32 0, i32 0, null, i32 256, i1 false, null, null, null, metadata !52, i32 48} ; [ DW_TAG_subprogram ]
!450 = metadata !{i32 786453, i32 0, metadata !"", i32 0, i32 0, i64 0, i64 0, i64 0, i32 0, null, metadata !451, i32 0, i32 0} ; [ DW_TAG_subroutine_type ]
!451 = metadata !{null, metadata !56, metadata !332, metadata !452, metadata !118, metadata !100, metadata !453, metadata !453, metadata !454}
!452 = metadata !{i32 786447, null, metadata !"", null, i32 0, i64 64, i64 64, i64 0, i32 0, metadata !332} ; [ DW_TAG_pointer_type ]
!453 = metadata !{i32 786447, null, metadata !"", null, i32 0, i64 64, i64 64, i64 0, i32 0, metadata !56} ; [ DW_TAG_pointer_type ]
!454 = metadata !{i32 786447, null, metadata !"", null, i32 0, i64 64, i64 64, i64 0, i32 0, metadata !85} ; [ DW_TAG_pointer_type ]
!455 = metadata !{i32 44, i32 15, metadata !449, null}
!456 = metadata !{i32 786689, metadata !449, metadata !"offset", metadata !329, i32 67108907, metadata !118, i32 0, i32 0} ; [ DW_TAG_arg_variable ]
!457 = metadata !{i32 43, i32 21, metadata !449, null}
!458 = metadata !{i32 790533, metadata !459, metadata !"op2.V", null, i32 279, metadata !461, i32 0, i32 0} ; [ DW_TAG_arg_variable_field_ro ]
!459 = metadata !{i32 786689, metadata !460, metadata !"op2", metadata !334, i32 33554711, metadata !394, i32 0, i32 0} ; [ DW_TAG_arg_variable ]
!460 = metadata !{i32 786478, i32 0, null, metadata !"operator=", metadata !"operator=", metadata !"_ZN7ap_uintILi512EEaSERKS0_", metadata !334, i32 279, metadata !406, i1 false, i1 true, i32 0, i32 0, null, i32 256, i1 false, null, null, metadata !405, metadata !52, i32 279} ; [ DW_TAG_subprogram ]
!461 = metadata !{i32 786447, null, metadata !"", null, i32 0, i64 0, i64 0, i64 0, i32 0, metadata !462} ; [ DW_TAG_pointer_type ]
!462 = metadata !{i32 786438, null, metadata !"ap_uint<512>", metadata !334, i32 182, i64 512, i64 512, i32 0, i32 0, null, metadata !463, i32 0, null, metadata !408} ; [ DW_TAG_class_field_type ]
!463 = metadata !{metadata !464}
!464 = metadata !{i32 786438, null, metadata !"ap_int_base<512, false, false>", metadata !34, i32 2343, i64 512, i64 512, i32 0, i32 0, null, metadata !465, i32 0, null, metadata !321} ; [ DW_TAG_class_field_type ]
!465 = metadata !{metadata !466}
!466 = metadata !{i32 786438, null, metadata !"ssdm_int<512 + 1024 * 0, false>", metadata !44, i32 526, i64 512, i64 512, i32 0, i32 0, null, metadata !467, i32 0, null, metadata !54} ; [ DW_TAG_class_field_type ]
!467 = metadata !{metadata !46}
!468 = metadata !{i32 279, i32 87, metadata !460, metadata !469}
!469 = metadata !{i32 78, i32 5, metadata !470, null}
!470 = metadata !{i32 786443, metadata !471, i32 77, i32 10, metadata !329, i32 6} ; [ DW_TAG_lexical_block ]
!471 = metadata !{i32 786443, metadata !472, i32 69, i32 19, metadata !329, i32 4} ; [ DW_TAG_lexical_block ]
!472 = metadata !{i32 786443, metadata !449, i32 48, i32 2, metadata !329, i32 3} ; [ DW_TAG_lexical_block ]
!473 = metadata !{i32 786689, metadata !449, metadata !"operation", metadata !329, i32 16777256, metadata !56, i32 0, i32 0} ; [ DW_TAG_arg_variable ]
!474 = metadata !{i32 40, i32 6, metadata !449, null}
!475 = metadata !{i32 790531, metadata !476, metadata !"db_mem.V", null, i32 42, metadata !477, i32 0, i32 0} ; [ DW_TAG_arg_variable_field ]
!476 = metadata !{i32 786689, metadata !449, metadata !"db_mem", metadata !329, i32 50331690, metadata !452, i32 0, i32 0} ; [ DW_TAG_arg_variable ]
!477 = metadata !{i32 786433, null, metadata !"", null, i32 0, i64 4294967296, i64 512, i32 0, i32 0, metadata !462, metadata !478, i32 0, i32 0} ; [ DW_TAG_array_type ]
!478 = metadata !{metadata !479}
!479 = metadata !{i32 786465, i64 0, i64 8388607} ; [ DW_TAG_subrange_type ]
!480 = metadata !{i32 42, i32 7, metadata !449, null}
!481 = metadata !{i32 786689, metadata !449, metadata !"error_out", metadata !329, i32 100663341, metadata !453, i32 0, i32 0} ; [ DW_TAG_arg_variable ]
!482 = metadata !{i32 45, i32 7, metadata !449, null}
!483 = metadata !{i32 786689, metadata !449, metadata !"contacts_size_out", metadata !329, i32 117440558, metadata !453, i32 0, i32 0} ; [ DW_TAG_arg_variable ]
!484 = metadata !{i32 46, i32 7, metadata !449, null}
!485 = metadata !{i32 786689, metadata !449, metadata !"results_out", null, i32 47, metadata !486, i32 0, i32 0} ; [ DW_TAG_arg_variable ]
!486 = metadata !{i32 786433, null, metadata !"", null, i32 0, i64 8388608, i64 8, i32 0, i32 0, metadata !85, metadata !487, i32 0, i32 0} ; [ DW_TAG_array_type ]
!487 = metadata !{metadata !488}
!488 = metadata !{i32 786465, i64 0, i64 1048575} ; [ DW_TAG_subrange_type ]
!489 = metadata !{i32 47, i32 16, metadata !449, null}
!490 = metadata !{i32 49, i32 1, metadata !472, null}
!491 = metadata !{i32 50, i32 1, metadata !472, null}
!492 = metadata !{i32 54, i32 1, metadata !472, null}
!493 = metadata !{i32 55, i32 1, metadata !472, null}
!494 = metadata !{i32 57, i32 1, metadata !472, null}
!495 = metadata !{i32 58, i32 1, metadata !472, null}
!496 = metadata !{i32 59, i32 1, metadata !472, null}
!497 = metadata !{i32 60, i32 1, metadata !472, null}
!498 = metadata !{i32 61, i32 1, metadata !472, null}
!499 = metadata !{i32 62, i32 1, metadata !472, null}
!500 = metadata !{i32 63, i32 1, metadata !472, null}
!501 = metadata !{i32 64, i32 1, metadata !472, null}
!502 = metadata !{i32 73, i32 4, metadata !471, null}
!503 = metadata !{i32 69, i32 2, metadata !472, null}
!504 = metadata !{i32 72, i32 4, metadata !471, null}
!505 = metadata !{i32 74, i32 4, metadata !471, null}
!506 = metadata !{i32 75, i32 5, metadata !507, null}
!507 = metadata !{i32 786443, metadata !471, i32 74, i32 28, metadata !329, i32 5} ; [ DW_TAG_lexical_block ]
!508 = metadata !{i32 77, i32 4, metadata !507, null}
!509 = metadata !{i32 280, i32 10, metadata !510, metadata !469}
!510 = metadata !{i32 786443, metadata !460, i32 279, i32 92, metadata !334, i32 11} ; [ DW_TAG_lexical_block ]
!511 = metadata !{i32 79, i32 5, metadata !470, null}
!512 = metadata !{i32 76, i32 5, metadata !507, null}
!513 = metadata !{i32 82, i32 4, metadata !471, null}
!514 = metadata !{i32 85, i32 4, metadata !471, null}
!515 = metadata !{i32 86, i32 4, metadata !471, null}
!516 = metadata !{i32 89, i32 8, metadata !517, null}
!517 = metadata !{i32 786443, metadata !471, i32 89, i32 4, metadata !329, i32 7} ; [ DW_TAG_lexical_block ]
!518 = metadata !{i32 89, i32 54, metadata !517, null}
!519 = metadata !{i32 89, i32 72, metadata !520, null}
!520 = metadata !{i32 786443, metadata !517, i32 89, i32 71, metadata !329, i32 8} ; [ DW_TAG_lexical_block ]
!521 = metadata !{i32 90, i32 1, metadata !520, null}
!522 = metadata !{i32 99, i32 5, metadata !520, null}
!523 = metadata !{i32 100, i32 52, metadata !524, null}
!524 = metadata !{i32 786443, metadata !520, i32 99, i32 35, metadata !329, i32 9} ; [ DW_TAG_lexical_block ]
!525 = metadata !{i32 120, i32 4, metadata !520, null}
!526 = metadata !{i32 786688, metadata !472, metadata !"database_index", metadata !329, i32 65, metadata !56, i32 0, i32 0} ; [ DW_TAG_auto_variable ]
!527 = metadata !{i32 121, i32 4, metadata !471, null}
!528 = metadata !{i32 124, i32 4, metadata !471, null}
!529 = metadata !{i32 125, i32 4, metadata !471, null}
!530 = metadata !{i32 126, i32 4, metadata !471, null}
!531 = metadata !{i32 127, i32 4, metadata !471, null}
!532 = metadata !{i32 130, i32 4, metadata !471, null}
!533 = metadata !{i32 131, i32 4, metadata !471, null}
!534 = metadata !{i32 132, i32 4, metadata !471, null}
!535 = metadata !{i32 134, i32 1, metadata !472, null}
