
build/zynqmp/debug/bl31/bl31.elf:     file format elf64-littleaarch64
build/zynqmp/debug/bl31/bl31.elf
architecture: aarch64, flags 0x00000112:
EXEC_P, HAS_SYMS, D_PAGED
start address 0x00000000fffea000

Program Header:
    LOAD off    0x0000000000000000 vaddr 0x00000000fffe0000 paddr 0x00000000fffe0000 align 2**16
         filesz 0x0000000000014020 memsz 0x000000000001d000 flags rwx
private flags = 0:

Sections:
Idx Name          Size      VMA               LMA               File off  Algn
  0 .text         00007000  00000000fffea000  00000000fffea000  0000a000  2**11
                  CONTENTS, ALLOC, LOAD, READONLY, CODE
  1 .rodata       00003000  00000000ffff1000  00000000ffff1000  00011000  2**3
                  CONTENTS, ALLOC, LOAD, READONLY, DATA
  2 .data         00000020  00000000ffff4000  00000000ffff4000  00014000  2**3
                  CONTENTS, ALLOC, LOAD, DATA
  3 stacks        00001100  00000000ffff4040  00000000ffff4040  00014020  2**6
                  ALLOC
  4 .bss          00001214  00000000ffff5140  00000000ffff5140  00014020  2**6
                  ALLOC
  5 xlat_table    00005000  00000000ffff7000  00000000ffff7000  00014020  2**12
                  ALLOC
  6 coherent_ram  00001000  00000000ffffc000  00000000ffffc000  00014020  2**12
                  ALLOC
  7 .debug_info   000169e5  0000000000000000  0000000000000000  00014020  2**0
                  CONTENTS, READONLY, DEBUGGING
  8 .debug_abbrev 00005959  0000000000000000  0000000000000000  0002aa05  2**0
                  CONTENTS, READONLY, DEBUGGING
  9 .debug_aranges 00001e50  0000000000000000  0000000000000000  00030360  2**4
                  CONTENTS, READONLY, DEBUGGING
 10 .debug_line   00006d92  0000000000000000  0000000000000000  000321b0  2**0
                  CONTENTS, READONLY, DEBUGGING
 11 .debug_str    00003d0d  0000000000000000  0000000000000000  00038f42  2**0
                  CONTENTS, READONLY, DEBUGGING
 12 .comment      0000002f  0000000000000000  0000000000000000  0003cc4f  2**0
                  CONTENTS, READONLY
 13 .debug_loc    00013474  0000000000000000  0000000000000000  0003cc7e  2**0
                  CONTENTS, READONLY, DEBUGGING
 14 .debug_ranges 00002920  0000000000000000  0000000000000000  00050100  2**4
                  CONTENTS, READONLY, DEBUGGING
 15 .debug_frame  00002b88  0000000000000000  0000000000000000  00052a20  2**3
                  CONTENTS, READONLY, DEBUGGING
SYMBOL TABLE:
00000000fffea000 l    d  .text	0000000000000000 .text
00000000ffff1000 l    d  .rodata	0000000000000000 .rodata
00000000ffff4000 l    d  .data	0000000000000000 .data
00000000ffff4040 l    d  stacks	0000000000000000 stacks
00000000ffff5140 l    d  .bss	0000000000000000 .bss
00000000ffff7000 l    d  xlat_table	0000000000000000 xlat_table
00000000ffffc000 l    d  coherent_ram	0000000000000000 coherent_ram
0000000000000000 l    d  .debug_info	0000000000000000 .debug_info
0000000000000000 l    d  .debug_abbrev	0000000000000000 .debug_abbrev
0000000000000000 l    d  .debug_aranges	0000000000000000 .debug_aranges
0000000000000000 l    d  .debug_line	0000000000000000 .debug_line
0000000000000000 l    d  .debug_str	0000000000000000 .debug_str
0000000000000000 l    d  .comment	0000000000000000 .comment
0000000000000000 l    d  .debug_loc	0000000000000000 .debug_loc
0000000000000000 l    d  .debug_ranges	0000000000000000 .debug_ranges
0000000000000000 l    d  .debug_frame	0000000000000000 .debug_frame
0000000000000000 l    df *ABS*	0000000000000000 ./build/zynqmp/debug/bl31/bl31_entrypoint.o
00000000fffea068 l       .text	0000000000000000 do_primary_cold_boot
0000000000000000 l    df *ABS*	0000000000000000 cci.c
00000000ffff1038 l     O .rodata	000000000000001b __func__.1215
00000000ffff5140 l     O .bss	0000000000000004 g_max_master_id
00000000ffff5148 l     O .bss	0000000000000008 g_cci_base
00000000ffff5150 l     O .bss	0000000000000008 g_cci_slave_if_map
00000000ffff1178 l     O .rodata	0000000000000009 __func__.1202
00000000ffff1188 l     O .rodata	000000000000001a __func__.1207
0000000000000000 l    df *ABS*	0000000000000000 plat_psci_common.c
00000000ffff11a8 l     O .rodata	000000000000001a __func__.1553
0000000000000000 l    df *ABS*	0000000000000000 bl31_zynqmp_setup.c
00000000fffea3d0 l     F .text	0000000000000054 zynqmp_el3_interrupt_handler
00000000ffff11f0 l     O .rodata	000000000000001a __func__.2459
00000000ffff5158 l     O .bss	0000000000000058 bl32_image_ep_info
00000000ffff51b0 l     O .bss	0000000000000058 bl33_image_ep_info
00000000ffff5208 l     O .bss	0000000000000400 type_el3_interrupt_table
00000000ffff12c0 l     O .rodata	0000000000000021 __func__.2454
0000000000000000 l    df *ABS*	0000000000000000 plat_psci.c
00000000fffea690 l     F .text	0000000000000038 zynqmp_nopmu_system_reset
00000000fffea6c8 l     F .text	000000000000001c zynqmp_nopmu_system_off
00000000fffea6e4 l     F .text	000000000000003c zynqmp_nopmu_pwr_domain_suspend_finish
00000000fffea720 l     F .text	0000000000000088 zynqmp_nopmu_pwr_domain_suspend
00000000fffea7a8 l     F .text	0000000000000014 zynqmp_pwr_domain_on_finish
00000000fffea7bc l     F .text	0000000000000040 zynqmp_nopmu_pwr_domain_off
00000000fffea7fc l     F .text	00000000000000d0 zynqmp_nopmu_pwr_domain_on
00000000fffea8cc l     F .text	0000000000000020 zynqmp_system_reset
00000000fffea8ec l     F .text	0000000000000020 zynqmp_system_off
00000000fffea90c l     F .text	0000000000000048 zynqmp_pwr_domain_suspend_finish
00000000fffea954 l     F .text	0000000000000060 zynqmp_pwr_domain_suspend
00000000fffea9b4 l     F .text	0000000000000038 zynqmp_pwr_domain_off
00000000fffea9ec l     F .text	0000000000000044 zynqmp_pwr_domain_on
00000000ffff12e8 l     O .rodata	0000000000000078 zynqmp_nopmu_psci_ops
00000000ffff13c0 l     O .rodata	0000000000000078 zynqmp_psci_ops
00000000ffff1438 l     O .rodata	000000000000001c __func__.2847
0000000000000000 l    df *ABS*	0000000000000000 plat_zynqmp.c
0000000000000000 l    df *ABS*	0000000000000000 plat_startup.c
00000000ffff1608 l     O .rodata	0000000000000012 __func__.2026
0000000000000000 l    df *ABS*	0000000000000000 plat_topology.c
00000000ffff1620 l     O .rodata	0000000000000002 plat_power_domain_tree_desc
0000000000000000 l    df *ABS*	0000000000000000 sip_svc_setup.c
00000000fffead04 l     F .text	0000000000000018 sip_svc_setup
00000000ffff1628 l     O .rodata	0000000000000010 zynqmp_sip_uuid
00000000ffff3ad0 l     O .rodata	0000000000000020 __svc_desc_sip_svc
0000000000000000 l    df *ABS*	0000000000000000 pm_svc_main.c
00000000fffeadcc l     F .text	0000000000000050 ipi_fiq_handler
00000000ffff4000 l     O .data	0000000000000004 pm_down
00000000ffff5608 l     O .bss	0000000000000020 pm_ctx
0000000000000000 l    df *ABS*	0000000000000000 pm_api_sys.c
0000000000000000 l    df *ABS*	0000000000000000 pm_ipi.c
00000000fffeb640 l     F .text	0000000000000084 ipi_fiq_handler
00000000fffeb6c4 l     F .text	0000000000000044 pm_ipi_send_common.isra.3
00000000ffff5628 l     O .bss	0000000000000008 usr_fiq_handler
0000000000000000 l    df *ABS*	0000000000000000 pm_client.c
00000000ffff1728 l     O .rodata	0000000000000040 pm_procs_all
00000000ffff1768 l     O .rodata	0000000000000154 irq_node_map
0000000000000000 l    df *ABS*	0000000000000000 bl31_main.c
00000000ffff4010 l     O .data	0000000000000004 next_image_type
00000000ffff5630 l     O .bss	0000000000000008 bl32_init
00000000ffff18c0 l     O .rodata	0000000000000010 psci_args.2403
00000000ffff1a68 l     O .rodata	0000000000000015 __func__.2404
00000000ffff1a80 l     O .rodata	000000000000001e __func__.2423
0000000000000000 l    df *ABS*	0000000000000000 interrupt_mgmt.c
00000000fffebc18 l     F .text	0000000000000084 set_scr_el3_from_rm
00000000ffff1aa0 l     O .rodata	000000000000001f __func__.1667
00000000ffff5638 l     O .bss	0000000000000048 intr_type_descs
0000000000000000 l    df *ABS*	0000000000000000 bl31_context_mgmt.c
00000000ffff1af8 l     O .rodata	0000000000000018 __func__.2337
00000000ffff1b48 l     O .rodata	0000000000000018 __func__.2331
00000000ffff1b60 l     O .rodata	000000000000000f __func__.2321
0000000000000000 l    df *ABS*	0000000000000000 runtime_svc.c
00000000ffff1c38 l     O .rodata	0000000000000011 __func__.1405
00000000ffff5680 l     O .bss	0000000000000008 rt_svc_descs
0000000000000000 l    df *ABS*	0000000000000000 std_svc_setup.c
00000000fffec15c l     F .text	000000000000003c std_svc_setup
00000000ffff1c50 l     O .rodata	000000000000000e __func__.1502
00000000ffff3af0 l     O .rodata	0000000000000020 __svc_desc_std_svc
00000000ffff1cc8 l     O .rodata	0000000000000010 arm_svc_uid
0000000000000000 l    df *ABS*	0000000000000000 context_mgmt.c
00000000fffec198 l     F .text	0000000000000120 cm_init_context_common
00000000fffec2b8 l     F .text	0000000000000040 cm_set_next_context
00000000ffff1cd8 l     O .rodata	0000000000000014 __func__.1998
00000000ffff1d88 l     O .rodata	0000000000000017 __func__.2356
00000000ffff1da0 l     O .rodata	0000000000000015 __func__.2407
00000000ffff1db8 l     O .rodata	0000000000000014 __func__.2373
0000000000000000 l    df *ABS*	0000000000000000 psci_off.c
00000000ffff1dd0 l     O .rodata	0000000000000010 __func__.2458
0000000000000000 l    df *ABS*	0000000000000000 psci_on.c
00000000ffff1f60 l     O .rodata	0000000000000016 __func__.2468
00000000ffff1f78 l     O .rodata	0000000000000012 __func__.2476
00000000ffff1f90 l     O .rodata	0000000000000013 __func__.2482
0000000000000000 l    df *ABS*	0000000000000000 psci_suspend.c
00000000ffff1fa8 l     O .rodata	0000000000000017 __func__.2505
00000000ffff1fc0 l     O .rodata	0000000000000018 __func__.2513
0000000000000000 l    df *ABS*	0000000000000000 psci_common.c
00000000fffecb24 l     F .text	0000000000000028 psci_set_req_local_pwr_state.part.0
00000000ffff20e0 l     O .rodata	0000000000000014 __func__.2548
00000000ffff20f8 l     O .rodata	000000000000001d __func__.2562
00000000ffff2118 l     O .rodata	000000000000001b __func__.2624
00000000ffff2360 l     O .rodata	0000000000000016 __func__.2713
00000000ffff5688 l     O .bss	0000000000000004 psci_req_local_pwr_states
00000000ffff2378 l     O .rodata	0000000000000018 psci_state_type_str.2720
00000000ffff2390 l     O .rodata	0000000000000020 __func__.2542
00000000ffff23b0 l     O .rodata	000000000000001a __func__.2538
0000000000000000 l    df *ABS*	0000000000000000 psci_main.c
00000000ffff23f0 l     O .rodata	0000000000000013 __func__.2506
00000000ffff2660 l     O .rodata	0000000000000011 __func__.2466
00000000ffff2678 l     O .rodata	0000000000000014 __func__.2474
00000000ffff2690 l     O .rodata	000000000000000d __func__.2480
00000000ffff26a0 l     O .rodata	000000000000000d __func__.2491
0000000000000000 l    df *ABS*	0000000000000000 psci_setup.c
00000000ffff26b0 l     O .rodata	000000000000000b __func__.2503
00000000ffff5690 l     O .bss	0000000000000840 psci_ns_context
00000000ffff2790 l     O .rodata	000000000000001b __func__.2489
0000000000000000 l    df *ABS*	0000000000000000 psci_system_off.c
00000000ffff2808 l     O .rodata	0000000000000010 __func__.2413
00000000ffff2818 l     O .rodata	0000000000000012 __func__.2417
0000000000000000 l    df *ABS*	0000000000000000 bakery_lock_coherent.c
00000000ffff2830 l     O .rodata	0000000000000010 __func__.2284
00000000ffff2840 l     O .rodata	0000000000000014 __func__.2297
00000000ffff28d0 l     O .rodata	0000000000000012 __func__.2271
0000000000000000 l    df *ABS*	0000000000000000 bl_common.c
0000000000000000 l    df *ABS*	0000000000000000 tf_printf.c
00000000fffee020 l     F .text	0000000000000074 unsigned_num_print
0000000000000000 l    df *ABS*	0000000000000000 assert.c
0000000000000000 l    df *ABS*	0000000000000000 mem.c
0000000000000000 l    df *ABS*	0000000000000000 putchar.c
0000000000000000 l    df *ABS*	0000000000000000 xlat_tables_common.c
00000000fffee464 l     F .text	0000000000000244 init_xlation_table_inner
00000000ffff5ed0 l     O .bss	0000000000000100 mmap
00000000ffff7000 l     O xlat_table	0000000000005000 xlat_tables
00000000ffff2d10 l     O .rodata	000000000000000a __func__.2063
00000000ffff5fd0 l     O .bss	0000000000000008 xlat_max_va
00000000ffff5fd8 l     O .bss	0000000000000008 xlat_max_pa
00000000ffff2ec0 l     O .rodata	0000000000000019 __func__.2078
00000000ffff2ee0 l     O .rodata	0000000000000010 __func__.2035
00000000ffff5fe0 l     O .bss	0000000000000004 next_xlat
0000000000000000 l    df *ABS*	0000000000000000 xlat_tables.c
00000000ffff5fe8 l     O .bss	0000000000000008 tcr_ps_bits
00000000ffff6000 l     O .bss	0000000000000020 base_xlation_table
00000000ffff2fb8 l     O .rodata	000000000000001d __func__.1967
00000000ffff2fd8 l     O .rodata	0000000000000011 __func__.1973
00000000ffff2ff0 l     O .rodata	000000000000000f __func__.1989
0000000000000000 l    df *ABS*	0000000000000000 delay_timer.c
00000000ffff3000 l     O .rodata	000000000000000b __func__.1286
00000000ffff6020 l     O .bss	0000000000000008 ops
0000000000000000 l    df *ABS*	0000000000000000 generic_delay_timer.c
00000000fffeeb60 l     F .text	000000000000000c get_timer_value
00000000ffff6028 l     O .bss	0000000000000010 ops
0000000000000000 l    df *ABS*	0000000000000000 gic_common.c
0000000000000000 l    df *ABS*	0000000000000000 gicv2_main.c
00000000ffff3118 l     O .rodata	0000000000000012 __func__.2072
00000000ffff6038 l     O .bss	0000000000000008 driver_data
00000000ffff3130 l     O .rodata	0000000000000017 __func__.2067
00000000ffff3290 l     O .rodata	0000000000000012 __func__.2077
00000000ffff32a8 l     O .rodata	0000000000000013 __func__.2058
00000000ffff32c0 l     O .rodata	0000000000000015 __func__.2082
00000000ffff32d8 l     O .rodata	0000000000000021 __func__.2086
00000000ffff3300 l     O .rodata	0000000000000014 __func__.2063
00000000ffff3318 l     O .rodata	000000000000001f __func__.2091
0000000000000000 l    df *ABS*	0000000000000000 gicv2_helpers.c
00000000ffff3338 l     O .rodata	000000000000001c __func__.2116
00000000ffff33a8 l     O .rodata	000000000000001b __func__.2128
0000000000000000 l    df *ABS*	0000000000000000 arm_cci.c
00000000ffff33c8 l     O .rodata	0000000000000008 cci_map
0000000000000000 l    df *ABS*	0000000000000000 arm_common.c
0000000000000000 l    df *ABS*	0000000000000000 arm_gicv2.c
00000000ffff33d0 l     O .rodata	0000000000000028 g0_interrupt_array
00000000ffff33f8 l     O .rodata	0000000000000020 arm_gic_data
0000000000000000 l    df *ABS*	0000000000000000 plat_gicv2.c
00000000ffff3418 l     O .rodata	000000000000001c __func__.1176
0000000000000000 l    df *ABS*	0000000000000000 plat_common.c
0000000000000000 l    df *ABS*	0000000000000000 zynqmp_common.c
00000000fffef484 l     F .text	0000000000000028 zynqmp_get_silicon_ver
00000000ffff6040 l     O .bss	0000000000000004 ver.1686
00000000ffff6044 l     O .bss	0000000000000004 zynqmp_pmufw_present
00000000ffff3570 l     O .rodata	00000000000000b0 zynqmp_devices
00000000ffff3620 l     O .rodata	0000000000000020 CSWTCH.21
00000000ffff36c0 l     O .rodata	000000000000000c CSWTCH.18
0000000000000000 l    df *ABS*	0000000000000000 ./build/zynqmp/debug/bl31/aem_generic.o
0000000000000000 l       *ABS*	0000000000000000 CPU_MIDR
0000000000000008 l       *ABS*	0000000000000000 CPU_RESET_FUNC
0000000000000010 l       *ABS*	0000000000000000 CPU_PWR_DWN_CORE
0000000000000018 l       *ABS*	0000000000000000 CPU_PWR_DWN_CLUSTER
0000000000000020 l       *ABS*	0000000000000000 CPU_REG_DUMP
0000000000000028 l       *ABS*	0000000000000000 CPU_OPS_SIZE
00000000fffef694 l     F .text	0000000000000018 aem_generic_core_pwr_dwn
00000000fffef6ac l     F .text	0000000000000018 aem_generic_cluster_pwr_dwn
00000000ffff36d0 l       .rodata	0000000000000000 aem_generic_regs
00000000fffef6c4 l     F .text	0000000000000008 aem_generic_cpu_reg_dump
0000000000000000 l    df *ABS*	0000000000000000 ./build/zynqmp/debug/bl31/cortex_a53.o
0000000000000000 l       *ABS*	0000000000000000 CPU_MIDR
0000000000000008 l       *ABS*	0000000000000000 CPU_RESET_FUNC
0000000000000010 l       *ABS*	0000000000000000 CPU_PWR_DWN_CORE
0000000000000018 l       *ABS*	0000000000000000 CPU_PWR_DWN_CLUSTER
0000000000000020 l       *ABS*	0000000000000000 CPU_REG_DUMP
0000000000000028 l       *ABS*	0000000000000000 CPU_OPS_SIZE
00000000fffef6cc l     F .text	0000000000000014 cortex_a53_disable_dcache
00000000fffef6e0 l     F .text	0000000000000018 cortex_a53_disable_smp
00000000fffef6f8 l     F .text	0000000000000024 cortex_a53_reset_func
00000000fffef71c l     F .text	0000000000000018 cortex_a53_core_pwr_dwn
00000000fffef734 l     F .text	0000000000000024 cortex_a53_cluster_pwr_dwn
00000000ffff36d1 l       .rodata	0000000000000000 cortex_a53_regs
00000000fffef758 l     F .text	0000000000000014 cortex_a53_cpu_reg_dump
0000000000000000 l    df *ABS*	0000000000000000 ./build/zynqmp/debug/bl31/platform_mp_stack.o
00000000ffff4040 l       stacks	0000000000000000 platform_normal_stacks
0000000000000006 l       *ABS*	0000000000000000 TZ_COUNT
0000000000000000 l    df *ABS*	0000000000000000 ./build/zynqmp/debug/bl31/runtime_exceptions.o
00000000ffff0800 l       .text	0000000000000000 sync_exception_sp_el0
00000000ffff0880 l       .text	0000000000000000 irq_sp_el0
00000000ffff0900 l       .text	0000000000000000 fiq_sp_el0
00000000ffff0980 l       .text	0000000000000000 serror_sp_el0
00000000ffff0a00 l       .text	0000000000000000 sync_exception_sp_elx
00000000ffff0a80 l       .text	0000000000000000 irq_sp_elx
00000000ffff0b00 l       .text	0000000000000000 fiq_sp_elx
00000000ffff0b80 l       .text	0000000000000000 serror_sp_elx
00000000ffff0c00 l       .text	0000000000000000 sync_exception_aarch64
00000000fffef7a0 l       .text	0000000000000000 smc_handler32
00000000fffef7b8 l       .text	0000000000000000 smc_handler64
00000000ffff0c80 l       .text	0000000000000000 irq_aarch64
00000000ffff0cd8 l       .text	0000000000000000 interrupt_exit_irq_aarch64
00000000ffff0d00 l       .text	0000000000000000 fiq_aarch64
00000000ffff0d58 l       .text	0000000000000000 interrupt_exit_fiq_aarch64
00000000ffff0d80 l       .text	0000000000000000 serror_aarch64
00000000ffff0e00 l       .text	0000000000000000 sync_exception_aarch32
00000000ffff0e80 l       .text	0000000000000000 irq_aarch32
00000000ffff0ed8 l       .text	0000000000000000 interrupt_exit_irq_aarch32
00000000ffff0f00 l       .text	0000000000000000 fiq_aarch32
00000000ffff0f58 l       .text	0000000000000000 interrupt_exit_fiq_aarch32
00000000ffff0f80 l       .text	0000000000000000 serror_aarch32
00000000fffef7a0 l     F .text	00000000000000b8 smc_handler
00000000fffef844 l       .text	0000000000000000 smc_prohibited
00000000fffef83c l       .text	0000000000000000 smc_unknown
00000000fffef850 l       .text	0000000000000000 rt_svc_fw_critical_error
0000000000000000 l    df *ABS*	0000000000000000 ./build/zynqmp/debug/bl31/crash_reporting.o
00000000ffff36fa l       .rodata	0000000000000000 gicc_regs
00000000ffff371c l       .rodata	0000000000000000 icc_regs
00000000ffff3748 l       .rodata	0000000000000000 gicd_pend_reg
00000000ffff3785 l       .rodata	0000000000000000 newline
00000000ffff3787 l       .rodata	0000000000000000 spacer
00000000ffff378d l       .rodata	0000000000000000 cci_iface_regs
00000000ffff37be l       .rodata	0000000000000000 print_spacer
00000000ffff37c5 l       .rodata	0000000000000000 gp_regs
00000000ffff3834 l       .rodata	0000000000000000 el3_sys_regs
00000000ffff3891 l       .rodata	0000000000000000 non_el3_sys_regs
00000000ffff39ff l       .rodata	0000000000000000 panic_msg
00000000ffff3a18 l       .rodata	0000000000000000 excpt_msg
00000000ffff3a3e l       .rodata	0000000000000000 intr_excpt_msg
00000000fffef858 l     F .text	0000000000000008 print_newline
00000000fffef860 l     F .text	000000000000004c size_controlled_print
00000000fffef868 l       .text	0000000000000000 test_size_list
00000000fffef8a4 l       .text	0000000000000000 exit_size_print
00000000fffef8ac l     F .text	0000000000000018 str_in_crash_buf_print
00000000fffef940 l     F .text	0000000000000204 do_crash_reporting
00000000fffefb44 l     F .text	0000000000000004 crash_panic
00000000fffefad4 l       .text	0000000000000000 print_gicv2
00000000fffefae8 l       .text	0000000000000000 print_gic_common
00000000fffefaf4 l       .text	0000000000000000 gicd_ispendr_loop
00000000fffefb20 l       .text	0000000000000000 exit_print_gic_regs
0000000000000000 l    df *ABS*	0000000000000000 ./build/zynqmp/debug/bl31/cpu_data.o
0000000000000000 l    df *ABS*	0000000000000000 ./build/zynqmp/debug/bl31/cpu_helpers.o
0000000000000000 l       *ABS*	0000000000000000 CPU_MIDR
0000000000000008 l       *ABS*	0000000000000000 CPU_RESET_FUNC
0000000000000010 l       *ABS*	0000000000000000 CPU_PWR_DWN_CORE
0000000000000018 l       *ABS*	0000000000000000 CPU_PWR_DWN_CLUSTER
0000000000000020 l       *ABS*	0000000000000000 CPU_REG_DUMP
0000000000000028 l       *ABS*	0000000000000000 CPU_OPS_SIZE
00000000fffefc70 l       .text	0000000000000000 error_exit
0000000000000000 l    df *ABS*	0000000000000000 ./build/zynqmp/debug/bl31/spinlock.o
00000000fffefc7c l       .text	0000000000000000 l1
00000000fffefc80 l       .text	0000000000000000 l2
0000000000000000 l    df *ABS*	0000000000000000 ./build/zynqmp/debug/bl31/psci_helpers.o
00000000fffefcb4 l       .text	0000000000000000 do_core_pwr_dwn
00000000fffefcb8 l       .text	0000000000000000 do_stack_maintenance
0000000000000000 l    df *ABS*	0000000000000000 ./build/zynqmp/debug/bl31/context.o
0000000000000000 l    df *ABS*	0000000000000000 ./build/zynqmp/debug/bl31/debug.o
00000000ffff3a8d l       .rodata	0000000000000000 assert_msg1
00000000ffff3a9b l       .rodata	0000000000000000 assert_msg2
00000000fffefee8 l       .text	0000000000000000 _assert_loop
00000000fffefed0 l       .text	0000000000000000 dec_print_loop
00000000ffff3aa2 l       .rodata	0000000000000000 panic_msg
00000000fffeff4c l       .text	0000000000000000 panic_common
00000000fffeff6c l       .text	0000000000000000 _panic_handler
0000000000000000 l    df *ABS*	0000000000000000 ./build/zynqmp/debug/bl31/cache_helpers.o
00000000fffeff90 l       .text	0000000000000000 loop_civac
00000000fffeffc4 l       .text	0000000000000000 loop_cvac
00000000fffefff8 l       .text	0000000000000000 loop_ivac
00000000ffff0010 l     F .text	000000000000007c do_dcsw_op
00000000ffff0088 l       .text	0000000000000000 exit
00000000ffff008c l       .text	0000000000000000 dcsw_loop_table
00000000ffff0024 l       .text	0000000000000000 loop1
00000000ffff0070 l       .text	0000000000000000 level_done
00000000ffff008c l       .text	0000000000000000 loop2_isw
00000000ffff0090 l       .text	0000000000000000 loop3_isw
00000000ffff00ac l       .text	0000000000000000 loop2_cisw
00000000ffff00b0 l       .text	0000000000000000 loop3_cisw
00000000ffff00cc l       .text	0000000000000000 loop2_csw
00000000ffff00d0 l       .text	0000000000000000 loop3_csw
0000000000000000 l    df *ABS*	0000000000000000 ./build/zynqmp/debug/bl31/misc_helpers.o
00000000ffff014c l       .text	0000000000000000 z_loop16
00000000ffff0160 l       .text	0000000000000000 z_loop1
00000000ffff0170 l       .text	0000000000000000 z_end
0000000000000000 l    df *ABS*	0000000000000000 ./build/zynqmp/debug/bl31/platform_helpers.o
0000000000000000 l    df *ABS*	0000000000000000 ./build/zynqmp/debug/bl31/console.o
00000000ffff4018 l       .data	0000000000000000 console_base
00000000ffff0194 l       .text	0000000000000000 init_fail
0000000000000000 l    df *ABS*	0000000000000000 ./build/zynqmp/debug/bl31/arm_helpers.o
0000000000000000 l    df *ABS*	0000000000000000 ./build/zynqmp/debug/bl31/zynqmp_helpers.o
0000000000000000 l    df *ABS*	0000000000000000 ./build/zynqmp/debug/bl31/cdns_console.o
00000000ffff0238 l       .text	0000000000000000 core_init_fail
00000000ffff026c l       .text	0000000000000000 putc_error
0000000000000000 l    df *ABS*	0000000000000000 
0000000000000000 l    df *ABS*	0000000000000000 cpu_data_array.c
0000000000000000 l    df *ABS*	0000000000000000 
0000000000000000 l       *UND*	0000000000000000 io_size
0000000000000000 l     O *UND*	0000000000000000 cpu_ops_cortex_a53
0000000000000000 l     O *UND*	0000000000000000 cpu_ops_aem_generic
0000000000000000 l       *UND*	0000000000000000 io_close
0000000000000000 l       *UND*	0000000000000000 io_read
0000000000000000 l       *UND*	0000000000000000 io_open
0000000000000000 l       *UND*	0000000000000000 plat_get_image_source
00000000ffffc070 l       coherent_ram	0000000000000000 __COHERENT_RAM_END_UNALIGNED__
0000000000000000 l       *UND*	0000000000000000 io_dev_close
0000000000000000 l       *UND*	0000000000000000 plat_get_syscnt_freq
00000000ffffc008 g     O coherent_ram	0000000000000008 pm_client_secure_lock
00000000fffee438 g     F .text	000000000000002c putchar
00000000fffec354 g     F .text	00000000000000d8 cm_prepare_el3_exit
00000000fffef3fc  w    F .text	0000000000000034 plat_ic_get_pending_interrupt_type
00000000fffed798 g     F .text	0000000000000028 psci_migrate_info_up_cpu
00000000ffffd000 g       coherent_ram	0000000000000000 __BL31_END__
00000000fffeb88c g     F .text	0000000000000054 pm_get_proc_by_node
00000000fffed438 g     F .text	0000000000000134 psci_cpu_suspend
00000000ffffd000 g       coherent_ram	0000000000000000 __COHERENT_RAM_END__
00000000fffefb68 g     F .text	0000000000000034 reset_handler
00000000ffff1000 g     O .rodata	0000000000000014 version_string
00000000fffef13c g     F .text	00000000000000bc gicv2_secure_spis_configure
00000000fffed0c4 g     F .text	0000000000000104 psci_validate_entry_point
00000000fffedfe8 g     F .text	0000000000000038 print_entry_point_info
00000000fffebe64 g     F .text	000000000000003c cm_get_context
00000000fffefddc g     F .text	0000000000000048 save_gp_registers
00000000fffed030 g     F .text	0000000000000074 psci_release_pwr_domain_locks
00000000fffecb4c g     F .text	0000000000000050 psci_validate_power_state
00000000fffeaad0 g     F .text	0000000000000020 plat_core_pos_by_mpidr
00000000ffff4000 g       .rodata	0000000000000000 __RW_START__
00000000ffff4008 g     O .data	0000000000000008 primary_proc
00000000fffef504 g     F .text	0000000000000138 zynqmp_config_setup
00000000fffeecd8 g     F .text	0000000000000064 gicv2_cpuif_enable
00000000fffeb8e0 g     F .text	0000000000000108 pm_client_suspend
00000000fffeca58 g     F .text	00000000000000cc psci_cpu_suspend_finish
00000000fffeb578 g     F .text	0000000000000038 pm_mmio_read
00000000fffefe94 g     F .text	0000000000000058 asm_assert
00000000fffea424 g     F .text	000000000000004c bl31_plat_get_next_image_ep_info
00000000ffff0114 g     F .text	0000000000000010 dcsw_op_level1
00000000fffeff34 g     F .text	0000000000000040 do_panic
00000000fffeee10 g     F .text	00000000000000a8 gicv2_distif_init
00000000fffee3f0 g     F .text	0000000000000048 memmove
00000000ffff6050 g     O .bss	0000000000000080 rt_svc_descs_indices
00000000fffeebfc g     F .text	0000000000000014 gicd_write_isenabler
00000000fffeaa88 g     F .text	0000000000000048 plat_setup_psci_ops
00000000fffeec24 g     F .text	0000000000000014 gicd_write_ispendr
00000000fffefd1c g     F .text	000000000000000c psci_power_down_wfi
00000000fffeb328 g     F .text	000000000000004c pm_req_node
00000000fffef31c  w    F .text	000000000000000c plat_arm_get_mmap
00000000fffefce8 g     F .text	0000000000000034 psci_do_pwrup_cache_maintenance
00000000fffed688 g     F .text	0000000000000038 psci_affinity_info
00000000fffed6c0 g     F .text	00000000000000c0 psci_migrate
00000000ffff3640 g     O .rodata	0000000000000080 plat_arm_mmap
00000000fffeaaf0 g     F .text	0000000000000208 fsbl_atf_handover
00000000fffef4f0 g     F .text	0000000000000014 zynqmp_get_bootmode
00000000ffff1018 g     O .rodata	000000000000001e build_message
00000000fffefe70 g     F .text	0000000000000024 el3_exit
00000000fffeda34 g     F .text	0000000000000344 psci_setup
00000000fffee984 g     F .text	00000000000000cc init_xlat_tables
00000000fffea5d4 g     F .text	000000000000002c bl31_plat_runtime_setup
00000000ffff4000 g       .data	0000000000000000 __DATA_START__
00000000ffffc010 g     O coherent_ram	0000000000000020 psci_locks
00000000ffff0178  w    F .text	0000000000000004 plat_disable_acp
00000000fffeb244 g     F .text	0000000000000048 pm_force_powerdown
00000000fffeceec g     F .text	0000000000000024 psci_find_target_suspend_lvl
00000000fffeeca0 g     F .text	000000000000000c gicd_set_isenabler
00000000fffefe30 g     F .text	0000000000000040 restore_gp_registers_callee_eret
00000000fffeda18 g     F .text	000000000000001c psci_arch_setup
00000000fffedde0 g     F .text	0000000000000068 psci_system_reset
00000000fffef0a0 g     F .text	000000000000009c gicv2_spis_configure_defaults
00000000ffffc000 g     O coherent_ram	0000000000000008 pm_secure_lock
00000000fffeecc4 g     F .text	0000000000000014 gicd_set_ipriorityr
00000000fffee3d0 g     F .text	0000000000000020 memcpy
00000000fffed0a4 g     F .text	0000000000000020 psci_validate_mpidr
00000000fffed56c g     F .text	00000000000000dc psci_system_suspend
00000000fffec2fc g     F .text	000000000000002c cm_init_context_by_index
00000000fffeb868 g     F .text	0000000000000024 pm_get_proc
00000000fffeccf8 g     F .text	0000000000000048 psci_get_parent_pwr_domain_nodes
00000000ffff0240 g     F .text	0000000000000034 console_core_putc
00000000fffeb1c0 g     F .text	0000000000000084 pm_req_wakeup
00000000fffeefd8 g     F .text	000000000000005c gicv2_get_pending_interrupt_type
00000000fffedd78 g     F .text	0000000000000068 psci_system_off
00000000ffff01dc g     F .text	0000000000000004 platform_mem_init
00000000fffeec10 g     F .text	0000000000000014 gicd_write_icenabler
00000000fffeb174 g     F .text	000000000000004c pm_req_suspend
00000000fffeb47c g     F .text	0000000000000030 pm_register_notifier
00000000fffee8fc g     F .text	0000000000000038 mmap_add
00000000fffea0f8 g     F .text	0000000000000070 bl31_warm_entrypoint
00000000fffef63c g     F .text	0000000000000058 plat_get_syscnt_freq2
00000000ffff017c  w    F .text	0000000000000008 plat_panic_handler
00000000ffff3ad0 g       .rodata	0000000000000000 __RT_SVC_DESCS_START__
00000000fffea168 g     F .text	00000000000000d8 cci_init
00000000fffef300  w    F .text	000000000000000c plat_arm_interconnect_exit_coherency
00000000ffff5140 g       stacks	0000000000000000 __STACKS_END__
00000000fffef2f4  w    F .text	000000000000000c plat_arm_interconnect_enter_coherency
00000000fffeffa8 g     F .text	0000000000000034 clean_dcache_range
00000000fffeecac g     F .text	000000000000000c gicd_set_ispendr
00000000fffed1c8 g     F .text	00000000000000a4 psci_warmboot_entrypoint
00000000fffea680 g     F .text	0000000000000010 zynqmp_get_sys_suspend_power_state
00000000fffeb418 g     F .text	0000000000000030 pm_get_api_version
00000000fffef790  w    F .text	0000000000000010 plat_set_my_stack
00000000fffebeec g     F .text	0000000000000050 cm_set_context_by_index
00000000ffff3b10 g       .rodata	0000000000000000 __RT_SVC_DESCS_END__
00000000fffef430  w    F .text	0000000000000050 plat_interrupt_type_to_line
00000000fffeb708 g     F .text	0000000000000060 pm_ipi_init
00000000fffeff04 g     F .text	0000000000000030 asm_print_hex
00000000fffea600 g     F .text	000000000000006c bl31_plat_arch_setup
00000000fffebb9c g     F .text	000000000000007c bl31_main
00000000fffef1f8 g     F .text	00000000000000e8 gicv2_secure_ppi_sgi_setup
00000000fffee6a8 g     F .text	0000000000000004 print_mmap
00000000ffff6300 g     O .bss	0000000000000040 psci_cpu_pd_nodes
0000000000001214 g       *ABS*	0000000000000000 __BSS_SIZE__
00000000fffefeec g     F .text	0000000000000018 asm_print_str
00000000ffff021c g     F .text	0000000000000024 console_core_init
00000000fffef480  w    F .text	0000000000000004 bl31_plat_enable_mmu
00000000fffeb374 g     F .text	000000000000004c pm_set_requirement
00000000fffec2f8 g     F .text	0000000000000004 cm_init
00000000ffff0800 g       .text	0000000000000000 runtime_exceptions
00000000fffeae88 g     F .text	000000000000027c pm_smc_handler
00000000fffea678 g     F .text	0000000000000008 zynqmp_validate_ns_entrypoint
00000000fffea2dc g     F .text	000000000000009c cci_disable_snoop_dvm_reqs
00000000ffff0184 g     F .text	0000000000000014 console_init
00000000fffed26c g     F .text	000000000000005c psci_spd_migrate_info
00000000fffefb5c g     F .text	000000000000000c _cpu_data_by_index
00000000fffed2c8 g     F .text	0000000000000114 psci_print_power_domain_map
00000000fffea378 g     F .text	0000000000000058 plat_get_target_pwr_state
00000000ffff0198 g     F .text	000000000000000c console_putc
00000000ffff01e0 g     F .text	000000000000001c plat_secondary_cold_boot_setup
00000000fffeec5c g     F .text	0000000000000014 gicd_write_icfgr
00000000fffecbd8 g     F .text	0000000000000084 psci_is_last_on_cpu
00000000ffff01bc g     F .text	0000000000000018 plat_crash_console_init
00000000fffeff74 g     F .text	0000000000000034 flush_dcache_range
00000000fffea240 g     F .text	000000000000009c cci_enable_snoop_dvm_reqs
00000000fffeeb0c g     F .text	0000000000000054 timer_init
00000000fffeb104 g     F .text	0000000000000070 pm_self_suspend
00000000fffebcfc g     F .text	00000000000000b0 set_routing_model
00000000fffef8c4 g     F .text	0000000000000028 report_unhandled_exception
00000000fffec810 g     F .text	00000000000000d0 psci_cpu_on_finish
00000000ffff0100 g     F .text	0000000000000014 dcsw_op_all
00000000fffed648 g     F .text	0000000000000040 psci_cpu_off
00000000ffff0174  w    F .text	0000000000000004 plat_reset_handler
00000000fffefc38 g     F .text	000000000000003c get_cpu_ops_ptr
00000000fffea000 g     F .text	00000000000000d4 bl31_entrypoint
00000000fffebea0 g     F .text	000000000000004c cm_get_context_by_index
00000000fffec328 g     F .text	000000000000002c cm_init_my_context
00000000fffef2e0  w    F .text	0000000000000014 plat_arm_interconnect_init
00000000fffefb48 g     F .text	0000000000000014 init_cpu_data_ptr
00000000ffff4000 g       .rodata	0000000000000000 __RODATA_END__
00000000fffeb4ac g     F .text	0000000000000030 pm_get_op_characteristic
00000000fffeb5e0 g     F .text	0000000000000030 pm_fpga_get_status
00000000fffeed3c g     F .text	0000000000000064 gicv2_cpuif_disable
00000000fffef4e4 g     F .text	000000000000000c zynqmp_is_pmu_up
00000000fffeef7c g     F .text	000000000000005c gicv2_is_fiq_enabled
00000000fffeba38 g     F .text	000000000000005c pm_client_wakeup
00000000fffeb4dc g     F .text	000000000000002c pm_reset_assert
00000000fffec4c4 g     F .text	0000000000000124 psci_do_cpu_off
00000000ffff6350 g     O .bss	0000000000000004 psci_caps
00000000fffeecb8 g     F .text	000000000000000c gicd_set_isactiver
00000000fffef30c  w    F .text	0000000000000008 plat_get_ns_image_entrypoint
00000000fffefc18 g     F .text	0000000000000020 do_cpu_reg_dump
00000000ffff1000 g       .rodata	0000000000000000 __RODATA_START__
00000000ffff4020 g       .data	0000000000000000 __DATA_END__
00000000fffeb7bc g     F .text	00000000000000ac pm_ipi_send_sync
00000000fffeae1c g     F .text	000000000000006c pm_setup
00000000fffef3c8  w    F .text	0000000000000018 plat_arm_gic_init
00000000ffff3b10 g       .rodata	0000000000000000 __CPU_OPS_START__
00000000fffeffdc g     F .text	0000000000000034 inv_dcache_range
00000000fffefe24 g     F .text	000000000000000c restore_gp_registers_eret
00000000fffed8c0 g     F .text	0000000000000158 psci_smc_handler
00000000fffeeb8c g     F .text	0000000000000048 generic_delay_timer_init
00000000fffeb540 g     F .text	0000000000000038 pm_mmio_write
00000000fffec8e0 g     F .text	0000000000000178 psci_cpu_suspend_start
00000000fffecc5c g     F .text	0000000000000014 psci_init_req_local_pwr_states
00000000fffeb768 g     F .text	0000000000000054 pm_ipi_send
00000000fffeeb6c g     F .text	0000000000000020 generic_delay_timer_init_args
00000000fffec5e8 g     F .text	0000000000000228 psci_cpu_on_start
00000000fffecec0 g     F .text	000000000000002c psci_find_max_off_lvl
00000000ffff0208 g     F .text	0000000000000014 plat_is_my_cpu_primary
00000000ffffc030 g     O coherent_ram	0000000000000040 psci_non_cpu_pd_nodes
00000000ffff3b88 g       .rodata	0000000000000000 __CPU_OPS_END__
00000000ffff6354 g       .bss	0000000000000000 __BSS_END__
00000000ffff00ec g     F .text	0000000000000014 dcsw_op_louis
00000000fffeb3c0 g     F .text	000000000000002c pm_release_node
00000000fffefc9c g     F .text	000000000000004c psci_do_pwrdown_cache_maintenance
00000000fffef3bc  w    F .text	000000000000000c plat_arm_gic_driver_init
00000000fffeaa30 g     F .text	0000000000000058 zynqmp_validate_power_state
00000000fffed3dc g     F .text	000000000000005c psci_cpu_on
00000000fffee934 g     F .text	0000000000000050 init_xlation_table
00000000fffebad4 g     F .text	00000000000000c8 bl31_prepare_next_image_entry
00000000fffecf10 g     F .text	00000000000000a4 psci_validate_suspend_req
00000000ffffc000 g       coherent_ram	0000000000000000 __COHERENT_RAM_START__
00000000ffff01ac  w    F .text	0000000000000010 plat_arm_calc_core_pos
00000000fffed854 g     F .text	000000000000006c psci_features
00000000fffee3b4 g     F .text	000000000000001c memset
00000000fffeb28c g     F .text	0000000000000040 pm_abort_suspend
00000000fffec0a8 g     F .text	00000000000000b4 std_svc_smc_handler
00000000fffecc70 g     F .text	0000000000000088 psci_get_target_local_pwr_states
00000000fffec42c g     F .text	0000000000000098 cm_write_scr_el3_bit
00000000fffef034 g     F .text	000000000000006c gicv2_get_pending_interrupt_id
00000000fffea470 g     F .text	0000000000000114 bl31_early_platform_setup
0000000000000070 g       *ABS*	0000000000000000 __COHERENT_RAM_UNALIGNED_SIZE__
00000000ffff6340 g     O .bss	0000000000000008 psci_plat_pm_ops
00000000fffeb5b0 g     F .text	0000000000000030 pm_fpga_load
00000000fffeb9e8 g     F .text	0000000000000050 pm_client_abort_suspend
00000000fffeba94 g     F .text	0000000000000040 get_arm_std_svc_args
00000000fffede48 g     F .text	000000000000011c bakery_lock_get
00000000ffff1000 g       .text	0000000000000000 __TEXT_END__
00000000ffff6048 g     O .bss	0000000000000008 zynqmp_sec_entry
00000000fffedf64 g     F .text	0000000000000084 bakery_lock_release
00000000fffebe28 g     F .text	000000000000003c get_interrupt_type_handler
00000000fffeacf8 g     F .text	000000000000000c plat_get_power_domain_tree_desc
00000000fffeec4c g     F .text	0000000000000010 gicd_write_ipriorityr
00000000fffee094 g     F .text	0000000000000304 tf_printf
00000000fffea584 g     F .text	000000000000003c zynqmp_request_intr_type_el3
00000000fffed7c0 g     F .text	0000000000000094 psci_node_hw_state
00000000fffeb448 g     F .text	0000000000000008 pm_set_configuration
00000000fffeec38 g     F .text	0000000000000014 gicd_write_isactiver
00000000ffff0124 g     F .text	0000000000000010 dcsw_op_level2
00000000fffeb508 g     F .text	0000000000000038 pm_reset_get_status
00000000fffefbe4 g     F .text	0000000000000034 init_cpu_ops
00000000fffeb450 g     F .text	000000000000002c pm_get_node_status
00000000fffeebd4 g     F .text	0000000000000014 gicd_read_igroupr
00000000fffead1c g     F .text	00000000000000b0 sip_svc_smc_handler
00000000fffefc94 g     F .text	0000000000000008 spin_unlock
00000000fffef3e0  w    F .text	000000000000001c plat_ic_get_pending_interrupt_id
00000000fffefbc0 g     F .text	0000000000000024 prepare_cluster_pwr_dwn
00000000ffff5140 g       .bss	0000000000000000 __BSS_START__
00000000fffeb2cc g     F .text	0000000000000030 pm_set_wakeup_source
00000000ffff01d4 g     F .text	0000000000000008 plat_crash_console_putc
00000000ffff6100 g     O .bss	0000000000000200 percpu_data
00000000fffef314 g     F .text	0000000000000008 arm_get_spsr_for_bl32_entry
00000000fffefc74 g     F .text	0000000000000020 spin_lock
00000000fffecb9c g     F .text	000000000000003c psci_query_sys_suspend_pwrstate
00000000fffebc9c g     F .text	0000000000000060 get_scr_el3_from_routing_model
00000000ffffd000 g       coherent_ram	0000000000000000 __RW_END__
00000000fffea5c0 g     F .text	0000000000000014 bl31_platform_setup
00000000fffea66c g     F .text	000000000000000c zynqmp_cpu_standby
00000000ffff4040 g       stacks	0000000000000000 __STACKS_START__
00000000fffecdd0 g     F .text	00000000000000f0 psci_do_state_coordination
00000000fffefb9c g     F .text	0000000000000024 prepare_core_pwr_dwn
00000000fffeea50 g     F .text	00000000000000bc enable_mmu_el3
00000000ffff01a4  w    F .text	0000000000000008 plat_my_core_pos
00000000fffeeeb8 g     F .text	00000000000000c4 gicv2_driver_init
00000000ffff1710 g     O .rodata	0000000000000018 apu_ipi
00000000fffebf3c g     F .text	000000000000016c runtime_svc_init
00000000fffeb3ec g     F .text	000000000000002c pm_set_max_latency
00000000fffeeda0 g     F .text	0000000000000070 gicv2_pcpu_distif_init
00000000fffed780 g     F .text	0000000000000018 psci_migrate_info_type
00000000fffee398 g     F .text	000000000000001c __assert
00000000fffef914 g     F .text	000000000000002c el3_panic
00000000fffeec70 g     F .text	0000000000000030 gicd_clr_igroupr
00000000fffebdac g     F .text	000000000000007c register_interrupt_type_handler
00000000fffef4ac g     F .text	0000000000000038 zynqmp_get_uart_clk
00000000fffeb2fc g     F .text	000000000000002c pm_system_shutdown
00000000fffef328 g     F .text	0000000000000094 arm_setup_page_tables
00000000fffecfb4 g     F .text	000000000000007c psci_acquire_pwr_domain_locks
00000000fffeb610 g     F .text	0000000000000030 pm_get_chipid
00000000fffefd28 g     F .text	00000000000000b4 el1_sysregs_context_restore
00000000ffff0134 g     F .text	0000000000000040 zeromem16
00000000fffecd40 g     F .text	0000000000000090 psci_set_pwr_domains_to_run
00000000fffeebe8 g     F .text	0000000000000014 gicd_write_igroupr
00000000fffef8ec g     F .text	0000000000000028 report_unhandled_interrupt
00000000fffef770  w    F .text	0000000000000018 plat_get_my_stack
00000000fffee6ac g     F .text	0000000000000250 mmap_add_region
00000000fffea000 g       .text	0000000000000000 __TEXT_START__
00000000ffff6348 g     O .bss	0000000000000008 psci_spd_pm



Disassembly of section .text:

00000000fffea000 <bl31_entrypoint>:
    fffea000:	d53e1000 	mrs	x0, sctlr_el3
    fffea004:	9266f800 	and	x0, x0, #0xfffffffffdffffff
    fffea008:	d51e1000 	msr	sctlr_el3, x0
    fffea00c:	d5033fdf 	isb
    fffea010:	940016d6 	bl	fffefb68 <reset_handler>
    fffea014:	d2820141 	mov	x1, #0x100a                	// #4106
    fffea018:	d53e1000 	mrs	x0, sctlr_el3
    fffea01c:	aa010000 	orr	x0, x0, x1
    fffea020:	d51e1000 	msr	sctlr_el3, x0
    fffea024:	d5033fdf 	isb
    fffea028:	940016c8 	bl	fffefb48 <init_cpu_data_ptr>
    fffea02c:	10033ea0 	adr	x0, ffff0800 <runtime_exceptions>
    fffea030:	d51ec000 	msr	vbar_el3, x0
    fffea034:	d5033fdf 	isb
    fffea038:	d2804700 	mov	x0, #0x238                 	// #568
    fffea03c:	d51e1100 	msr	scr_el3, x0
    fffea040:	d50344ff 	msr	daifclr, #0x4
    fffea044:	d53e1140 	mrs	x0, cptr_el3
    fffea048:	12007800 	and	w0, w0, #0x7fffffff
    fffea04c:	120b7800 	and	w0, w0, #0xffefffff
    fffea050:	12157800 	and	w0, w0, #0xfffffbff
    fffea054:	d51e1140 	msr	cptr_el3, x0
    fffea058:	9400186c 	bl	ffff0208 <plat_is_my_cpu_primary>
    fffea05c:	35000060 	cbnz	w0, fffea068 <do_primary_cold_boot>
    fffea060:	94001860 	bl	ffff01e0 <plat_secondary_cold_boot_setup>
    fffea064:	9400162c 	bl	fffef914 <el3_panic>

00000000fffea068 <do_primary_cold_boot>:
    fffea068:	9400185d 	bl	ffff01dc <platform_mem_init>
    fffea06c:	1004fca0 	adr	x0, ffff4000 <__RODATA_END__>
    fffea070:	10097c81 	adr	x1, ffffd000 <__BL31_END__>
    fffea074:	cb000021 	sub	x1, x1, x0
    fffea078:	940017d9 	bl	fffeffdc <inv_dcache_range>
    fffea07c:	580002e0 	ldr	x0, fffea0d8 <do_primary_cold_boot+0x70>
    fffea080:	58000301 	ldr	x1, fffea0e0 <do_primary_cold_boot+0x78>
    fffea084:	9400182c 	bl	ffff0134 <zeromem16>
    fffea088:	58000300 	ldr	x0, fffea0e8 <do_primary_cold_boot+0x80>
    fffea08c:	58000321 	ldr	x1, fffea0f0 <do_primary_cold_boot+0x88>
    fffea090:	94001829 	bl	ffff0134 <zeromem16>
    fffea094:	d50040bf 	msr	spsel, #0x0
    fffea098:	940015be 	bl	fffef790 <plat_set_my_stack>
    fffea09c:	d2800000 	mov	x0, #0x0                   	// #0
    fffea0a0:	d2800001 	mov	x1, #0x0                   	// #0
    fffea0a4:	940000f3 	bl	fffea470 <bl31_early_platform_setup>
    fffea0a8:	94000156 	bl	fffea600 <bl31_plat_arch_setup>
    fffea0ac:	940006bc 	bl	fffebb9c <bl31_main>
    fffea0b0:	1004fa80 	adr	x0, ffff4000 <__RODATA_END__>
    fffea0b4:	1004fb61 	adr	x1, ffff4020 <__DATA_END__>
    fffea0b8:	cb000021 	sub	x1, x1, x0
    fffea0bc:	940017bb 	bl	fffeffa8 <clean_dcache_range>
    fffea0c0:	10058400 	adr	x0, ffff5140 <__STACKS_END__>
    fffea0c4:	10061481 	adr	x1, ffff6354 <__BSS_END__>
    fffea0c8:	cb000021 	sub	x1, x1, x0
    fffea0cc:	940017b7 	bl	fffeffa8 <clean_dcache_range>
    fffea0d0:	14001768 	b	fffefe70 <el3_exit>
    fffea0d4:	00000000 	.word	0x00000000
    fffea0d8:	ffff5140 	.word	0xffff5140
    fffea0dc:	00000000 	.word	0x00000000
    fffea0e0:	00001214 	.word	0x00001214
    fffea0e4:	00000000 	.word	0x00000000
    fffea0e8:	ffffc000 	.word	0xffffc000
    fffea0ec:	00000000 	.word	0x00000000
    fffea0f0:	00000070 	.word	0x00000070
    fffea0f4:	00000000 	.word	0x00000000

00000000fffea0f8 <bl31_warm_entrypoint>:
    fffea0f8:	d53e1000 	mrs	x0, sctlr_el3
    fffea0fc:	9266f800 	and	x0, x0, #0xfffffffffdffffff
    fffea100:	d51e1000 	msr	sctlr_el3, x0
    fffea104:	d5033fdf 	isb
    fffea108:	94001698 	bl	fffefb68 <reset_handler>
    fffea10c:	d2820141 	mov	x1, #0x100a                	// #4106
    fffea110:	d53e1000 	mrs	x0, sctlr_el3
    fffea114:	aa010000 	orr	x0, x0, x1
    fffea118:	d51e1000 	msr	sctlr_el3, x0
    fffea11c:	d5033fdf 	isb
    fffea120:	9400168a 	bl	fffefb48 <init_cpu_data_ptr>
    fffea124:	100336e0 	adr	x0, ffff0800 <runtime_exceptions>
    fffea128:	d51ec000 	msr	vbar_el3, x0
    fffea12c:	d5033fdf 	isb
    fffea130:	d2804700 	mov	x0, #0x238                 	// #568
    fffea134:	d51e1100 	msr	scr_el3, x0
    fffea138:	d50344ff 	msr	daifclr, #0x4
    fffea13c:	d53e1140 	mrs	x0, cptr_el3
    fffea140:	12007800 	and	w0, w0, #0x7fffffff
    fffea144:	120b7800 	and	w0, w0, #0xffefffff
    fffea148:	12157800 	and	w0, w0, #0xfffffbff
    fffea14c:	d51e1140 	msr	cptr_el3, x0
    fffea150:	d50040bf 	msr	spsel, #0x0
    fffea154:	9400158f 	bl	fffef790 <plat_set_my_stack>
    fffea158:	d2800020 	mov	x0, #0x1                   	// #1
    fffea15c:	940014c9 	bl	fffef480 <bl31_plat_enable_mmu>
    fffea160:	94000c1a 	bl	fffed1c8 <psci_warmboot_entrypoint>
    fffea164:	14001743 	b	fffefe70 <el3_exit>

00000000fffea168 <cci_init>:
    fffea168:	a9bf7bfd 	stp	x29, x30, [sp,#-16]!
    fffea16c:	910003fd 	mov	x29, sp
    fffea170:	b50000a1 	cbnz	x1, fffea184 <cci_init+0x1c>
    fffea174:	f0000023 	adrp	x3, ffff1000 <__TEXT_END__>
    fffea178:	52800a42 	mov	w2, #0x52                  	// #82
    fffea17c:	91016063 	add	x3, x3, #0x58
    fffea180:	14000005 	b	fffea194 <cci_init+0x2c>
    fffea184:	b5000120 	cbnz	x0, fffea1a8 <cci_init+0x40>
    fffea188:	f0000023 	adrp	x3, ffff1000 <__TEXT_END__>
    fffea18c:	52800a62 	mov	w2, #0x53                  	// #83
    fffea190:	91043c63 	add	x3, x3, #0x10f
    fffea194:	f0000021 	adrp	x1, ffff1000 <__TEXT_END__>
    fffea198:	f0000020 	adrp	x0, ffff1000 <__TEXT_END__>
    fffea19c:	91017021 	add	x1, x1, #0x5c
    fffea1a0:	9105e000 	add	x0, x0, #0x178
    fffea1a4:	9400107d 	bl	fffee398 <__assert>
    fffea1a8:	f0000043 	adrp	x3, ffff5000 <__STACKS_START__+0xfc0>
    fffea1ac:	51000442 	sub	w2, w2, #0x1
    fffea1b0:	d2800004 	mov	x4, #0x0                   	// #0
    fffea1b4:	52800025 	mov	w5, #0x1                   	// #1
    fffea1b8:	f900a460 	str	x0, [x3,#328]
    fffea1bc:	f0000040 	adrp	x0, ffff5000 <__STACKS_START__+0xfc0>
    fffea1c0:	52800003 	mov	w3, #0x0                   	// #0
    fffea1c4:	b9014002 	str	w2, [x0,#320]
    fffea1c8:	6b04005f 	cmp	w2, w4
    fffea1cc:	54000223 	b.cc	fffea210 <cci_init+0xa8>
    fffea1d0:	b8647820 	ldr	w0, [x1,x4,lsl #2]
    fffea1d4:	37f801a0 	tbnz	w0, #31, fffea208 <cci_init+0xa0>
    fffea1d8:	7100101f 	cmp	w0, #0x4
    fffea1dc:	5400008d 	b.le	fffea1ec <cci_init+0x84>
    fffea1e0:	f0000020 	adrp	x0, ffff1000 <__TEXT_END__>
    fffea1e4:	9101c800 	add	x0, x0, #0x72
    fffea1e8:	1400000d 	b	fffea21c <cci_init+0xb4>
    fffea1ec:	1ac020a0 	lsl	w0, w5, w0
    fffea1f0:	6a03001f 	tst	w0, w3
    fffea1f4:	54000080 	b.eq	fffea204 <cci_init+0x9c>
    fffea1f8:	f0000020 	adrp	x0, ffff1000 <__TEXT_END__>
    fffea1fc:	91024400 	add	x0, x0, #0x91
    fffea200:	14000007 	b	fffea21c <cci_init+0xb4>
    fffea204:	2a000063 	orr	w3, w3, w0
    fffea208:	91000484 	add	x4, x4, #0x1
    fffea20c:	17ffffef 	b	fffea1c8 <cci_init+0x60>
    fffea210:	35000103 	cbnz	w3, fffea230 <cci_init+0xc8>
    fffea214:	f0000020 	adrp	x0, ffff1000 <__TEXT_END__>
    fffea218:	91032000 	add	x0, x0, #0xc8
    fffea21c:	94000f9e 	bl	fffee094 <tf_printf>
    fffea220:	f0000023 	adrp	x3, ffff1000 <__TEXT_END__>
    fffea224:	52800ba2 	mov	w2, #0x5d                  	// #93
    fffea228:	9103dc63 	add	x3, x3, #0xf7
    fffea22c:	17ffffda 	b	fffea194 <cci_init+0x2c>
    fffea230:	f0000040 	adrp	x0, ffff5000 <__STACKS_START__+0xfc0>
    fffea234:	a8c17bfd 	ldp	x29, x30, [sp],#16
    fffea238:	f900a801 	str	x1, [x0,#336]
    fffea23c:	d65f03c0 	ret

00000000fffea240 <cci_enable_snoop_dvm_reqs>:
    fffea240:	f0000041 	adrp	x1, ffff5000 <__STACKS_START__+0xfc0>
    fffea244:	a9bf7bfd 	stp	x29, x30, [sp,#-16]!
    fffea248:	910003fd 	mov	x29, sp
    fffea24c:	f940a421 	ldr	x1, [x1,#328]
    fffea250:	b50000a1 	cbnz	x1, fffea264 <cci_enable_snoop_dvm_reqs+0x24>
    fffea254:	f0000023 	adrp	x3, ffff1000 <__TEXT_END__>
    fffea258:	52800ca2 	mov	w2, #0x65                  	// #101
    fffea25c:	91043463 	add	x3, x3, #0x10d
    fffea260:	14000008 	b	fffea280 <cci_enable_snoop_dvm_reqs+0x40>
    fffea264:	f0000042 	adrp	x2, ffff5000 <__STACKS_START__+0xfc0>
    fffea268:	b9414042 	ldr	w2, [x2,#320]
    fffea26c:	6b00005f 	cmp	w2, w0
    fffea270:	54000122 	b.cs	fffea294 <cci_enable_snoop_dvm_reqs+0x54>
    fffea274:	f0000023 	adrp	x3, ffff1000 <__TEXT_END__>
    fffea278:	52800cc2 	mov	w2, #0x66                  	// #102
    fffea27c:	91046063 	add	x3, x3, #0x118
    fffea280:	f0000021 	adrp	x1, ffff1000 <__TEXT_END__>
    fffea284:	f0000020 	adrp	x0, ffff1000 <__TEXT_END__>
    fffea288:	91017021 	add	x1, x1, #0x5c
    fffea28c:	91062000 	add	x0, x0, #0x188
    fffea290:	94001042 	bl	fffee398 <__assert>
    fffea294:	f0000042 	adrp	x2, ffff5000 <__STACKS_START__+0xfc0>
    fffea298:	f940a842 	ldr	x2, [x2,#336]
    fffea29c:	b8605840 	ldr	w0, [x2,w0,uxtw #2]
    fffea2a0:	7100101f 	cmp	w0, #0x4
    fffea2a4:	540000a9 	b.ls	fffea2b8 <cci_enable_snoop_dvm_reqs+0x78>
    fffea2a8:	f0000023 	adrp	x3, ffff1000 <__TEXT_END__>
    fffea2ac:	52800d22 	mov	w2, #0x69                  	// #105
    fffea2b0:	9104d463 	add	x3, x3, #0x135
    fffea2b4:	17fffff3 	b	fffea280 <cci_enable_snoop_dvm_reqs+0x40>
    fffea2b8:	11000400 	add	w0, w0, #0x1
    fffea2bc:	52800062 	mov	w2, #0x3                   	// #3
    fffea2c0:	53144c00 	lsl	w0, w0, #12
    fffea2c4:	93407c00 	sxtw	x0, w0
    fffea2c8:	b8216802 	str	w2, [x0,x1]
    fffea2cc:	b9400c20 	ldr	w0, [x1,#12]
    fffea2d0:	3707ffe0 	tbnz	w0, #0, fffea2cc <cci_enable_snoop_dvm_reqs+0x8c>
    fffea2d4:	a8c17bfd 	ldp	x29, x30, [sp],#16
    fffea2d8:	d65f03c0 	ret

00000000fffea2dc <cci_disable_snoop_dvm_reqs>:
    fffea2dc:	f0000041 	adrp	x1, ffff5000 <__STACKS_START__+0xfc0>
    fffea2e0:	a9bf7bfd 	stp	x29, x30, [sp,#-16]!
    fffea2e4:	910003fd 	mov	x29, sp
    fffea2e8:	f940a421 	ldr	x1, [x1,#328]
    fffea2ec:	b50000a1 	cbnz	x1, fffea300 <cci_disable_snoop_dvm_reqs+0x24>
    fffea2f0:	f0000023 	adrp	x3, ffff1000 <__TEXT_END__>
    fffea2f4:	52800f82 	mov	w2, #0x7c                  	// #124
    fffea2f8:	91043463 	add	x3, x3, #0x10d
    fffea2fc:	14000008 	b	fffea31c <cci_disable_snoop_dvm_reqs+0x40>
    fffea300:	f0000042 	adrp	x2, ffff5000 <__STACKS_START__+0xfc0>
    fffea304:	b9414042 	ldr	w2, [x2,#320]
    fffea308:	6b00005f 	cmp	w2, w0
    fffea30c:	54000122 	b.cs	fffea330 <cci_disable_snoop_dvm_reqs+0x54>
    fffea310:	f0000023 	adrp	x3, ffff1000 <__TEXT_END__>
    fffea314:	52800fa2 	mov	w2, #0x7d                  	// #125
    fffea318:	91046063 	add	x3, x3, #0x118
    fffea31c:	f0000021 	adrp	x1, ffff1000 <__TEXT_END__>
    fffea320:	f0000020 	adrp	x0, ffff1000 <__TEXT_END__>
    fffea324:	91017021 	add	x1, x1, #0x5c
    fffea328:	9100e000 	add	x0, x0, #0x38
    fffea32c:	9400101b 	bl	fffee398 <__assert>
    fffea330:	f0000042 	adrp	x2, ffff5000 <__STACKS_START__+0xfc0>
    fffea334:	f940a842 	ldr	x2, [x2,#336]
    fffea338:	b8605840 	ldr	w0, [x2,w0,uxtw #2]
    fffea33c:	7100101f 	cmp	w0, #0x4
    fffea340:	540000a9 	b.ls	fffea354 <cci_disable_snoop_dvm_reqs+0x78>
    fffea344:	f0000023 	adrp	x3, ffff1000 <__TEXT_END__>
    fffea348:	52801002 	mov	w2, #0x80                  	// #128
    fffea34c:	9104d463 	add	x3, x3, #0x135
    fffea350:	17fffff3 	b	fffea31c <cci_disable_snoop_dvm_reqs+0x40>
    fffea354:	11000400 	add	w0, w0, #0x1
    fffea358:	12800062 	mov	w2, #0xfffffffc            	// #-4
    fffea35c:	53144c00 	lsl	w0, w0, #12
    fffea360:	93407c00 	sxtw	x0, w0
    fffea364:	b8216802 	str	w2, [x0,x1]
    fffea368:	b9400c20 	ldr	w0, [x1,#12]
    fffea36c:	3707ffe0 	tbnz	w0, #0, fffea368 <cci_disable_snoop_dvm_reqs+0x8c>
    fffea370:	a8c17bfd 	ldp	x29, x30, [sp],#16
    fffea374:	d65f03c0 	ret

00000000fffea378 <plat_get_target_pwr_state>:
    fffea378:	35000162 	cbnz	w2, fffea3a4 <plat_get_target_pwr_state+0x2c>
    fffea37c:	a9bf7bfd 	stp	x29, x30, [sp,#-16]!
    fffea380:	f0000023 	adrp	x3, ffff1000 <__TEXT_END__>
    fffea384:	f0000021 	adrp	x1, ffff1000 <__TEXT_END__>
    fffea388:	f0000020 	adrp	x0, ffff1000 <__TEXT_END__>
    fffea38c:	910003fd 	mov	x29, sp
    fffea390:	91072063 	add	x3, x3, #0x1c8
    fffea394:	528006c2 	mov	w2, #0x36                  	// #54
    fffea398:	91073421 	add	x1, x1, #0x1cd
    fffea39c:	9106a000 	add	x0, x0, #0x1a8
    fffea3a0:	94000ffe 	bl	fffee398 <__assert>
    fffea3a4:	51000442 	sub	w2, w2, #0x1
    fffea3a8:	52800040 	mov	w0, #0x2                   	// #2
    fffea3ac:	91000442 	add	x2, x2, #0x1
    fffea3b0:	8b020022 	add	x2, x1, x2
    fffea3b4:	38401423 	ldrb	w3, [x1],#1
    fffea3b8:	6b00007f 	cmp	w3, w0
    fffea3bc:	1a803060 	csel	w0, w3, w0, cc
    fffea3c0:	eb02003f 	cmp	x1, x2
    fffea3c4:	53001c00 	uxtb	w0, w0
    fffea3c8:	54ffff61 	b.ne	fffea3b4 <plat_get_target_pwr_state+0x3c>
    fffea3cc:	d65f03c0 	ret

00000000fffea3d0 <zynqmp_el3_interrupt_handler>:
    fffea3d0:	a9bd7bfd 	stp	x29, x30, [sp,#-48]!
    fffea3d4:	910003fd 	mov	x29, sp
    fffea3d8:	a90153f3 	stp	x19, x20, [sp,#16]
    fffea3dc:	f90013f5 	str	x21, [sp,#32]
    fffea3e0:	2a0103f3 	mov	w19, w1
    fffea3e4:	aa0203f4 	mov	x20, x2
    fffea3e8:	aa0303f5 	mov	x21, x3
    fffea3ec:	940013fd 	bl	fffef3e0 <plat_ic_get_pending_interrupt_id>
    fffea3f0:	f0000044 	adrp	x4, ffff5000 <__STACKS_START__+0xfc0>
    fffea3f4:	91082084 	add	x4, x4, #0x208
    fffea3f8:	f8605884 	ldr	x4, [x4,w0,uxtw #3]
    fffea3fc:	b40000a4 	cbz	x4, fffea410 <zynqmp_el3_interrupt_handler+0x40>
    fffea400:	aa1503e3 	mov	x3, x21
    fffea404:	aa1403e2 	mov	x2, x20
    fffea408:	2a1303e1 	mov	w1, w19
    fffea40c:	d63f0080 	blr	x4
    fffea410:	d2800000 	mov	x0, #0x0                   	// #0
    fffea414:	f94013f5 	ldr	x21, [sp,#32]
    fffea418:	a94153f3 	ldp	x19, x20, [sp,#16]
    fffea41c:	a8c37bfd 	ldp	x29, x30, [sp],#48
    fffea420:	d65f03c0 	ret

00000000fffea424 <bl31_plat_get_next_image_ep_info>:
    fffea424:	7100041f 	cmp	w0, #0x1
    fffea428:	54000169 	b.ls	fffea454 <bl31_plat_get_next_image_ep_info+0x30>
    fffea42c:	a9bf7bfd 	stp	x29, x30, [sp,#-16]!
    fffea430:	f0000023 	adrp	x3, ffff1000 <__TEXT_END__>
    fffea434:	f0000021 	adrp	x1, ffff1000 <__TEXT_END__>
    fffea438:	f0000020 	adrp	x0, ffff1000 <__TEXT_END__>
    fffea43c:	910003fd 	mov	x29, sp
    fffea440:	91084063 	add	x3, x3, #0x210
    fffea444:	52800802 	mov	w2, #0x40                  	// #64
    fffea448:	9108a421 	add	x1, x1, #0x229
    fffea44c:	910b0000 	add	x0, x0, #0x2c0
    fffea450:	94000fd2 	bl	fffee398 <__assert>
    fffea454:	54000080 	b.eq	fffea464 <bl31_plat_get_next_image_ep_info+0x40>
    fffea458:	f0000040 	adrp	x0, ffff5000 <__STACKS_START__+0xfc0>
    fffea45c:	91056000 	add	x0, x0, #0x158
    fffea460:	d65f03c0 	ret
    fffea464:	f0000040 	adrp	x0, ffff5000 <__STACKS_START__+0xfc0>
    fffea468:	9106c000 	add	x0, x0, #0x1b0
    fffea46c:	d65f03c0 	ret

00000000fffea470 <bl31_early_platform_setup>:
    fffea470:	a9bd7bfd 	stp	x29, x30, [sp,#-48]!
    fffea474:	910003fd 	mov	x29, sp
    fffea478:	a90153f3 	stp	x19, x20, [sp,#16]
    fffea47c:	a9025bf5 	stp	x21, x22, [sp,#32]
    fffea480:	aa0003f4 	mov	x20, x0
    fffea484:	aa0103f3 	mov	x19, x1
    fffea488:	94001409 	bl	fffef4ac <zynqmp_get_uart_clk>
    fffea48c:	2a0003e1 	mov	w1, w0
    fffea490:	52984002 	mov	w2, #0xc200                	// #49664
    fffea494:	d2bfe000 	mov	x0, #0xff000000            	// #4278190080
    fffea498:	72a00022 	movk	w2, #0x1, lsl #16
    fffea49c:	9400173a 	bl	ffff0184 <console_init>
    fffea4a0:	94001419 	bl	fffef504 <zynqmp_config_setup>
    fffea4a4:	b40000b4 	cbz	x20, fffea4b8 <bl31_early_platform_setup+0x48>
    fffea4a8:	f0000023 	adrp	x3, ffff1000 <__TEXT_END__>
    fffea4ac:	52800b22 	mov	w2, #0x59                  	// #89
    fffea4b0:	91097063 	add	x3, x3, #0x25c
    fffea4b4:	14000005 	b	fffea4c8 <bl31_early_platform_setup+0x58>
    fffea4b8:	b4000133 	cbz	x19, fffea4dc <bl31_early_platform_setup+0x6c>
    fffea4bc:	f0000023 	adrp	x3, ffff1000 <__TEXT_END__>
    fffea4c0:	52800b42 	mov	w2, #0x5a                  	// #90
    fffea4c4:	91094063 	add	x3, x3, #0x250
    fffea4c8:	f0000021 	adrp	x1, ffff1000 <__TEXT_END__>
    fffea4cc:	f0000020 	adrp	x0, ffff1000 <__TEXT_END__>
    fffea4d0:	9108a421 	add	x1, x1, #0x229
    fffea4d4:	9107c000 	add	x0, x0, #0x1f0
    fffea4d8:	94000fb0 	bl	fffee398 <__assert>
    fffea4dc:	f0000054 	adrp	x20, ffff5000 <__STACKS_START__+0xfc0>
    fffea4e0:	f0000053 	adrp	x19, ffff5000 <__STACKS_START__+0xfc0>
    fffea4e4:	91056295 	add	x21, x20, #0x158
    fffea4e8:	9106c276 	add	x22, x19, #0x1b0
    fffea4ec:	52800020 	mov	w0, #0x1                   	// #1
    fffea4f0:	52800b01 	mov	w1, #0x58                  	// #88
    fffea4f4:	39056280 	strb	w0, [x20,#344]
    fffea4f8:	390006a0 	strb	w0, [x21,#1]
    fffea4fc:	3906c260 	strb	w0, [x19,#432]
    fffea500:	390006c0 	strb	w0, [x22,#1]
    fffea504:	52800020 	mov	w0, #0x1                   	// #1
    fffea508:	790006a1 	strh	w1, [x21,#2]
    fffea50c:	790006c1 	strh	w1, [x22,#2]
    fffea510:	b90006bf 	str	wzr, [x21,#4]
    fffea514:	b90006c0 	str	w0, [x22,#4]
    fffea518:	940013f6 	bl	fffef4f0 <zynqmp_get_bootmode>
    fffea51c:	35000140 	cbnz	w0, fffea544 <bl31_early_platform_setup+0xd4>
    fffea520:	d2ac0000 	mov	x0, #0x60000000            	// #1610612736
    fffea524:	f90006a0 	str	x0, [x21,#8]
    fffea528:	9400137b 	bl	fffef314 <arm_get_spsr_for_bl32_entry>
    fffea52c:	b90012a0 	str	w0, [x21,#16]
    fffea530:	94001377 	bl	fffef30c <plat_get_ns_image_entrypoint>
    fffea534:	f90006c0 	str	x0, [x22,#8]
    fffea538:	52807920 	mov	w0, #0x3c9                 	// #969
    fffea53c:	b90012c0 	str	w0, [x22,#16]
    fffea540:	14000004 	b	fffea550 <bl31_early_platform_setup+0xe0>
    fffea544:	aa1603e1 	mov	x1, x22
    fffea548:	aa1503e0 	mov	x0, x21
    fffea54c:	94000169 	bl	fffeaaf0 <fsbl_atf_handover>
    fffea550:	91056294 	add	x20, x20, #0x158
    fffea554:	f0000020 	adrp	x0, ffff1000 <__TEXT_END__>
    fffea558:	9109b400 	add	x0, x0, #0x26d
    fffea55c:	9106c273 	add	x19, x19, #0x1b0
    fffea560:	f9400681 	ldr	x1, [x20,#8]
    fffea564:	94000ecc 	bl	fffee094 <tf_printf>
    fffea568:	f9400661 	ldr	x1, [x19,#8]
    fffea56c:	f0000020 	adrp	x0, ffff1000 <__TEXT_END__>
    fffea570:	a9425bf5 	ldp	x21, x22, [sp,#32]
    fffea574:	a94153f3 	ldp	x19, x20, [sp,#16]
    fffea578:	a8c37bfd 	ldp	x29, x30, [sp],#48
    fffea57c:	910a4800 	add	x0, x0, #0x292
    fffea580:	14000ec5 	b	fffee094 <tf_printf>

00000000fffea584 <zynqmp_request_intr_type_el3>:
    fffea584:	eb1f003f 	cmp	x1, xzr
    fffea588:	52800fe2 	mov	w2, #0x7f                  	// #127
    fffea58c:	7a421002 	ccmp	w0, w2, #0x2, ne
    fffea590:	54000148 	b.hi	fffea5b8 <zynqmp_request_intr_type_el3+0x34>
    fffea594:	f0000043 	adrp	x3, ffff5000 <__STACKS_START__+0xfc0>
    fffea598:	2a0003e2 	mov	w2, w0
    fffea59c:	91082063 	add	x3, x3, #0x208
    fffea5a0:	12800480 	mov	w0, #0xffffffdb            	// #-37
    fffea5a4:	f8627864 	ldr	x4, [x3,x2,lsl #3]
    fffea5a8:	b50000a4 	cbnz	x4, fffea5bc <zynqmp_request_intr_type_el3+0x38>
    fffea5ac:	f8227861 	str	x1, [x3,x2,lsl #3]
    fffea5b0:	52800000 	mov	w0, #0x0                   	// #0
    fffea5b4:	d65f03c0 	ret
    fffea5b8:	128002a0 	mov	w0, #0xffffffea            	// #-22
    fffea5bc:	d65f03c0 	ret

00000000fffea5c0 <bl31_platform_setup>:
    fffea5c0:	a9bf7bfd 	stp	x29, x30, [sp,#-16]!
    fffea5c4:	910003fd 	mov	x29, sp
    fffea5c8:	9400137d 	bl	fffef3bc <plat_arm_gic_driver_init>
    fffea5cc:	a8c17bfd 	ldp	x29, x30, [sp],#16
    fffea5d0:	1400137e 	b	fffef3c8 <plat_arm_gic_init>

00000000fffea5d4 <bl31_plat_runtime_setup>:
    fffea5d4:	a9bf7bfd 	stp	x29, x30, [sp,#-16]!
    fffea5d8:	90000001 	adrp	x1, fffea000 <bl31_entrypoint>
    fffea5dc:	52800042 	mov	w2, #0x2                   	// #2
    fffea5e0:	910003fd 	mov	x29, sp
    fffea5e4:	910f4021 	add	x1, x1, #0x3d0
    fffea5e8:	52800020 	mov	w0, #0x1                   	// #1
    fffea5ec:	940005f0 	bl	fffebdac <register_interrupt_type_handler>
    fffea5f0:	34000040 	cbz	w0, fffea5f8 <bl31_plat_runtime_setup+0x24>
    fffea5f4:	94001650 	bl	fffeff34 <do_panic>
    fffea5f8:	a8c17bfd 	ldp	x29, x30, [sp],#16
    fffea5fc:	d65f03c0 	ret

00000000fffea600 <bl31_plat_arch_setup>:
    fffea600:	a9bf7bfd 	stp	x29, x30, [sp,#-16]!
    fffea604:	910003fd 	mov	x29, sp
    fffea608:	94001336 	bl	fffef2e0 <plat_arm_interconnect_init>
    fffea60c:	9400133a 	bl	fffef2f4 <plat_arm_interconnect_enter_coherency>
    fffea610:	92bfffc1 	mov	x1, #0xffffffff0001ffff    	// #-4294836225
    fffea614:	f0000080 	adrp	x0, ffffd000 <__BL31_END__>
    fffea618:	91000000 	add	x0, x0, #0x0
    fffea61c:	f28c0001 	movk	x1, #0x6000
    fffea620:	8b010001 	add	x1, x0, x1
    fffea624:	f0000087 	adrp	x7, ffffd000 <__BL31_END__>
    fffea628:	d0000086 	adrp	x6, ffffc000 <__COHERENT_RAM_START__>
    fffea62c:	d0000045 	adrp	x5, ffff4000 <__RODATA_END__>
    fffea630:	f0000024 	adrp	x4, ffff1000 <__TEXT_END__>
    fffea634:	f0000023 	adrp	x3, ffff1000 <__TEXT_END__>
    fffea638:	90000002 	adrp	x2, fffea000 <bl31_entrypoint>
    fffea63c:	d2940000 	mov	x0, #0xa000                	// #40960
    fffea640:	910000e7 	add	x7, x7, #0x0
    fffea644:	910000c6 	add	x6, x6, #0x0
    fffea648:	910000a5 	add	x5, x5, #0x0
    fffea64c:	91000084 	add	x4, x4, #0x0
    fffea650:	91000063 	add	x3, x3, #0x0
    fffea654:	91000042 	add	x2, x2, #0x0
    fffea658:	f2bfffc0 	movk	x0, #0xfffe, lsl #16
    fffea65c:	94001333 	bl	fffef328 <arm_setup_page_tables>
    fffea660:	a8c17bfd 	ldp	x29, x30, [sp],#16
    fffea664:	52800000 	mov	w0, #0x0                   	// #0
    fffea668:	140010fa 	b	fffeea50 <enable_mmu_el3>

00000000fffea66c <zynqmp_cpu_standby>:
    fffea66c:	d5033f9f 	dsb	sy
    fffea670:	d503207f 	wfi
    fffea674:	d65f03c0 	ret

00000000fffea678 <zynqmp_validate_ns_entrypoint>:
    fffea678:	52800000 	mov	w0, #0x0                   	// #0
    fffea67c:	d65f03c0 	ret

00000000fffea680 <zynqmp_get_sys_suspend_power_state>:
    fffea680:	52800041 	mov	w1, #0x2                   	// #2
    fffea684:	39000001 	strb	w1, [x0]
    fffea688:	39000401 	strb	w1, [x0,#1]
    fffea68c:	d65f03c0 	ret

00000000fffea690 <zynqmp_nopmu_system_reset>:
    fffea690:	a9bf7bfd 	stp	x29, x30, [sp,#-16]!
    fffea694:	910003fd 	mov	x29, sp
    fffea698:	9400131a 	bl	fffef300 <plat_arm_interconnect_exit_coherency>
    fffea69c:	d2800601 	mov	x1, #0x30                  	// #48
    fffea6a0:	f2bfebc1 	movk	x1, #0xff5e, lsl #16
    fffea6a4:	b9400020 	ldr	w0, [x1]
    fffea6a8:	321d0000 	orr	w0, w0, #0x8
    fffea6ac:	b9000020 	str	w0, [x1]
    fffea6b0:	d2804300 	mov	x0, #0x218                 	// #536
    fffea6b4:	52800201 	mov	w1, #0x10                  	// #16
    fffea6b8:	f2bfebc0 	movk	x0, #0xff5e, lsl #16
    fffea6bc:	b9000001 	str	w1, [x0]
    fffea6c0:	d503207f 	wfi
    fffea6c4:	17ffffff 	b	fffea6c0 <zynqmp_nopmu_system_reset+0x30>

00000000fffea6c8 <zynqmp_nopmu_system_off>:
    fffea6c8:	a9bf7bfd 	stp	x29, x30, [sp,#-16]!
    fffea6cc:	f0000020 	adrp	x0, ffff1000 <__TEXT_END__>
    fffea6d0:	910003fd 	mov	x29, sp
    fffea6d4:	910d8000 	add	x0, x0, #0x360
    fffea6d8:	94000e6f 	bl	fffee094 <tf_printf>
    fffea6dc:	94001309 	bl	fffef300 <plat_arm_interconnect_exit_coherency>
    fffea6e0:	94001615 	bl	fffeff34 <do_panic>

00000000fffea6e4 <zynqmp_nopmu_pwr_domain_suspend_finish>:
    fffea6e4:	a9bf7bfd 	stp	x29, x30, [sp,#-16]!
    fffea6e8:	910003fd 	mov	x29, sp
    fffea6ec:	940016ae 	bl	ffff01a4 <plat_my_core_pos>
    fffea6f0:	52800021 	mov	w1, #0x1                   	// #1
    fffea6f4:	1ac02020 	lsl	w0, w1, w0
    fffea6f8:	d2802381 	mov	x1, #0x11c                 	// #284
    fffea6fc:	f2bffb01 	movk	x1, #0xffd8, lsl #16
    fffea700:	b9000020 	str	w0, [x1]
    fffea704:	d2801201 	mov	x1, #0x90                  	// #144
    fffea708:	f2bfab81 	movk	x1, #0xfd5c, lsl #16
    fffea70c:	b9400022 	ldr	w2, [x1]
    fffea710:	0a200040 	bic	w0, w2, w0
    fffea714:	b9000020 	str	w0, [x1]
    fffea718:	a8c17bfd 	ldp	x29, x30, [sp],#16
    fffea71c:	d65f03c0 	ret

00000000fffea720 <zynqmp_nopmu_pwr_domain_suspend>:
    fffea720:	a9bf7bfd 	stp	x29, x30, [sp,#-16]!
    fffea724:	910003fd 	mov	x29, sp
    fffea728:	9400169f 	bl	ffff01a4 <plat_my_core_pos>
    fffea72c:	531d7005 	lsl	w5, w0, #3
    fffea730:	d2801202 	mov	x2, #0x90                  	// #144
    fffea734:	52800023 	mov	w3, #0x1                   	// #1
    fffea738:	f2bfab82 	movk	x2, #0xfd5c, lsl #16
    fffea73c:	1ac02063 	lsl	w3, w3, w0
    fffea740:	b9400041 	ldr	w1, [x2]
    fffea744:	2a010061 	orr	w1, w3, w1
    fffea748:	b9000041 	str	w1, [x2]
    fffea74c:	90000061 	adrp	x1, ffff6000 <base_xlation_table>
    fffea750:	52800802 	mov	w2, #0x40                  	// #64
    fffea754:	72bfab82 	movk	w2, #0xfd5c, lsl #16
    fffea758:	0b0200a2 	add	w2, w5, w2
    fffea75c:	f9402424 	ldr	x4, [x1,#72]
    fffea760:	52800881 	mov	w1, #0x44                  	// #68
    fffea764:	72bfab81 	movk	w1, #0xfd5c, lsl #16
    fffea768:	0b0100a1 	add	w1, w5, w1
    fffea76c:	b9000044 	str	w4, [x2]
    fffea770:	d2800402 	mov	x2, #0x20                  	// #32
    fffea774:	d360fc84 	lsr	x4, x4, #32
    fffea778:	f2bfab82 	movk	x2, #0xfd5c, lsl #16
    fffea77c:	b9000024 	str	w4, [x1]
    fffea780:	52802001 	mov	w1, #0x100                 	// #256
    fffea784:	1ac02020 	lsl	w0, w1, w0
    fffea788:	b9400044 	ldr	w4, [x2]
    fffea78c:	0a200080 	bic	w0, w4, w0
    fffea790:	b9000040 	str	w0, [x2]
    fffea794:	d2802300 	mov	x0, #0x118                 	// #280
    fffea798:	f2bffb00 	movk	x0, #0xffd8, lsl #16
    fffea79c:	b9000003 	str	w3, [x0]
    fffea7a0:	a8c17bfd 	ldp	x29, x30, [sp],#16
    fffea7a4:	d65f03c0 	ret

00000000fffea7a8 <zynqmp_pwr_domain_on_finish>:
    fffea7a8:	a9bf7bfd 	stp	x29, x30, [sp,#-16]!
    fffea7ac:	910003fd 	mov	x29, sp
    fffea7b0:	9400114a 	bl	fffeecd8 <gicv2_cpuif_enable>
    fffea7b4:	a8c17bfd 	ldp	x29, x30, [sp],#16
    fffea7b8:	1400117a 	b	fffeeda0 <gicv2_pcpu_distif_init>

00000000fffea7bc <zynqmp_nopmu_pwr_domain_off>:
    fffea7bc:	a9be7bfd 	stp	x29, x30, [sp,#-32]!
    fffea7c0:	910003fd 	mov	x29, sp
    fffea7c4:	f9000bf3 	str	x19, [sp,#16]
    fffea7c8:	94001677 	bl	ffff01a4 <plat_my_core_pos>
    fffea7cc:	2a0003f3 	mov	w19, w0
    fffea7d0:	9400115b 	bl	fffeed3c <gicv2_cpuif_disable>
    fffea7d4:	d2801203 	mov	x3, #0x90                  	// #144
    fffea7d8:	52800022 	mov	w2, #0x1                   	// #1
    fffea7dc:	f2bfab83 	movk	x3, #0xfd5c, lsl #16
    fffea7e0:	1ad32040 	lsl	w0, w2, w19
    fffea7e4:	f9400bf3 	ldr	x19, [sp,#16]
    fffea7e8:	b9400061 	ldr	w1, [x3]
    fffea7ec:	2a010000 	orr	w0, w0, w1
    fffea7f0:	b9000060 	str	w0, [x3]
    fffea7f4:	a8c27bfd 	ldp	x29, x30, [sp],#32
    fffea7f8:	d65f03c0 	ret

00000000fffea7fc <zynqmp_nopmu_pwr_domain_on>:
    fffea7fc:	a9bf7bfd 	stp	x29, x30, [sp,#-16]!
    fffea800:	910003fd 	mov	x29, sp
    fffea804:	940000b3 	bl	fffeaad0 <plat_core_pos_by_mpidr>
    fffea808:	3100041f 	cmn	w0, #0x1
    fffea80c:	540005a0 	b.eq	fffea8c0 <zynqmp_nopmu_pwr_domain_on+0xc4>
    fffea810:	90000061 	adrp	x1, ffff6000 <base_xlation_table>
    fffea814:	52800802 	mov	w2, #0x40                  	// #64
    fffea818:	531d7004 	lsl	w4, w0, #3
    fffea81c:	72bfab82 	movk	w2, #0xfd5c, lsl #16
    fffea820:	0b020082 	add	w2, w4, w2
    fffea824:	f9402423 	ldr	x3, [x1,#72]
    fffea828:	52800881 	mov	w1, #0x44                  	// #68
    fffea82c:	72bfab81 	movk	w1, #0xfd5c, lsl #16
    fffea830:	0b010081 	add	w1, w4, w1
    fffea834:	b9000043 	str	w3, [x2]
    fffea838:	d2800402 	mov	x2, #0x20                  	// #32
    fffea83c:	d360fc63 	lsr	x3, x3, #32
    fffea840:	f2bfab82 	movk	x2, #0xfd5c, lsl #16
    fffea844:	b9000023 	str	w3, [x1]
    fffea848:	52802001 	mov	w1, #0x100                 	// #256
    fffea84c:	1ac02021 	lsl	w1, w1, w0
    fffea850:	b9400043 	ldr	w3, [x2]
    fffea854:	0a210061 	bic	w1, w3, w1
    fffea858:	d2801203 	mov	x3, #0x90                  	// #144
    fffea85c:	f2bfab83 	movk	x3, #0xfd5c, lsl #16
    fffea860:	b9000041 	str	w1, [x2]
    fffea864:	52800021 	mov	w1, #0x1                   	// #1
    fffea868:	1ac02021 	lsl	w1, w1, w0
    fffea86c:	b9400062 	ldr	w2, [x3]
    fffea870:	0a210042 	bic	w2, w2, w1
    fffea874:	b9000062 	str	w2, [x3]
    fffea878:	d2802302 	mov	x2, #0x118                 	// #280
    fffea87c:	d2802203 	mov	x3, #0x110                 	// #272
    fffea880:	f2bffb02 	movk	x2, #0xffd8, lsl #16
    fffea884:	f2bffb03 	movk	x3, #0xffd8, lsl #16
    fffea888:	b9000041 	str	w1, [x2]
    fffea88c:	b9000841 	str	w1, [x2,#8]
    fffea890:	b9400062 	ldr	w2, [x3]
    fffea894:	6a02003f 	tst	w1, w2
    fffea898:	54ffffc1 	b.ne	fffea890 <zynqmp_nopmu_pwr_domain_on+0x94>
    fffea89c:	d2802082 	mov	x2, #0x104                 	// #260
    fffea8a0:	52808021 	mov	w1, #0x401                 	// #1025
    fffea8a4:	f2bfa342 	movk	x2, #0xfd1a, lsl #16
    fffea8a8:	1ac02020 	lsl	w0, w1, w0
    fffea8ac:	b9400043 	ldr	w3, [x2]
    fffea8b0:	0a200060 	bic	w0, w3, w0
    fffea8b4:	b9000040 	str	w0, [x2]
    fffea8b8:	52800000 	mov	w0, #0x0                   	// #0
    fffea8bc:	14000002 	b	fffea8c4 <zynqmp_nopmu_pwr_domain_on+0xc8>
    fffea8c0:	128000a0 	mov	w0, #0xfffffffa            	// #-6
    fffea8c4:	a8c17bfd 	ldp	x29, x30, [sp],#16
    fffea8c8:	d65f03c0 	ret

00000000fffea8cc <zynqmp_system_reset>:
    fffea8cc:	a9bf7bfd 	stp	x29, x30, [sp,#-16]!
    fffea8d0:	910003fd 	mov	x29, sp
    fffea8d4:	9400128b 	bl	fffef300 <plat_arm_interconnect_exit_coherency>
    fffea8d8:	52800001 	mov	w1, #0x0                   	// #0
    fffea8dc:	52800020 	mov	w0, #0x1                   	// #1
    fffea8e0:	94000287 	bl	fffeb2fc <pm_system_shutdown>
    fffea8e4:	d503207f 	wfi
    fffea8e8:	17ffffff 	b	fffea8e4 <zynqmp_system_reset+0x18>

00000000fffea8ec <zynqmp_system_off>:
    fffea8ec:	a9bf7bfd 	stp	x29, x30, [sp,#-16]!
    fffea8f0:	910003fd 	mov	x29, sp
    fffea8f4:	94001283 	bl	fffef300 <plat_arm_interconnect_exit_coherency>
    fffea8f8:	52800001 	mov	w1, #0x0                   	// #0
    fffea8fc:	52800000 	mov	w0, #0x0                   	// #0
    fffea900:	9400027f 	bl	fffeb2fc <pm_system_shutdown>
    fffea904:	d503207f 	wfi
    fffea908:	17ffffff 	b	fffea904 <zynqmp_system_off+0x18>

00000000fffea90c <zynqmp_pwr_domain_suspend_finish>:
    fffea90c:	a9be7bfd 	stp	x29, x30, [sp,#-32]!
    fffea910:	910003fd 	mov	x29, sp
    fffea914:	f9000bf3 	str	x19, [sp,#16]
    fffea918:	aa0003f3 	mov	x19, x0
    fffea91c:	94001622 	bl	ffff01a4 <plat_my_core_pos>
    fffea920:	940003d2 	bl	fffeb868 <pm_get_proc>
    fffea924:	94000445 	bl	fffeba38 <pm_client_wakeup>
    fffea928:	94001273 	bl	fffef2f4 <plat_arm_interconnect_enter_coherency>
    fffea92c:	39400660 	ldrb	w0, [x19,#1]
    fffea930:	7100041f 	cmp	w0, #0x1
    fffea934:	54000089 	b.ls	fffea944 <zynqmp_pwr_domain_suspend_finish+0x38>
    fffea938:	f9400bf3 	ldr	x19, [sp,#16]
    fffea93c:	a8c27bfd 	ldp	x29, x30, [sp],#32
    fffea940:	140012a2 	b	fffef3c8 <plat_arm_gic_init>
    fffea944:	940010e5 	bl	fffeecd8 <gicv2_cpuif_enable>
    fffea948:	f9400bf3 	ldr	x19, [sp,#16]
    fffea94c:	a8c27bfd 	ldp	x29, x30, [sp],#32
    fffea950:	14001114 	b	fffeeda0 <gicv2_pcpu_distif_init>

00000000fffea954 <zynqmp_pwr_domain_suspend>:
    fffea954:	a9be7bfd 	stp	x29, x30, [sp,#-32]!
    fffea958:	910003fd 	mov	x29, sp
    fffea95c:	f9000bf3 	str	x19, [sp,#16]
    fffea960:	aa0003f3 	mov	x19, x0
    fffea964:	94001610 	bl	ffff01a4 <plat_my_core_pos>
    fffea968:	940003c0 	bl	fffeb868 <pm_get_proc>
    fffea96c:	b9400000 	ldr	w0, [x0]
    fffea970:	39400661 	ldrb	w1, [x19,#1]
    fffea974:	528001e2 	mov	w2, #0xf                   	// #15
    fffea978:	7100043f 	cmp	w1, #0x1
    fffea97c:	90000061 	adrp	x1, ffff6000 <base_xlation_table>
    fffea980:	1a9f8042 	csel	w2, w2, wzr, hi
    fffea984:	f9402423 	ldr	x3, [x1,#72]
    fffea988:	12800001 	mov	w1, #0xffffffff            	// #-1
    fffea98c:	940001de 	bl	fffeb104 <pm_self_suspend>
    fffea990:	39400660 	ldrb	w0, [x19,#1]
    fffea994:	7100041f 	cmp	w0, #0x1
    fffea998:	54000089 	b.ls	fffea9a8 <zynqmp_pwr_domain_suspend+0x54>
    fffea99c:	f9400bf3 	ldr	x19, [sp,#16]
    fffea9a0:	a8c27bfd 	ldp	x29, x30, [sp],#32
    fffea9a4:	14001257 	b	fffef300 <plat_arm_interconnect_exit_coherency>
    fffea9a8:	f9400bf3 	ldr	x19, [sp,#16]
    fffea9ac:	a8c27bfd 	ldp	x29, x30, [sp],#32
    fffea9b0:	d65f03c0 	ret

00000000fffea9b4 <zynqmp_pwr_domain_off>:
    fffea9b4:	a9be7bfd 	stp	x29, x30, [sp,#-32]!
    fffea9b8:	910003fd 	mov	x29, sp
    fffea9bc:	f9000bf3 	str	x19, [sp,#16]
    fffea9c0:	940015f9 	bl	ffff01a4 <plat_my_core_pos>
    fffea9c4:	940003a9 	bl	fffeb868 <pm_get_proc>
    fffea9c8:	aa0003f3 	mov	x19, x0
    fffea9cc:	940010dc 	bl	fffeed3c <gicv2_cpuif_disable>
    fffea9d0:	d2800003 	mov	x3, #0x0                   	// #0
    fffea9d4:	52800002 	mov	w2, #0x0                   	// #0
    fffea9d8:	b9400260 	ldr	w0, [x19]
    fffea9dc:	12800001 	mov	w1, #0xffffffff            	// #-1
    fffea9e0:	f9400bf3 	ldr	x19, [sp,#16]
    fffea9e4:	a8c27bfd 	ldp	x29, x30, [sp],#32
    fffea9e8:	140001c7 	b	fffeb104 <pm_self_suspend>

00000000fffea9ec <zynqmp_pwr_domain_on>:
    fffea9ec:	a9bf7bfd 	stp	x29, x30, [sp,#-16]!
    fffea9f0:	910003fd 	mov	x29, sp
    fffea9f4:	94000037 	bl	fffeaad0 <plat_core_pos_by_mpidr>
    fffea9f8:	3100041f 	cmn	w0, #0x1
    fffea9fc:	54000140 	b.eq	fffeaa24 <zynqmp_pwr_domain_on+0x38>
    fffeaa00:	9400039a 	bl	fffeb868 <pm_get_proc>
    fffeaa04:	b9400000 	ldr	w0, [x0]
    fffeaa08:	90000061 	adrp	x1, ffff6000 <base_xlation_table>
    fffeaa0c:	52800043 	mov	w3, #0x2                   	// #2
    fffeaa10:	f9402422 	ldr	x2, [x1,#72]
    fffeaa14:	52800021 	mov	w1, #0x1                   	// #1
    fffeaa18:	940001ea 	bl	fffeb1c0 <pm_req_wakeup>
    fffeaa1c:	52800000 	mov	w0, #0x0                   	// #0
    fffeaa20:	14000002 	b	fffeaa28 <zynqmp_pwr_domain_on+0x3c>
    fffeaa24:	128000a0 	mov	w0, #0xfffffffa            	// #-6
    fffeaa28:	a8c17bfd 	ldp	x29, x30, [sp],#16
    fffeaa2c:	d65f03c0 	ret

00000000fffeaa30 <zynqmp_validate_power_state>:
    fffeaa30:	d35e7802 	ubfx	x2, x0, #30, #1
    fffeaa34:	b5000161 	cbnz	x1, fffeaa60 <zynqmp_validate_power_state+0x30>
    fffeaa38:	a9bf7bfd 	stp	x29, x30, [sp,#-16]!
    fffeaa3c:	f0000023 	adrp	x3, ffff1000 <__TEXT_END__>
    fffeaa40:	f0000021 	adrp	x1, ffff1000 <__TEXT_END__>
    fffeaa44:	f0000020 	adrp	x0, ffff1000 <__TEXT_END__>
    fffeaa48:	910003fd 	mov	x29, sp
    fffeaa4c:	910e5063 	add	x3, x3, #0x394
    fffeaa50:	52802842 	mov	w2, #0x142                 	// #322
    fffeaa54:	910e7821 	add	x1, x1, #0x39e
    fffeaa58:	9110e000 	add	x0, x0, #0x438
    fffeaa5c:	94000e4f 	bl	fffee398 <__assert>
    fffeaa60:	35000062 	cbnz	w2, fffeaa6c <zynqmp_validate_power_state+0x3c>
    fffeaa64:	52800022 	mov	w2, #0x1                   	// #1
    fffeaa68:	14000002 	b	fffeaa70 <zynqmp_validate_power_state+0x40>
    fffeaa6c:	52800042 	mov	w2, #0x2                   	// #2
    fffeaa70:	12006c00 	and	w0, w0, #0xfffffff
    fffeaa74:	39000022 	strb	w2, [x1]
    fffeaa78:	6b1f001f 	cmp	w0, wzr
    fffeaa7c:	12800020 	mov	w0, #0xfffffffe            	// #-2
    fffeaa80:	1a9f1000 	csel	w0, w0, wzr, ne
    fffeaa84:	d65f03c0 	ret

00000000fffeaa88 <plat_setup_psci_ops>:
    fffeaa88:	a9be7bfd 	stp	x29, x30, [sp,#-32]!
    fffeaa8c:	910003fd 	mov	x29, sp
    fffeaa90:	f9000bf3 	str	x19, [sp,#16]
    fffeaa94:	aa0103f3 	mov	x19, x1
    fffeaa98:	90000061 	adrp	x1, ffff6000 <base_xlation_table>
    fffeaa9c:	f9002420 	str	x0, [x1,#72]
    fffeaaa0:	94001291 	bl	fffef4e4 <zynqmp_is_pmu_up>
    fffeaaa4:	34000080 	cbz	w0, fffeaab4 <plat_setup_psci_ops+0x2c>
    fffeaaa8:	f0000020 	adrp	x0, ffff1000 <__TEXT_END__>
    fffeaaac:	910f0000 	add	x0, x0, #0x3c0
    fffeaab0:	14000003 	b	fffeaabc <plat_setup_psci_ops+0x34>
    fffeaab4:	f0000020 	adrp	x0, ffff1000 <__TEXT_END__>
    fffeaab8:	910ba000 	add	x0, x0, #0x2e8
    fffeaabc:	f9000260 	str	x0, [x19]
    fffeaac0:	52800000 	mov	w0, #0x0                   	// #0
    fffeaac4:	f9400bf3 	ldr	x19, [sp,#16]
    fffeaac8:	a8c27bfd 	ldp	x29, x30, [sp],#32
    fffeaacc:	d65f03c0 	ret

00000000fffeaad0 <plat_core_pos_by_mpidr>:
    fffeaad0:	f2781c1f 	tst	x0, #0xff00
    fffeaad4:	540000a1 	b.ne	fffeaae8 <plat_core_pos_by_mpidr+0x18>
    fffeaad8:	92401c01 	and	x1, x0, #0xff
    fffeaadc:	f1000c3f 	cmp	x1, #0x3
    fffeaae0:	54000048 	b.hi	fffeaae8 <plat_core_pos_by_mpidr+0x18>
    fffeaae4:	140015b2 	b	ffff01ac <plat_arm_calc_core_pos>
    fffeaae8:	12800000 	mov	w0, #0xffffffff            	// #-1
    fffeaaec:	d65f03c0 	ret

00000000fffeaaf0 <fsbl_atf_handover>:
    fffeaaf0:	a9ba7bfd 	stp	x29, x30, [sp,#-96]!
    fffeaaf4:	910003fd 	mov	x29, sp
    fffeaaf8:	a90153f3 	stp	x19, x20, [sp,#16]
    fffeaafc:	aa0003f4 	mov	x20, x0
    fffeab00:	d2800900 	mov	x0, #0x48                  	// #72
    fffeab04:	f2bffb00 	movk	x0, #0xffd8, lsl #16
    fffeab08:	a9025bf5 	stp	x21, x22, [sp,#32]
    fffeab0c:	a90363f7 	stp	x23, x24, [sp,#48]
    fffeab10:	b9400013 	ldr	w19, [x0]
    fffeab14:	d293ffe0 	mov	x0, #0x9fff                	// #40959
    fffeab18:	f2bfffc0 	movk	x0, #0xfffe, lsl #16
    fffeab1c:	f9002bfb 	str	x27, [sp,#80]
    fffeab20:	a9046bf9 	stp	x25, x26, [sp,#64]
    fffeab24:	2a1303f3 	mov	w19, w19
    fffeab28:	aa0103f5 	mov	x21, x1
    fffeab2c:	eb00027f 	cmp	x19, x0
    fffeab30:	540001a9 	b.ls	fffeab64 <fsbl_atf_handover+0x74>
    fffeab34:	f0000080 	adrp	x0, ffffd000 <__BL31_END__>
    fffeab38:	91000000 	add	x0, x0, #0x0
    fffeab3c:	eb00027f 	cmp	x19, x0
    fffeab40:	540001c8 	b.hi	fffeab78 <fsbl_atf_handover+0x88>
    fffeab44:	f0000023 	adrp	x3, ffff1000 <__TEXT_END__>
    fffeab48:	f0000021 	adrp	x1, ffff1000 <__TEXT_END__>
    fffeab4c:	f0000020 	adrp	x0, ffff1000 <__TEXT_END__>
    fffeab50:	91116063 	add	x3, x3, #0x458
    fffeab54:	528016c2 	mov	w2, #0xb6                  	// #182
    fffeab58:	91129c21 	add	x1, x1, #0x4a7
    fffeab5c:	91182000 	add	x0, x0, #0x608
    fffeab60:	94000e0e 	bl	fffee398 <__assert>
    fffeab64:	b50000b3 	cbnz	x19, fffeab78 <fsbl_atf_handover+0x88>
    fffeab68:	f0000020 	adrp	x0, ffff1000 <__TEXT_END__>
    fffeab6c:	91132400 	add	x0, x0, #0x4c9
    fffeab70:	94000d49 	bl	fffee094 <tf_printf>
    fffeab74:	1400000a 	b	fffeab9c <fsbl_atf_handover+0xac>
    fffeab78:	52898b00 	mov	w0, #0x4c58                	// #19544
    fffeab7c:	b9400261 	ldr	w1, [x19]
    fffeab80:	72ab09c0 	movk	w0, #0x584e, lsl #16
    fffeab84:	6b00003f 	cmp	w1, w0
    fffeab88:	540000c0 	b.eq	fffeaba0 <fsbl_atf_handover+0xb0>
    fffeab8c:	f0000020 	adrp	x0, ffff1000 <__TEXT_END__>
    fffeab90:	aa1303e1 	mov	x1, x19
    fffeab94:	9113e400 	add	x0, x0, #0x4f9
    fffeab98:	94000d3f 	bl	fffee094 <tf_printf>
    fffeab9c:	940014e6 	bl	fffeff34 <do_panic>
    fffeaba0:	b9400661 	ldr	w1, [x19,#4]
    fffeaba4:	7100203f 	cmp	w1, #0x8
    fffeaba8:	54000148 	b.hi	fffeabd0 <fsbl_atf_handover+0xe0>
    fffeabac:	f0000039 	adrp	x25, ffff1000 <__TEXT_END__>
    fffeabb0:	f000003a 	adrp	x26, ffff1000 <__TEXT_END__>
    fffeabb4:	91002278 	add	x24, x19, #0x8
    fffeabb8:	91004277 	add	x23, x19, #0x10
    fffeabbc:	d2800016 	mov	x22, #0x0                   	// #0
    fffeabc0:	5280003b 	mov	w27, #0x1                   	// #1
    fffeabc4:	91170f39 	add	x25, x25, #0x5c3
    fffeabc8:	91165b5a 	add	x26, x26, #0x596
    fffeabcc:	1400000f 	b	fffeac08 <fsbl_atf_handover+0x118>
    fffeabd0:	f0000020 	adrp	x0, ffff1000 <__TEXT_END__>
    fffeabd4:	52800102 	mov	w2, #0x8                   	// #8
    fffeabd8:	9114b800 	add	x0, x0, #0x52e
    fffeabdc:	94000d2e 	bl	fffee094 <tf_printf>
    fffeabe0:	17ffffef 	b	fffeab9c <fsbl_atf_handover+0xac>
    fffeabe4:	f94002e0 	ldr	x0, [x23]
    fffeabe8:	d3451801 	ubfx	x1, x0, #5, #2
    fffeabec:	b4000161 	cbz	x1, fffeac18 <fsbl_atf_handover+0x128>
    fffeabf0:	f0000020 	adrp	x0, ffff1000 <__TEXT_END__>
    fffeabf4:	9115b800 	add	x0, x0, #0x56e
    fffeabf8:	94000d27 	bl	fffee094 <tf_printf>
    fffeabfc:	910006d6 	add	x22, x22, #0x1
    fffeac00:	91004318 	add	x24, x24, #0x10
    fffeac04:	910042f7 	add	x23, x23, #0x10
    fffeac08:	b9400660 	ldr	w0, [x19,#4]
    fffeac0c:	eb0002df 	cmp	x22, x0
    fffeac10:	54fffea3 	b.cc	fffeabe4 <fsbl_atf_handover+0xf4>
    fffeac14:	14000032 	b	fffeacdc <fsbl_atf_handover+0x1ec>
    fffeac18:	d3431001 	ubfx	x1, x0, #3, #2
    fffeac1c:	71000c3f 	cmp	w1, #0x3
    fffeac20:	7a5f1024 	ccmp	w1, wzr, #0x4, ne
    fffeac24:	54000061 	b.ne	fffeac30 <fsbl_atf_handover+0x140>
    fffeac28:	aa1a03e0 	mov	x0, x26
    fffeac2c:	17fffff3 	b	fffeabf8 <fsbl_atf_handover+0x108>
    fffeac30:	7100083f 	cmp	w1, #0x2
    fffeac34:	d3420803 	ubfx	x3, x0, #2, #1
    fffeac38:	1a9f17e2 	cset	w2, eq
    fffeac3c:	6a03005f 	tst	w2, w3
    fffeac40:	540000c0 	b.eq	fffeac58 <fsbl_atf_handover+0x168>
    fffeac44:	52800042 	mov	w2, #0x2                   	// #2
    fffeac48:	52800021 	mov	w1, #0x1                   	// #1
    fffeac4c:	aa1903e0 	mov	x0, x25
    fffeac50:	94000d11 	bl	fffee094 <tf_printf>
    fffeac54:	17ffffea 	b	fffeabfc <fsbl_atf_handover+0x10c>
    fffeac58:	92400002 	and	x2, x0, #0x1
    fffeac5c:	d3410400 	ubfx	x0, x0, #1, #1
    fffeac60:	b4000103 	cbz	x3, fffeac80 <fsbl_atf_handover+0x190>
    fffeac64:	528078a1 	mov	w1, #0x3c5                 	// #965
    fffeac68:	b4000062 	cbz	x2, fffeac74 <fsbl_atf_handover+0x184>
    fffeac6c:	52803a61 	mov	w1, #0x1d3                 	// #467
    fffeac70:	2a002421 	orr	w1, w1, w0, lsl #9
    fffeac74:	b9001281 	str	w1, [x20,#16]
    fffeac78:	aa1403e1 	mov	x1, x20
    fffeac7c:	1400000f 	b	fffeacb8 <fsbl_atf_handover+0x1c8>
    fffeac80:	7100083f 	cmp	w1, #0x2
    fffeac84:	b4000102 	cbz	x2, fffeaca4 <fsbl_atf_handover+0x1b4>
    fffeac88:	52800141 	mov	w1, #0xa                   	// #10
    fffeac8c:	528001e2 	mov	w2, #0xf                   	// #15
    fffeac90:	1a820022 	csel	w2, w1, w2, eq
    fffeac94:	52803a01 	mov	w1, #0x1d0                 	// #464
    fffeac98:	2a002421 	orr	w1, w1, w0, lsl #9
    fffeac9c:	2a020021 	orr	w1, w1, w2
    fffeaca0:	14000004 	b	fffeacb0 <fsbl_atf_handover+0x1c0>
    fffeaca4:	1a9b0021 	csel	w1, w1, w27, eq
    fffeaca8:	52807822 	mov	w2, #0x3c1                 	// #961
    fffeacac:	2a010841 	orr	w1, w2, w1, lsl #2
    fffeacb0:	b90012a1 	str	w1, [x21,#16]
    fffeacb4:	aa1503e1 	mov	x1, x21
    fffeacb8:	f9400302 	ldr	x2, [x24]
    fffeacbc:	f9000422 	str	x2, [x1,#8]
    fffeacc0:	b9400422 	ldr	w2, [x1,#4]
    fffeacc4:	b4000060 	cbz	x0, fffeacd0 <fsbl_atf_handover+0x1e0>
    fffeacc8:	321f0042 	orr	w2, w2, #0x2
    fffeaccc:	14000002 	b	fffeacd4 <fsbl_atf_handover+0x1e4>
    fffeacd0:	121e7842 	and	w2, w2, #0xfffffffd
    fffeacd4:	b9000422 	str	w2, [x1,#4]
    fffeacd8:	17ffffc9 	b	fffeabfc <fsbl_atf_handover+0x10c>
    fffeacdc:	a94153f3 	ldp	x19, x20, [sp,#16]
    fffeace0:	a9425bf5 	ldp	x21, x22, [sp,#32]
    fffeace4:	a94363f7 	ldp	x23, x24, [sp,#48]
    fffeace8:	a9446bf9 	ldp	x25, x26, [sp,#64]
    fffeacec:	f9402bfb 	ldr	x27, [sp,#80]
    fffeacf0:	a8c67bfd 	ldp	x29, x30, [sp],#96
    fffeacf4:	d65f03c0 	ret

00000000fffeacf8 <plat_get_power_domain_tree_desc>:
    fffeacf8:	f0000020 	adrp	x0, ffff1000 <__TEXT_END__>
    fffeacfc:	91188000 	add	x0, x0, #0x620
    fffead00:	d65f03c0 	ret

00000000fffead04 <sip_svc_setup>:
    fffead04:	a9bf7bfd 	stp	x29, x30, [sp,#-16]!
    fffead08:	910003fd 	mov	x29, sp
    fffead0c:	94000044 	bl	fffeae1c <pm_setup>
    fffead10:	52800000 	mov	w0, #0x0                   	// #0
    fffead14:	a8c17bfd 	ldp	x29, x30, [sp],#16
    fffead18:	d65f03c0 	ret

00000000fffead1c <sip_svc_smc_handler>:
    fffead1c:	72140c1f 	tst	w0, #0xf000
    fffead20:	54000041 	b.ne	fffead28 <sip_svc_smc_handler+0xc>
    fffead24:	14000059 	b	fffeae88 <pm_smc_handler>
    fffead28:	a9be7bfd 	stp	x29, x30, [sp,#-32]!
    fffead2c:	2a0003e8 	mov	w8, w0
    fffead30:	2a0003e1 	mov	w1, w0
    fffead34:	529fe020 	mov	w0, #0xff01                	// #65281
    fffead38:	910003fd 	mov	x29, sp
    fffead3c:	72b04000 	movk	w0, #0x8200, lsl #16
    fffead40:	f9000bf3 	str	x19, [sp,#16]
    fffead44:	6b00011f 	cmp	w8, w0
    fffead48:	aa0603f3 	mov	x19, x6
    fffead4c:	54000140 	b.eq	fffead74 <sip_svc_smc_handler+0x58>
    fffead50:	11000800 	add	w0, w0, #0x2
    fffead54:	6b00011f 	cmp	w8, w0
    fffead58:	54000220 	b.eq	fffead9c <sip_svc_smc_handler+0x80>
    fffead5c:	529fe000 	mov	w0, #0xff00                	// #65280
    fffead60:	72b04000 	movk	w0, #0x8200, lsl #16
    fffead64:	6b00011f 	cmp	w8, w0
    fffead68:	54000201 	b.ne	fffeada8 <sip_svc_smc_handler+0x8c>
    fffead6c:	d2800360 	mov	x0, #0x1b                  	// #27
    fffead70:	14000012 	b	fffeadb8 <sip_svc_smc_handler+0x9c>
    fffead74:	f0000020 	adrp	x0, ffff1000 <__TEXT_END__>
    fffead78:	9118a000 	add	x0, x0, #0x628
    fffead7c:	b9400c01 	ldr	w1, [x0,#12]
    fffead80:	f9000cc1 	str	x1, [x6,#24]
    fffead84:	b9400801 	ldr	w1, [x0,#8]
    fffead88:	b9400400 	ldr	w0, [x0,#4]
    fffead8c:	a90084c0 	stp	x0, x1, [x6,#8]
    fffead90:	d2936b80 	mov	x0, #0x9b5c                	// #39772
    fffead94:	f2a543a0 	movk	x0, #0x2a1d, lsl #16
    fffead98:	14000008 	b	fffeadb8 <sip_svc_smc_handler+0x9c>
    fffead9c:	d2800020 	mov	x0, #0x1                   	// #1
    fffeada0:	a90000df 	stp	xzr, x0, [x6]
    fffeada4:	14000006 	b	fffeadbc <sip_svc_smc_handler+0xa0>
    fffeada8:	f0000020 	adrp	x0, ffff1000 <__TEXT_END__>
    fffeadac:	9118e000 	add	x0, x0, #0x638
    fffeadb0:	94000cb9 	bl	fffee094 <tf_printf>
    fffeadb4:	b2407fe0 	mov	x0, #0xffffffff            	// #4294967295
    fffeadb8:	f9000260 	str	x0, [x19]
    fffeadbc:	aa1303e0 	mov	x0, x19
    fffeadc0:	f9400bf3 	ldr	x19, [sp,#16]
    fffeadc4:	a8c27bfd 	ldp	x29, x30, [sp],#32
    fffeadc8:	d65f03c0 	ret

00000000fffeadcc <ipi_fiq_handler>:
    fffeadcc:	a9be7bfd 	stp	x29, x30, [sp,#-32]!
    fffeadd0:	d2800302 	mov	x2, #0x18                  	// #24
    fffeadd4:	aa0003e1 	mov	x1, x0
    fffeadd8:	910003fd 	mov	x29, sp
    fffeaddc:	f9000bf3 	str	x19, [sp,#16]
    fffeade0:	f0000053 	adrp	x19, ffff5000 <__STACKS_START__+0xfc0>
    fffeade4:	91182273 	add	x19, x19, #0x608
    fffeade8:	91002260 	add	x0, x19, #0x8
    fffeadec:	94000d79 	bl	fffee3d0 <memcpy>
    fffeadf0:	b9400673 	ldr	w19, [x19,#4]
    fffeadf4:	d2bf2020 	mov	x0, #0xf9010000            	// #4177592320
    fffeadf8:	2a1303e1 	mov	w1, w19
    fffeadfc:	94000fac 	bl	fffeecac <gicd_set_ispendr>
    fffeae00:	2a1303e1 	mov	w1, w19
    fffeae04:	d2bf2020 	mov	x0, #0xf9010000            	// #4177592320
    fffeae08:	94000fac 	bl	fffeecb8 <gicd_set_isactiver>
    fffeae0c:	f9400bf3 	ldr	x19, [sp,#16]
    fffeae10:	52800000 	mov	w0, #0x0                   	// #0
    fffeae14:	a8c27bfd 	ldp	x29, x30, [sp],#32
    fffeae18:	d65f03c0 	ret

00000000fffeae1c <pm_setup>:
    fffeae1c:	a9be7bfd 	stp	x29, x30, [sp,#-32]!
    fffeae20:	910003fd 	mov	x29, sp
    fffeae24:	f9000bf3 	str	x19, [sp,#16]
    fffeae28:	12800253 	mov	w19, #0xffffffed            	// #-19
    fffeae2c:	940011ae 	bl	fffef4e4 <zynqmp_is_pmu_up>
    fffeae30:	34000240 	cbz	w0, fffeae78 <pm_setup+0x5c>
    fffeae34:	90000000 	adrp	x0, fffea000 <bl31_entrypoint>
    fffeae38:	91373000 	add	x0, x0, #0xdcc
    fffeae3c:	94000233 	bl	fffeb708 <pm_ipi_init>
    fffeae40:	2a0003f3 	mov	w19, w0
    fffeae44:	350000e0 	cbnz	w0, fffeae60 <pm_setup+0x44>
    fffeae48:	f0000020 	adrp	x0, ffff1000 <__TEXT_END__>
    fffeae4c:	52800042 	mov	w2, #0x2                   	// #2
    fffeae50:	52800001 	mov	w1, #0x0                   	// #0
    fffeae54:	9119bc00 	add	x0, x0, #0x66f
    fffeae58:	94000c8f 	bl	fffee094 <tf_printf>
    fffeae5c:	14000005 	b	fffeae70 <pm_setup+0x54>
    fffeae60:	2a0003e1 	mov	w1, w0
    fffeae64:	f0000020 	adrp	x0, ffff1000 <__TEXT_END__>
    fffeae68:	911a9000 	add	x0, x0, #0x6a4
    fffeae6c:	94000c8a 	bl	fffee094 <tf_printf>
    fffeae70:	d0000040 	adrp	x0, ffff4000 <__RODATA_END__>
    fffeae74:	b9000013 	str	w19, [x0]
    fffeae78:	2a1303e0 	mov	w0, w19
    fffeae7c:	f9400bf3 	ldr	x19, [sp,#16]
    fffeae80:	a8c27bfd 	ldp	x29, x30, [sp],#32
    fffeae84:	d65f03c0 	ret

00000000fffeae88 <pm_smc_handler>:
    fffeae88:	2a0003e5 	mov	w5, w0
    fffeae8c:	aa0103e0 	mov	x0, x1
    fffeae90:	d0000041 	adrp	x1, ffff4000 <__RODATA_END__>
    fffeae94:	a9bd7bfd 	stp	x29, x30, [sp,#-48]!
    fffeae98:	910003fd 	mov	x29, sp
    fffeae9c:	b9400021 	ldr	w1, [x1]
    fffeaea0:	a90153f3 	stp	x19, x20, [sp,#16]
    fffeaea4:	aa0603f3 	mov	x19, x6
    fffeaea8:	35001221 	cbnz	w1, fffeb0ec <pm_smc_handler+0x264>
    fffeaeac:	12003ca4 	and	w4, w5, #0xffff
    fffeaeb0:	d360fc01 	lsr	x1, x0, #32
    fffeaeb4:	7100349f 	cmp	w4, #0xd
    fffeaeb8:	d360fc43 	lsr	x3, x2, #32
    fffeaebc:	54000c20 	b.eq	fffeb040 <pm_smc_handler+0x1b8>
    fffeaec0:	54000448 	b.hi	fffeaf48 <pm_smc_handler+0xc0>
    fffeaec4:	7100189f 	cmp	w4, #0x6
    fffeaec8:	54000ac0 	b.eq	fffeb020 <pm_smc_handler+0x198>
    fffeaecc:	54000208 	b.hi	fffeaf0c <pm_smc_handler+0x84>
    fffeaed0:	71000c9f 	cmp	w4, #0x3
    fffeaed4:	54000d60 	b.eq	fffeb080 <pm_smc_handler+0x1f8>
    fffeaed8:	540000e8 	b.hi	fffeaef4 <pm_smc_handler+0x6c>
    fffeaedc:	7100049f 	cmp	w4, #0x1
    fffeaee0:	54000bc0 	b.eq	fffeb058 <pm_smc_handler+0x1d0>
    fffeaee4:	7100089f 	cmp	w4, #0x2
    fffeaee8:	54000fa1 	b.ne	fffeb0dc <pm_smc_handler+0x254>
    fffeaeec:	94000157 	bl	fffeb448 <pm_set_configuration>
    fffeaef0:	14000072 	b	fffeb0b8 <pm_smc_handler+0x230>
    fffeaef4:	7100109f 	cmp	w4, #0x4
    fffeaef8:	54000c80 	b.eq	fffeb088 <pm_smc_handler+0x200>
    fffeaefc:	7100149f 	cmp	w4, #0x5
    fffeaf00:	54000ee1 	b.ne	fffeb0dc <pm_smc_handler+0x254>
    fffeaf04:	9400015e 	bl	fffeb47c <pm_register_notifier>
    fffeaf08:	1400006c 	b	fffeb0b8 <pm_smc_handler+0x230>
    fffeaf0c:	7100249f 	cmp	w4, #0x9
    fffeaf10:	540008c0 	b.eq	fffeb028 <pm_smc_handler+0x1a0>
    fffeaf14:	540000e8 	b.hi	fffeaf30 <pm_smc_handler+0xa8>
    fffeaf18:	71001c9f 	cmp	w4, #0x7
    fffeaf1c:	540007e0 	b.eq	fffeb018 <pm_smc_handler+0x190>
    fffeaf20:	7100209f 	cmp	w4, #0x8
    fffeaf24:	54000dc1 	b.ne	fffeb0dc <pm_smc_handler+0x254>
    fffeaf28:	940000c7 	bl	fffeb244 <pm_force_powerdown>
    fffeaf2c:	14000063 	b	fffeb0b8 <pm_smc_handler+0x230>
    fffeaf30:	71002c9f 	cmp	w4, #0xb
    fffeaf34:	540007e0 	b.eq	fffeb030 <pm_smc_handler+0x1a8>
    fffeaf38:	54000808 	b.hi	fffeb038 <pm_smc_handler+0x1b0>
    fffeaf3c:	2a0203e2 	mov	w2, w2
    fffeaf40:	940000a0 	bl	fffeb1c0 <pm_req_wakeup>
    fffeaf44:	1400005d 	b	fffeb0b8 <pm_smc_handler+0x230>
    fffeaf48:	71004c9f 	cmp	w4, #0x13
    fffeaf4c:	54000a80 	b.eq	fffeb09c <pm_smc_handler+0x214>
    fffeaf50:	54000228 	b.hi	fffeaf94 <pm_smc_handler+0x10c>
    fffeaf54:	7100409f 	cmp	w4, #0x10
    fffeaf58:	540007c0 	b.eq	fffeb050 <pm_smc_handler+0x1c8>
    fffeaf5c:	540000e8 	b.hi	fffeaf78 <pm_smc_handler+0xf0>
    fffeaf60:	7100389f 	cmp	w4, #0xe
    fffeaf64:	54000720 	b.eq	fffeb048 <pm_smc_handler+0x1c0>
    fffeaf68:	71003c9f 	cmp	w4, #0xf
    fffeaf6c:	54000b81 	b.ne	fffeb0dc <pm_smc_handler+0x254>
    fffeaf70:	94000101 	bl	fffeb374 <pm_set_requirement>
    fffeaf74:	14000051 	b	fffeb0b8 <pm_smc_handler+0x230>
    fffeaf78:	7100449f 	cmp	w4, #0x11
    fffeaf7c:	540008c0 	b.eq	fffeb094 <pm_smc_handler+0x20c>
    fffeaf80:	7100489f 	cmp	w4, #0x12
    fffeaf84:	54000ac1 	b.ne	fffeb0dc <pm_smc_handler+0x254>
    fffeaf88:	9100a3a1 	add	x1, x29, #0x28
    fffeaf8c:	9400015f 	bl	fffeb508 <pm_reset_get_status>
    fffeaf90:	1400004e 	b	fffeb0c8 <pm_smc_handler+0x240>
    fffeaf94:	71005c9f 	cmp	w4, #0x17
    fffeaf98:	54000940 	b.eq	fffeb0c0 <pm_smc_handler+0x238>
    fffeaf9c:	540000e8 	b.hi	fffeafb8 <pm_smc_handler+0x130>
    fffeafa0:	7100509f 	cmp	w4, #0x14
    fffeafa4:	54000820 	b.eq	fffeb0a8 <pm_smc_handler+0x220>
    fffeafa8:	7100589f 	cmp	w4, #0x16
    fffeafac:	54000981 	b.ne	fffeb0dc <pm_smc_handler+0x254>
    fffeafb0:	94000180 	bl	fffeb5b0 <pm_fpga_load>
    fffeafb4:	14000041 	b	fffeb0b8 <pm_smc_handler+0x230>
    fffeafb8:	7128049f 	cmp	w4, #0xa01
    fffeafbc:	54000140 	b.eq	fffeafe4 <pm_smc_handler+0x15c>
    fffeafc0:	7128089f 	cmp	w4, #0xa02
    fffeafc4:	540001e0 	b.eq	fffeb000 <pm_smc_handler+0x178>
    fffeafc8:	7100609f 	cmp	w4, #0x18
    fffeafcc:	54000881 	b.ne	fffeb0dc <pm_smc_handler+0x254>
    fffeafd0:	9100a3a0 	add	x0, x29, #0x28
    fffeafd4:	9400018f 	bl	fffeb610 <pm_get_chipid>
    fffeafd8:	b9402fa1 	ldr	w1, [x29,#44]
    fffeafdc:	f9000661 	str	x1, [x19,#8]
    fffeafe0:	1400003a 	b	fffeb0c8 <pm_smc_handler+0x240>
    fffeafe4:	f0000041 	adrp	x1, ffff5000 <__STACKS_START__+0xfc0>
    fffeafe8:	b9060c20 	str	w0, [x1,#1548]
    fffeafec:	2a0003e1 	mov	w1, w0
    fffeaff0:	d2bf2020 	mov	x0, #0xf9010000            	// #4177592320
    fffeaff4:	94000f2b 	bl	fffeeca0 <gicd_set_isenabler>
    fffeaff8:	f900027f 	str	xzr, [x19]
    fffeaffc:	1400003e 	b	fffeb0f4 <pm_smc_handler+0x26c>
    fffeb000:	d0000040 	adrp	x0, ffff5000 <__STACKS_START__+0xfc0>
    fffeb004:	91182000 	add	x0, x0, #0x608
    fffeb008:	a9408801 	ldp	x1, x2, [x0,#8]
    fffeb00c:	b9401800 	ldr	w0, [x0,#24]
    fffeb010:	a90080c2 	stp	x2, x0, [x6,#8]
    fffeb014:	14000030 	b	fffeb0d4 <pm_smc_handler+0x24c>
    fffeb018:	9400003b 	bl	fffeb104 <pm_self_suspend>
    fffeb01c:	14000027 	b	fffeb0b8 <pm_smc_handler+0x230>
    fffeb020:	94000055 	bl	fffeb174 <pm_req_suspend>
    fffeb024:	14000025 	b	fffeb0b8 <pm_smc_handler+0x230>
    fffeb028:	94000099 	bl	fffeb28c <pm_abort_suspend>
    fffeb02c:	14000023 	b	fffeb0b8 <pm_smc_handler+0x230>
    fffeb030:	940000a7 	bl	fffeb2cc <pm_set_wakeup_source>
    fffeb034:	14000021 	b	fffeb0b8 <pm_smc_handler+0x230>
    fffeb038:	940000b1 	bl	fffeb2fc <pm_system_shutdown>
    fffeb03c:	1400001f 	b	fffeb0b8 <pm_smc_handler+0x230>
    fffeb040:	940000ba 	bl	fffeb328 <pm_req_node>
    fffeb044:	1400001d 	b	fffeb0b8 <pm_smc_handler+0x230>
    fffeb048:	940000de 	bl	fffeb3c0 <pm_release_node>
    fffeb04c:	1400001b 	b	fffeb0b8 <pm_smc_handler+0x230>
    fffeb050:	940000e7 	bl	fffeb3ec <pm_set_max_latency>
    fffeb054:	14000019 	b	fffeb0b8 <pm_smc_handler+0x230>
    fffeb058:	d0000054 	adrp	x20, ffff5000 <__STACKS_START__+0xfc0>
    fffeb05c:	91182280 	add	x0, x20, #0x608
    fffeb060:	b9460a81 	ldr	w1, [x20,#1544]
    fffeb064:	7100083f 	cmp	w1, #0x2
    fffeb068:	54000061 	b.ne	fffeb074 <pm_smc_handler+0x1ec>
    fffeb06c:	d2c00040 	mov	x0, #0x200000000           	// #8589934592
    fffeb070:	14000020 	b	fffeb0f0 <pm_smc_handler+0x268>
    fffeb074:	940000e9 	bl	fffeb418 <pm_get_api_version>
    fffeb078:	b9460a81 	ldr	w1, [x20,#1544]
    fffeb07c:	14000014 	b	fffeb0cc <pm_smc_handler+0x244>
    fffeb080:	940000f4 	bl	fffeb450 <pm_get_node_status>
    fffeb084:	1400000d 	b	fffeb0b8 <pm_smc_handler+0x230>
    fffeb088:	9100a3a2 	add	x2, x29, #0x28
    fffeb08c:	94000108 	bl	fffeb4ac <pm_get_op_characteristic>
    fffeb090:	1400000e 	b	fffeb0c8 <pm_smc_handler+0x240>
    fffeb094:	94000112 	bl	fffeb4dc <pm_reset_assert>
    fffeb098:	14000008 	b	fffeb0b8 <pm_smc_handler+0x230>
    fffeb09c:	2a0003e0 	mov	w0, w0
    fffeb0a0:	94000128 	bl	fffeb540 <pm_mmio_write>
    fffeb0a4:	14000005 	b	fffeb0b8 <pm_smc_handler+0x230>
    fffeb0a8:	9100a3a1 	add	x1, x29, #0x28
    fffeb0ac:	2a0003e0 	mov	w0, w0
    fffeb0b0:	94000132 	bl	fffeb578 <pm_mmio_read>
    fffeb0b4:	14000005 	b	fffeb0c8 <pm_smc_handler+0x240>
    fffeb0b8:	2a0003e0 	mov	w0, w0
    fffeb0bc:	1400000d 	b	fffeb0f0 <pm_smc_handler+0x268>
    fffeb0c0:	9100a3a0 	add	x0, x29, #0x28
    fffeb0c4:	94000147 	bl	fffeb5e0 <pm_fpga_get_status>
    fffeb0c8:	b9402ba1 	ldr	w1, [x29,#40]
    fffeb0cc:	2a0003e0 	mov	w0, w0
    fffeb0d0:	aa018001 	orr	x1, x0, x1, lsl #32
    fffeb0d4:	f9000261 	str	x1, [x19]
    fffeb0d8:	14000007 	b	fffeb0f4 <pm_smc_handler+0x26c>
    fffeb0dc:	d0000020 	adrp	x0, ffff1000 <__TEXT_END__>
    fffeb0e0:	2a0503e1 	mov	w1, w5
    fffeb0e4:	911b6c00 	add	x0, x0, #0x6db
    fffeb0e8:	94000beb 	bl	fffee094 <tf_printf>
    fffeb0ec:	b2407fe0 	mov	x0, #0xffffffff            	// #4294967295
    fffeb0f0:	f9000260 	str	x0, [x19]
    fffeb0f4:	aa1303e0 	mov	x0, x19
    fffeb0f8:	a94153f3 	ldp	x19, x20, [sp,#16]
    fffeb0fc:	a8c37bfd 	ldp	x29, x30, [sp],#48
    fffeb100:	d65f03c0 	ret

00000000fffeb104 <pm_self_suspend>:
    fffeb104:	a9bb7bfd 	stp	x29, x30, [sp,#-80]!
    fffeb108:	910003fd 	mov	x29, sp
    fffeb10c:	a90153f3 	stp	x19, x20, [sp,#16]
    fffeb110:	a9025bf5 	stp	x21, x22, [sp,#32]
    fffeb114:	2a0203f4 	mov	w20, w2
    fffeb118:	aa0303f5 	mov	x21, x3
    fffeb11c:	2a0103f6 	mov	w22, w1
    fffeb120:	94001421 	bl	ffff01a4 <plat_my_core_pos>
    fffeb124:	940001d1 	bl	fffeb868 <pm_get_proc>
    fffeb128:	aa0003f3 	mov	x19, x0
    fffeb12c:	2a1403e1 	mov	w1, w20
    fffeb130:	940001ec 	bl	fffeb8e0 <pm_client_suspend>
    fffeb134:	910143a1 	add	x1, x29, #0x50
    fffeb138:	d360fea0 	lsr	x0, x21, #32
    fffeb13c:	290903b5 	stp	w21, w0, [x29,#72]
    fffeb140:	b9400260 	ldr	w0, [x19]
    fffeb144:	d2800003 	mov	x3, #0x0                   	// #0
    fffeb148:	b9003fa0 	str	w0, [x29,#60]
    fffeb14c:	528000e0 	mov	w0, #0x7                   	// #7
    fffeb150:	d2800002 	mov	x2, #0x0                   	// #0
    fffeb154:	b81e8c20 	str	w0, [x1,#-24]!
    fffeb158:	aa1303e0 	mov	x0, x19
    fffeb15c:	290853b6 	stp	w22, w20, [x29,#64]
    fffeb160:	94000197 	bl	fffeb7bc <pm_ipi_send_sync>
    fffeb164:	a94153f3 	ldp	x19, x20, [sp,#16]
    fffeb168:	a9425bf5 	ldp	x21, x22, [sp,#32]
    fffeb16c:	a8c57bfd 	ldp	x29, x30, [sp],#80
    fffeb170:	d65f03c0 	ret

00000000fffeb174 <pm_req_suspend>:
    fffeb174:	a9bd7bfd 	stp	x29, x30, [sp,#-48]!
    fffeb178:	7100083f 	cmp	w1, #0x2
    fffeb17c:	910003fd 	mov	x29, sp
    fffeb180:	290387a0 	stp	w0, w1, [x29,#28]
    fffeb184:	9100c3a1 	add	x1, x29, #0x30
    fffeb188:	528000c0 	mov	w0, #0x6                   	// #6
    fffeb18c:	29048fa2 	stp	w2, w3, [x29,#36]
    fffeb190:	b81e8c20 	str	w0, [x1,#-24]!
    fffeb194:	b0000040 	adrp	x0, ffff4000 <__RODATA_END__>
    fffeb198:	540000c1 	b.ne	fffeb1b0 <pm_req_suspend+0x3c>
    fffeb19c:	f9400400 	ldr	x0, [x0,#8]
    fffeb1a0:	d2800003 	mov	x3, #0x0                   	// #0
    fffeb1a4:	d2800002 	mov	x2, #0x0                   	// #0
    fffeb1a8:	94000185 	bl	fffeb7bc <pm_ipi_send_sync>
    fffeb1ac:	14000003 	b	fffeb1b8 <pm_req_suspend+0x44>
    fffeb1b0:	f9400400 	ldr	x0, [x0,#8]
    fffeb1b4:	9400016d 	bl	fffeb768 <pm_ipi_send>
    fffeb1b8:	a8c37bfd 	ldp	x29, x30, [sp],#48
    fffeb1bc:	d65f03c0 	ret

00000000fffeb1c0 <pm_req_wakeup>:
    fffeb1c0:	a9bb7bfd 	stp	x29, x30, [sp,#-80]!
    fffeb1c4:	910003fd 	mov	x29, sp
    fffeb1c8:	a90153f3 	stp	x19, x20, [sp,#16]
    fffeb1cc:	a9025bf5 	stp	x21, x22, [sp,#32]
    fffeb1d0:	aa0203f3 	mov	x19, x2
    fffeb1d4:	2a0103f6 	mov	w22, w1
    fffeb1d8:	2a0303f4 	mov	w20, w3
    fffeb1dc:	2a0003f5 	mov	w21, w0
    fffeb1e0:	940001ab 	bl	fffeb88c <pm_get_proc_by_node>
    fffeb1e4:	94000215 	bl	fffeba38 <pm_client_wakeup>
    fffeb1e8:	6b1f02df 	cmp	w22, wzr
    fffeb1ec:	910143a1 	add	x1, x29, #0x50
    fffeb1f0:	9a9f07e2 	cset	x2, ne
    fffeb1f4:	71000a9f 	cmp	w20, #0x2
    fffeb1f8:	aa130042 	orr	x2, x2, x19
    fffeb1fc:	d360fc40 	lsr	x0, x2, #32
    fffeb200:	29078bb5 	stp	w21, w2, [x29,#60]
    fffeb204:	2908d3a0 	stp	w0, w20, [x29,#68]
    fffeb208:	52800140 	mov	w0, #0xa                   	// #10
    fffeb20c:	b81e8c20 	str	w0, [x1,#-24]!
    fffeb210:	b0000040 	adrp	x0, ffff4000 <__RODATA_END__>
    fffeb214:	540000c1 	b.ne	fffeb22c <pm_req_wakeup+0x6c>
    fffeb218:	f9400400 	ldr	x0, [x0,#8]
    fffeb21c:	d2800003 	mov	x3, #0x0                   	// #0
    fffeb220:	d2800002 	mov	x2, #0x0                   	// #0
    fffeb224:	94000166 	bl	fffeb7bc <pm_ipi_send_sync>
    fffeb228:	14000003 	b	fffeb234 <pm_req_wakeup+0x74>
    fffeb22c:	f9400400 	ldr	x0, [x0,#8]
    fffeb230:	9400014e 	bl	fffeb768 <pm_ipi_send>
    fffeb234:	a94153f3 	ldp	x19, x20, [sp,#16]
    fffeb238:	a9425bf5 	ldp	x21, x22, [sp,#32]
    fffeb23c:	a8c57bfd 	ldp	x29, x30, [sp],#80
    fffeb240:	d65f03c0 	ret

00000000fffeb244 <pm_force_powerdown>:
    fffeb244:	a9bd7bfd 	stp	x29, x30, [sp,#-48]!
    fffeb248:	7100083f 	cmp	w1, #0x2
    fffeb24c:	910003fd 	mov	x29, sp
    fffeb250:	290387a0 	stp	w0, w1, [x29,#28]
    fffeb254:	9100c3a1 	add	x1, x29, #0x30
    fffeb258:	52800100 	mov	w0, #0x8                   	// #8
    fffeb25c:	b81e8c20 	str	w0, [x1,#-24]!
    fffeb260:	b0000040 	adrp	x0, ffff4000 <__RODATA_END__>
    fffeb264:	540000c1 	b.ne	fffeb27c <pm_force_powerdown+0x38>
    fffeb268:	f9400400 	ldr	x0, [x0,#8]
    fffeb26c:	d2800003 	mov	x3, #0x0                   	// #0
    fffeb270:	d2800002 	mov	x2, #0x0                   	// #0
    fffeb274:	94000152 	bl	fffeb7bc <pm_ipi_send_sync>
    fffeb278:	14000003 	b	fffeb284 <pm_force_powerdown+0x40>
    fffeb27c:	f9400400 	ldr	x0, [x0,#8]
    fffeb280:	9400013a 	bl	fffeb768 <pm_ipi_send>
    fffeb284:	a8c37bfd 	ldp	x29, x30, [sp],#48
    fffeb288:	d65f03c0 	ret

00000000fffeb28c <pm_abort_suspend>:
    fffeb28c:	a9bc7bfd 	stp	x29, x30, [sp,#-64]!
    fffeb290:	910003fd 	mov	x29, sp
    fffeb294:	f9000bf3 	str	x19, [sp,#16]
    fffeb298:	2a0003f3 	mov	w19, w0
    fffeb29c:	940001d3 	bl	fffeb9e8 <pm_client_abort_suspend>
    fffeb2a0:	b0000040 	adrp	x0, ffff4000 <__RODATA_END__>
    fffeb2a4:	52800122 	mov	w2, #0x9                   	// #9
    fffeb2a8:	f9400400 	ldr	x0, [x0,#8]
    fffeb2ac:	b9400001 	ldr	w1, [x0]
    fffeb2b0:	290587b3 	stp	w19, w1, [x29,#44]
    fffeb2b4:	910103a1 	add	x1, x29, #0x40
    fffeb2b8:	b81e8c22 	str	w2, [x1,#-24]!
    fffeb2bc:	9400012b 	bl	fffeb768 <pm_ipi_send>
    fffeb2c0:	f9400bf3 	ldr	x19, [sp,#16]
    fffeb2c4:	a8c47bfd 	ldp	x29, x30, [sp],#64
    fffeb2c8:	d65f03c0 	ret

00000000fffeb2cc <pm_set_wakeup_source>:
    fffeb2cc:	a9bd7bfd 	stp	x29, x30, [sp,#-48]!
    fffeb2d0:	910003fd 	mov	x29, sp
    fffeb2d4:	290387a0 	stp	w0, w1, [x29,#28]
    fffeb2d8:	9100c3a1 	add	x1, x29, #0x30
    fffeb2dc:	52800160 	mov	w0, #0xb                   	// #11
    fffeb2e0:	b90027a2 	str	w2, [x29,#36]
    fffeb2e4:	b81e8c20 	str	w0, [x1,#-24]!
    fffeb2e8:	b0000040 	adrp	x0, ffff4000 <__RODATA_END__>
    fffeb2ec:	f9400400 	ldr	x0, [x0,#8]
    fffeb2f0:	9400011e 	bl	fffeb768 <pm_ipi_send>
    fffeb2f4:	a8c37bfd 	ldp	x29, x30, [sp],#48
    fffeb2f8:	d65f03c0 	ret

00000000fffeb2fc <pm_system_shutdown>:
    fffeb2fc:	a9bd7bfd 	stp	x29, x30, [sp,#-48]!
    fffeb300:	910003fd 	mov	x29, sp
    fffeb304:	290387a0 	stp	w0, w1, [x29,#28]
    fffeb308:	9100c3a1 	add	x1, x29, #0x30
    fffeb30c:	52800180 	mov	w0, #0xc                   	// #12
    fffeb310:	b81e8c20 	str	w0, [x1,#-24]!
    fffeb314:	b0000040 	adrp	x0, ffff4000 <__RODATA_END__>
    fffeb318:	f9400400 	ldr	x0, [x0,#8]
    fffeb31c:	94000113 	bl	fffeb768 <pm_ipi_send>
    fffeb320:	a8c37bfd 	ldp	x29, x30, [sp],#48
    fffeb324:	d65f03c0 	ret

00000000fffeb328 <pm_req_node>:
    fffeb328:	a9bd7bfd 	stp	x29, x30, [sp,#-48]!
    fffeb32c:	7100087f 	cmp	w3, #0x2
    fffeb330:	910003fd 	mov	x29, sp
    fffeb334:	290387a0 	stp	w0, w1, [x29,#28]
    fffeb338:	9100c3a1 	add	x1, x29, #0x30
    fffeb33c:	528001a0 	mov	w0, #0xd                   	// #13
    fffeb340:	29048fa2 	stp	w2, w3, [x29,#36]
    fffeb344:	b81e8c20 	str	w0, [x1,#-24]!
    fffeb348:	b0000040 	adrp	x0, ffff4000 <__RODATA_END__>
    fffeb34c:	540000c1 	b.ne	fffeb364 <pm_req_node+0x3c>
    fffeb350:	f9400400 	ldr	x0, [x0,#8]
    fffeb354:	d2800003 	mov	x3, #0x0                   	// #0
    fffeb358:	d2800002 	mov	x2, #0x0                   	// #0
    fffeb35c:	94000118 	bl	fffeb7bc <pm_ipi_send_sync>
    fffeb360:	14000003 	b	fffeb36c <pm_req_node+0x44>
    fffeb364:	f9400400 	ldr	x0, [x0,#8]
    fffeb368:	94000100 	bl	fffeb768 <pm_ipi_send>
    fffeb36c:	a8c37bfd 	ldp	x29, x30, [sp],#48
    fffeb370:	d65f03c0 	ret

00000000fffeb374 <pm_set_requirement>:
    fffeb374:	a9bd7bfd 	stp	x29, x30, [sp,#-48]!
    fffeb378:	7100087f 	cmp	w3, #0x2
    fffeb37c:	910003fd 	mov	x29, sp
    fffeb380:	290387a0 	stp	w0, w1, [x29,#28]
    fffeb384:	9100c3a1 	add	x1, x29, #0x30
    fffeb388:	528001e0 	mov	w0, #0xf                   	// #15
    fffeb38c:	29048fa2 	stp	w2, w3, [x29,#36]
    fffeb390:	b81e8c20 	str	w0, [x1,#-24]!
    fffeb394:	b0000040 	adrp	x0, ffff4000 <__RODATA_END__>
    fffeb398:	540000c1 	b.ne	fffeb3b0 <pm_set_requirement+0x3c>
    fffeb39c:	f9400400 	ldr	x0, [x0,#8]
    fffeb3a0:	d2800003 	mov	x3, #0x0                   	// #0
    fffeb3a4:	d2800002 	mov	x2, #0x0                   	// #0
    fffeb3a8:	94000105 	bl	fffeb7bc <pm_ipi_send_sync>
    fffeb3ac:	14000003 	b	fffeb3b8 <pm_set_requirement+0x44>
    fffeb3b0:	f9400400 	ldr	x0, [x0,#8]
    fffeb3b4:	940000ed 	bl	fffeb768 <pm_ipi_send>
    fffeb3b8:	a8c37bfd 	ldp	x29, x30, [sp],#48
    fffeb3bc:	d65f03c0 	ret

00000000fffeb3c0 <pm_release_node>:
    fffeb3c0:	a9bd7bfd 	stp	x29, x30, [sp,#-48]!
    fffeb3c4:	910003fd 	mov	x29, sp
    fffeb3c8:	9100c3a1 	add	x1, x29, #0x30
    fffeb3cc:	b9001fa0 	str	w0, [x29,#28]
    fffeb3d0:	528001c0 	mov	w0, #0xe                   	// #14
    fffeb3d4:	b81e8c20 	str	w0, [x1,#-24]!
    fffeb3d8:	b0000040 	adrp	x0, ffff4000 <__RODATA_END__>
    fffeb3dc:	f9400400 	ldr	x0, [x0,#8]
    fffeb3e0:	940000e2 	bl	fffeb768 <pm_ipi_send>
    fffeb3e4:	a8c37bfd 	ldp	x29, x30, [sp],#48
    fffeb3e8:	d65f03c0 	ret

00000000fffeb3ec <pm_set_max_latency>:
    fffeb3ec:	a9bd7bfd 	stp	x29, x30, [sp,#-48]!
    fffeb3f0:	910003fd 	mov	x29, sp
    fffeb3f4:	290387a0 	stp	w0, w1, [x29,#28]
    fffeb3f8:	9100c3a1 	add	x1, x29, #0x30
    fffeb3fc:	52800200 	mov	w0, #0x10                  	// #16
    fffeb400:	b81e8c20 	str	w0, [x1,#-24]!
    fffeb404:	b0000040 	adrp	x0, ffff4000 <__RODATA_END__>
    fffeb408:	f9400400 	ldr	x0, [x0,#8]
    fffeb40c:	940000d7 	bl	fffeb768 <pm_ipi_send>
    fffeb410:	a8c37bfd 	ldp	x29, x30, [sp],#48
    fffeb414:	d65f03c0 	ret

00000000fffeb418 <pm_get_api_version>:
    fffeb418:	a9bd7bfd 	stp	x29, x30, [sp,#-48]!
    fffeb41c:	52800022 	mov	w2, #0x1                   	// #1
    fffeb420:	d2800023 	mov	x3, #0x1                   	// #1
    fffeb424:	910003fd 	mov	x29, sp
    fffeb428:	9100c3a1 	add	x1, x29, #0x30
    fffeb42c:	b81e8c22 	str	w2, [x1,#-24]!
    fffeb430:	aa0003e2 	mov	x2, x0
    fffeb434:	b0000040 	adrp	x0, ffff4000 <__RODATA_END__>
    fffeb438:	f9400400 	ldr	x0, [x0,#8]
    fffeb43c:	940000e0 	bl	fffeb7bc <pm_ipi_send_sync>
    fffeb440:	a8c37bfd 	ldp	x29, x30, [sp],#48
    fffeb444:	d65f03c0 	ret

00000000fffeb448 <pm_set_configuration>:
    fffeb448:	52800080 	mov	w0, #0x4                   	// #4
    fffeb44c:	d65f03c0 	ret

00000000fffeb450 <pm_get_node_status>:
    fffeb450:	a9bd7bfd 	stp	x29, x30, [sp,#-48]!
    fffeb454:	910003fd 	mov	x29, sp
    fffeb458:	9100c3a1 	add	x1, x29, #0x30
    fffeb45c:	b9001fa0 	str	w0, [x29,#28]
    fffeb460:	52800060 	mov	w0, #0x3                   	// #3
    fffeb464:	b81e8c20 	str	w0, [x1,#-24]!
    fffeb468:	b0000040 	adrp	x0, ffff4000 <__RODATA_END__>
    fffeb46c:	f9400400 	ldr	x0, [x0,#8]
    fffeb470:	940000be 	bl	fffeb768 <pm_ipi_send>
    fffeb474:	a8c37bfd 	ldp	x29, x30, [sp],#48
    fffeb478:	d65f03c0 	ret

00000000fffeb47c <pm_register_notifier>:
    fffeb47c:	a9bd7bfd 	stp	x29, x30, [sp,#-48]!
    fffeb480:	910003fd 	mov	x29, sp
    fffeb484:	290387a0 	stp	w0, w1, [x29,#28]
    fffeb488:	9100c3a1 	add	x1, x29, #0x30
    fffeb48c:	528000a0 	mov	w0, #0x5                   	// #5
    fffeb490:	29048fa2 	stp	w2, w3, [x29,#36]
    fffeb494:	b81e8c20 	str	w0, [x1,#-24]!
    fffeb498:	b0000040 	adrp	x0, ffff4000 <__RODATA_END__>
    fffeb49c:	f9400400 	ldr	x0, [x0,#8]
    fffeb4a0:	940000b2 	bl	fffeb768 <pm_ipi_send>
    fffeb4a4:	a8c37bfd 	ldp	x29, x30, [sp],#48
    fffeb4a8:	d65f03c0 	ret

00000000fffeb4ac <pm_get_op_characteristic>:
    fffeb4ac:	a9bd7bfd 	stp	x29, x30, [sp,#-48]!
    fffeb4b0:	d2800023 	mov	x3, #0x1                   	// #1
    fffeb4b4:	910003fd 	mov	x29, sp
    fffeb4b8:	290387a0 	stp	w0, w1, [x29,#28]
    fffeb4bc:	9100c3a1 	add	x1, x29, #0x30
    fffeb4c0:	52800080 	mov	w0, #0x4                   	// #4
    fffeb4c4:	b81e8c20 	str	w0, [x1,#-24]!
    fffeb4c8:	b0000040 	adrp	x0, ffff4000 <__RODATA_END__>
    fffeb4cc:	f9400400 	ldr	x0, [x0,#8]
    fffeb4d0:	940000bb 	bl	fffeb7bc <pm_ipi_send_sync>
    fffeb4d4:	a8c37bfd 	ldp	x29, x30, [sp],#48
    fffeb4d8:	d65f03c0 	ret

00000000fffeb4dc <pm_reset_assert>:
    fffeb4dc:	a9bd7bfd 	stp	x29, x30, [sp,#-48]!
    fffeb4e0:	910003fd 	mov	x29, sp
    fffeb4e4:	290387a0 	stp	w0, w1, [x29,#28]
    fffeb4e8:	9100c3a1 	add	x1, x29, #0x30
    fffeb4ec:	52800220 	mov	w0, #0x11                  	// #17
    fffeb4f0:	b81e8c20 	str	w0, [x1,#-24]!
    fffeb4f4:	b0000040 	adrp	x0, ffff4000 <__RODATA_END__>
    fffeb4f8:	f9400400 	ldr	x0, [x0,#8]
    fffeb4fc:	9400009b 	bl	fffeb768 <pm_ipi_send>
    fffeb500:	a8c37bfd 	ldp	x29, x30, [sp],#48
    fffeb504:	d65f03c0 	ret

00000000fffeb508 <pm_reset_get_status>:
    fffeb508:	a9bd7bfd 	stp	x29, x30, [sp,#-48]!
    fffeb50c:	52800242 	mov	w2, #0x12                  	// #18
    fffeb510:	d2800023 	mov	x3, #0x1                   	// #1
    fffeb514:	910003fd 	mov	x29, sp
    fffeb518:	b9001fa0 	str	w0, [x29,#28]
    fffeb51c:	9100c3a0 	add	x0, x29, #0x30
    fffeb520:	b81e8c02 	str	w2, [x0,#-24]!
    fffeb524:	aa0103e2 	mov	x2, x1
    fffeb528:	aa0003e1 	mov	x1, x0
    fffeb52c:	b0000040 	adrp	x0, ffff4000 <__RODATA_END__>
    fffeb530:	f9400400 	ldr	x0, [x0,#8]
    fffeb534:	940000a2 	bl	fffeb7bc <pm_ipi_send_sync>
    fffeb538:	a8c37bfd 	ldp	x29, x30, [sp],#48
    fffeb53c:	d65f03c0 	ret

00000000fffeb540 <pm_mmio_write>:
    fffeb540:	a9bd7bfd 	stp	x29, x30, [sp,#-48]!
    fffeb544:	d2800003 	mov	x3, #0x0                   	// #0
    fffeb548:	910003fd 	mov	x29, sp
    fffeb54c:	290387a0 	stp	w0, w1, [x29,#28]
    fffeb550:	9100c3a1 	add	x1, x29, #0x30
    fffeb554:	52800260 	mov	w0, #0x13                  	// #19
    fffeb558:	b90027a2 	str	w2, [x29,#36]
    fffeb55c:	d2800002 	mov	x2, #0x0                   	// #0
    fffeb560:	b81e8c20 	str	w0, [x1,#-24]!
    fffeb564:	b0000040 	adrp	x0, ffff4000 <__RODATA_END__>
    fffeb568:	f9400400 	ldr	x0, [x0,#8]
    fffeb56c:	94000094 	bl	fffeb7bc <pm_ipi_send_sync>
    fffeb570:	a8c37bfd 	ldp	x29, x30, [sp],#48
    fffeb574:	d65f03c0 	ret

00000000fffeb578 <pm_mmio_read>:
    fffeb578:	a9bd7bfd 	stp	x29, x30, [sp,#-48]!
    fffeb57c:	52800282 	mov	w2, #0x14                  	// #20
    fffeb580:	d2800023 	mov	x3, #0x1                   	// #1
    fffeb584:	910003fd 	mov	x29, sp
    fffeb588:	b9001fa0 	str	w0, [x29,#28]
    fffeb58c:	9100c3a0 	add	x0, x29, #0x30
    fffeb590:	b81e8c02 	str	w2, [x0,#-24]!
    fffeb594:	aa0103e2 	mov	x2, x1
    fffeb598:	aa0003e1 	mov	x1, x0
    fffeb59c:	b0000040 	adrp	x0, ffff4000 <__RODATA_END__>
    fffeb5a0:	f9400400 	ldr	x0, [x0,#8]
    fffeb5a4:	94000086 	bl	fffeb7bc <pm_ipi_send_sync>
    fffeb5a8:	a8c37bfd 	ldp	x29, x30, [sp],#48
    fffeb5ac:	d65f03c0 	ret

00000000fffeb5b0 <pm_fpga_load>:
    fffeb5b0:	a9bd7bfd 	stp	x29, x30, [sp,#-48]!
    fffeb5b4:	910003fd 	mov	x29, sp
    fffeb5b8:	290383a1 	stp	w1, w0, [x29,#28]
    fffeb5bc:	9100c3a1 	add	x1, x29, #0x30
    fffeb5c0:	528002c0 	mov	w0, #0x16                  	// #22
    fffeb5c4:	29048fa2 	stp	w2, w3, [x29,#36]
    fffeb5c8:	b81e8c20 	str	w0, [x1,#-24]!
    fffeb5cc:	b0000040 	adrp	x0, ffff4000 <__RODATA_END__>
    fffeb5d0:	f9400400 	ldr	x0, [x0,#8]
    fffeb5d4:	94000065 	bl	fffeb768 <pm_ipi_send>
    fffeb5d8:	a8c37bfd 	ldp	x29, x30, [sp],#48
    fffeb5dc:	d65f03c0 	ret

00000000fffeb5e0 <pm_fpga_get_status>:
    fffeb5e0:	a9bd7bfd 	stp	x29, x30, [sp,#-48]!
    fffeb5e4:	528002e2 	mov	w2, #0x17                  	// #23
    fffeb5e8:	d2800023 	mov	x3, #0x1                   	// #1
    fffeb5ec:	910003fd 	mov	x29, sp
    fffeb5f0:	9100c3a1 	add	x1, x29, #0x30
    fffeb5f4:	b81e8c22 	str	w2, [x1,#-24]!
    fffeb5f8:	aa0003e2 	mov	x2, x0
    fffeb5fc:	b0000040 	adrp	x0, ffff4000 <__RODATA_END__>
    fffeb600:	f9400400 	ldr	x0, [x0,#8]
    fffeb604:	9400006e 	bl	fffeb7bc <pm_ipi_send_sync>
    fffeb608:	a8c37bfd 	ldp	x29, x30, [sp],#48
    fffeb60c:	d65f03c0 	ret

00000000fffeb610 <pm_get_chipid>:
    fffeb610:	a9bd7bfd 	stp	x29, x30, [sp,#-48]!
    fffeb614:	52800302 	mov	w2, #0x18                  	// #24
    fffeb618:	d2800043 	mov	x3, #0x2                   	// #2
    fffeb61c:	910003fd 	mov	x29, sp
    fffeb620:	9100c3a1 	add	x1, x29, #0x30
    fffeb624:	b81e8c22 	str	w2, [x1,#-24]!
    fffeb628:	aa0003e2 	mov	x2, x0
    fffeb62c:	b0000040 	adrp	x0, ffff4000 <__RODATA_END__>
    fffeb630:	f9400400 	ldr	x0, [x0,#8]
    fffeb634:	94000062 	bl	fffeb7bc <pm_ipi_send_sync>
    fffeb638:	a8c37bfd 	ldp	x29, x30, [sp],#48
    fffeb63c:	d65f03c0 	ret

00000000fffeb640 <ipi_fiq_handler>:
    fffeb640:	d2800200 	mov	x0, #0x10                  	// #16
    fffeb644:	a9bc7bfd 	stp	x29, x30, [sp,#-64]!
    fffeb648:	f2bfe600 	movk	x0, #0xff30, lsl #16
    fffeb64c:	910003fd 	mov	x29, sp
    fffeb650:	a90153f3 	stp	x19, x20, [sp,#16]
    fffeb654:	b9400014 	ldr	w20, [x0]
    fffeb658:	d0000040 	adrp	x0, ffff5000 <__STACKS_START__+0xfc0>
    fffeb65c:	f9431401 	ldr	x1, [x0,#1576]
    fffeb660:	b4000221 	cbz	x1, fffeb6a4 <ipi_fiq_handler+0x64>
    fffeb664:	aa0003f3 	mov	x19, x0
    fffeb668:	940012cf 	bl	ffff01a4 <plat_my_core_pos>
    fffeb66c:	9400007f 	bl	fffeb868 <pm_get_proc>
    fffeb670:	f9400400 	ldr	x0, [x0,#8]
    fffeb674:	d2800001 	mov	x1, #0x0                   	// #0
    fffeb678:	f9400802 	ldr	x2, [x0,#16]
    fffeb67c:	11078042 	add	w2, w2, #0x1e0
    fffeb680:	0b010040 	add	w0, w2, w1
    fffeb684:	b9400003 	ldr	w3, [x0]
    fffeb688:	9100a3a0 	add	x0, x29, #0x28
    fffeb68c:	b8206823 	str	w3, [x1,x0]
    fffeb690:	91001021 	add	x1, x1, #0x4
    fffeb694:	f100603f 	cmp	x1, #0x18
    fffeb698:	54ffff41 	b.ne	fffeb680 <ipi_fiq_handler+0x40>
    fffeb69c:	f9431661 	ldr	x1, [x19,#1576]
    fffeb6a0:	d63f0020 	blr	x1
    fffeb6a4:	d2800200 	mov	x0, #0x10                  	// #16
    fffeb6a8:	12100294 	and	w20, w20, #0x10000
    fffeb6ac:	f2bfe600 	movk	x0, #0xff30, lsl #16
    fffeb6b0:	b9000014 	str	w20, [x0]
    fffeb6b4:	d2800000 	mov	x0, #0x0                   	// #0
    fffeb6b8:	a94153f3 	ldp	x19, x20, [sp,#16]
    fffeb6bc:	a8c47bfd 	ldp	x29, x30, [sp],#64
    fffeb6c0:	d65f03c0 	ret

00000000fffeb6c4 <pm_ipi_send_common.isra.3>:
    fffeb6c4:	f9400002 	ldr	x2, [x0]
    fffeb6c8:	a9408c44 	ldp	x4, x3, [x2,#8]
    fffeb6cc:	91070060 	add	x0, x3, #0x1c0
    fffeb6d0:	91001085 	add	x5, x4, #0x4
    fffeb6d4:	b94000a2 	ldr	w2, [x5]
    fffeb6d8:	3787ffe2 	tbnz	w2, #16, fffeb6d4 <pm_ipi_send_common.isra.3+0x10>
    fffeb6dc:	91076065 	add	x5, x3, #0x1d8
    fffeb6e0:	cb030002 	sub	x2, x0, x3
    fffeb6e4:	d1070042 	sub	x2, x2, #0x1c0
    fffeb6e8:	b8626822 	ldr	w2, [x1,x2]
    fffeb6ec:	b8004402 	str	w2, [x0],#4
    fffeb6f0:	eb05001f 	cmp	x0, x5
    fffeb6f4:	54ffff61 	b.ne	fffeb6e0 <pm_ipi_send_common.isra.3+0x1c>
    fffeb6f8:	52a00020 	mov	w0, #0x10000               	// #65536
    fffeb6fc:	b9000080 	str	w0, [x4]
    fffeb700:	52800000 	mov	w0, #0x0                   	// #0
    fffeb704:	d65f03c0 	ret

00000000fffeb708 <pm_ipi_init>:
    fffeb708:	d2800202 	mov	x2, #0x10                  	// #16
    fffeb70c:	12800001 	mov	w1, #0xffffffff            	// #-1
    fffeb710:	f2bfe602 	movk	x2, #0xff30, lsl #16
    fffeb714:	b9000041 	str	w1, [x2]
    fffeb718:	b9000c41 	str	w1, [x2,#12]
    fffeb71c:	b40001e0 	cbz	x0, fffeb758 <pm_ipi_init+0x50>
    fffeb720:	a9bf7bfd 	stp	x29, x30, [sp,#-16]!
    fffeb724:	d0000041 	adrp	x1, ffff5000 <__STACKS_START__+0xfc0>
    fffeb728:	910003fd 	mov	x29, sp
    fffeb72c:	f9031420 	str	x0, [x1,#1576]
    fffeb730:	90000001 	adrp	x1, fffeb000 <pm_smc_handler+0x178>
    fffeb734:	91190021 	add	x1, x1, #0x640
    fffeb738:	52800860 	mov	w0, #0x43                  	// #67
    fffeb73c:	97fffb92 	bl	fffea584 <zynqmp_request_intr_type_el3>
    fffeb740:	35000100 	cbnz	w0, fffeb760 <pm_ipi_init+0x58>
    fffeb744:	d2800301 	mov	x1, #0x18                  	// #24
    fffeb748:	52a00022 	mov	w2, #0x10000               	// #65536
    fffeb74c:	f2bfe601 	movk	x1, #0xff30, lsl #16
    fffeb750:	b9000022 	str	w2, [x1]
    fffeb754:	14000003 	b	fffeb760 <pm_ipi_init+0x58>
    fffeb758:	52800000 	mov	w0, #0x0                   	// #0
    fffeb75c:	d65f03c0 	ret
    fffeb760:	a8c17bfd 	ldp	x29, x30, [sp],#16
    fffeb764:	d65f03c0 	ret

00000000fffeb768 <pm_ipi_send>:
    fffeb768:	a9bd7bfd 	stp	x29, x30, [sp,#-48]!
    fffeb76c:	910003fd 	mov	x29, sp
    fffeb770:	a90153f3 	stp	x19, x20, [sp,#16]
    fffeb774:	b0000093 	adrp	x19, ffffc000 <__COHERENT_RAM_START__>
    fffeb778:	aa0003f4 	mov	x20, x0
    fffeb77c:	91000273 	add	x19, x19, #0x0
    fffeb780:	f90013f5 	str	x21, [sp,#32]
    fffeb784:	aa1303e0 	mov	x0, x19
    fffeb788:	aa0103f5 	mov	x21, x1
    fffeb78c:	940009af 	bl	fffede48 <bakery_lock_get>
    fffeb790:	aa1503e1 	mov	x1, x21
    fffeb794:	91002280 	add	x0, x20, #0x8
    fffeb798:	97ffffcb 	bl	fffeb6c4 <pm_ipi_send_common.isra.3>
    fffeb79c:	2a0003f4 	mov	w20, w0
    fffeb7a0:	aa1303e0 	mov	x0, x19
    fffeb7a4:	940009f0 	bl	fffedf64 <bakery_lock_release>
    fffeb7a8:	f94013f5 	ldr	x21, [sp,#32]
    fffeb7ac:	2a1403e0 	mov	w0, w20
    fffeb7b0:	a94153f3 	ldp	x19, x20, [sp,#16]
    fffeb7b4:	a8c37bfd 	ldp	x29, x30, [sp],#48
    fffeb7b8:	d65f03c0 	ret

00000000fffeb7bc <pm_ipi_send_sync>:
    fffeb7bc:	a9bc7bfd 	stp	x29, x30, [sp,#-64]!
    fffeb7c0:	910003fd 	mov	x29, sp
    fffeb7c4:	a90153f3 	stp	x19, x20, [sp,#16]
    fffeb7c8:	b0000093 	adrp	x19, ffffc000 <__COHERENT_RAM_START__>
    fffeb7cc:	aa0103f4 	mov	x20, x1
    fffeb7d0:	a9025bf5 	stp	x21, x22, [sp,#32]
    fffeb7d4:	aa0003f5 	mov	x21, x0
    fffeb7d8:	91000260 	add	x0, x19, #0x0
    fffeb7dc:	aa0303f6 	mov	x22, x3
    fffeb7e0:	f9001bf7 	str	x23, [sp,#48]
    fffeb7e4:	aa0203f7 	mov	x23, x2
    fffeb7e8:	94000998 	bl	fffede48 <bakery_lock_get>
    fffeb7ec:	aa1403e1 	mov	x1, x20
    fffeb7f0:	910022a0 	add	x0, x21, #0x8
    fffeb7f4:	97ffffb4 	bl	fffeb6c4 <pm_ipi_send_common.isra.3>
    fffeb7f8:	2a0003f4 	mov	w20, w0
    fffeb7fc:	35000260 	cbnz	w0, fffeb848 <pm_ipi_send_sync+0x8c>
    fffeb800:	f94006a0 	ldr	x0, [x21,#8]
    fffeb804:	f9400801 	ldr	x1, [x0,#16]
    fffeb808:	f9400400 	ldr	x0, [x0,#8]
    fffeb80c:	91001000 	add	x0, x0, #0x4
    fffeb810:	b9400002 	ldr	w2, [x0]
    fffeb814:	3787ffe2 	tbnz	w2, #16, fffeb810 <pm_ipi_send_sync+0x54>
    fffeb818:	91079020 	add	x0, x1, #0x1e4
    fffeb81c:	d2800024 	mov	x4, #0x1                   	// #1
    fffeb820:	eb0402df 	cmp	x22, x4
    fffeb824:	54000103 	b.cc	fffeb844 <pm_ipi_send_sync+0x88>
    fffeb828:	cb010005 	sub	x5, x0, x1
    fffeb82c:	b9400002 	ldr	w2, [x0]
    fffeb830:	d10790a5 	sub	x5, x5, #0x1e4
    fffeb834:	91000484 	add	x4, x4, #0x1
    fffeb838:	91001000 	add	x0, x0, #0x4
    fffeb83c:	b8256ae2 	str	w2, [x23,x5]
    fffeb840:	17fffff8 	b	fffeb820 <pm_ipi_send_sync+0x64>
    fffeb844:	b941e034 	ldr	w20, [x1,#480]
    fffeb848:	91000260 	add	x0, x19, #0x0
    fffeb84c:	940009c6 	bl	fffedf64 <bakery_lock_release>
    fffeb850:	f9401bf7 	ldr	x23, [sp,#48]
    fffeb854:	2a1403e0 	mov	w0, w20
    fffeb858:	a94153f3 	ldp	x19, x20, [sp,#16]
    fffeb85c:	a9425bf5 	ldp	x21, x22, [sp,#32]
    fffeb860:	a8c47bfd 	ldp	x29, x30, [sp],#64
    fffeb864:	d65f03c0 	ret

00000000fffeb868 <pm_get_proc>:
    fffeb868:	71000c1f 	cmp	w0, #0x3
    fffeb86c:	540000c8 	b.hi	fffeb884 <pm_get_proc+0x1c>
    fffeb870:	d0000021 	adrp	x1, ffff1000 <__TEXT_END__>
    fffeb874:	d37c7c00 	ubfiz	x0, x0, #4, #32
    fffeb878:	911ca021 	add	x1, x1, #0x728
    fffeb87c:	8b000020 	add	x0, x1, x0
    fffeb880:	d65f03c0 	ret
    fffeb884:	d2800000 	mov	x0, #0x0                   	// #0
    fffeb888:	d65f03c0 	ret

00000000fffeb88c <pm_get_proc_by_node>:
    fffeb88c:	7100081f 	cmp	w0, #0x2
    fffeb890:	54000140 	b.eq	fffeb8b8 <pm_get_proc_by_node+0x2c>
    fffeb894:	71000c1f 	cmp	w0, #0x3
    fffeb898:	54000140 	b.eq	fffeb8c0 <pm_get_proc_by_node+0x34>
    fffeb89c:	7100101f 	cmp	w0, #0x4
    fffeb8a0:	54000140 	b.eq	fffeb8c8 <pm_get_proc_by_node+0x3c>
    fffeb8a4:	7100141f 	cmp	w0, #0x5
    fffeb8a8:	d2800001 	mov	x1, #0x0                   	// #0
    fffeb8ac:	54000161 	b.ne	fffeb8d8 <pm_get_proc_by_node+0x4c>
    fffeb8b0:	d2800061 	mov	x1, #0x3                   	// #3
    fffeb8b4:	14000006 	b	fffeb8cc <pm_get_proc_by_node+0x40>
    fffeb8b8:	d2800001 	mov	x1, #0x0                   	// #0
    fffeb8bc:	14000004 	b	fffeb8cc <pm_get_proc_by_node+0x40>
    fffeb8c0:	d2800021 	mov	x1, #0x1                   	// #1
    fffeb8c4:	14000002 	b	fffeb8cc <pm_get_proc_by_node+0x40>
    fffeb8c8:	d2800041 	mov	x1, #0x2                   	// #2
    fffeb8cc:	d0000020 	adrp	x0, ffff1000 <__TEXT_END__>
    fffeb8d0:	911ca000 	add	x0, x0, #0x728
    fffeb8d4:	8b011001 	add	x1, x0, x1, lsl #4
    fffeb8d8:	aa0103e0 	mov	x0, x1
    fffeb8dc:	d65f03c0 	ret

00000000fffeb8e0 <pm_client_suspend>:
    fffeb8e0:	a9b77bfd 	stp	x29, x30, [sp,#-144]!
    fffeb8e4:	910003fd 	mov	x29, sp
    fffeb8e8:	a9025bf5 	stp	x21, x22, [sp,#32]
    fffeb8ec:	b0000095 	adrp	x21, ffffc000 <__COHERENT_RAM_START__>
    fffeb8f0:	aa0003f6 	mov	x22, x0
    fffeb8f4:	910022a0 	add	x0, x21, #0x8
    fffeb8f8:	a90153f3 	stp	x19, x20, [sp,#16]
    fffeb8fc:	a90363f7 	stp	x23, x24, [sp,#48]
    fffeb900:	2a0103f3 	mov	w19, w1
    fffeb904:	a9046bf9 	stp	x25, x26, [sp,#64]
    fffeb908:	94000950 	bl	fffede48 <bakery_lock_get>
    fffeb90c:	71003e7f 	cmp	w19, #0xf
    fffeb910:	54000501 	b.ne	fffeb9b0 <pm_client_suspend+0xd0>
    fffeb914:	d2802098 	mov	x24, #0x104                 	// #260
    fffeb918:	d28007c2 	mov	x2, #0x3e                  	// #62
    fffeb91c:	52800001 	mov	w1, #0x0                   	// #0
    fffeb920:	910143a0 	add	x0, x29, #0x50
    fffeb924:	52800014 	mov	w20, #0x0                   	// #0
    fffeb928:	f2bf2038 	movk	x24, #0xf901, lsl #16
    fffeb92c:	d0000039 	adrp	x25, ffff1000 <__TEXT_END__>
    fffeb930:	94000aa1 	bl	fffee3b4 <memset>
    fffeb934:	d37e7680 	ubfiz	x0, x20, #2, #30
    fffeb938:	b8786813 	ldr	w19, [x0,x24]
    fffeb93c:	350000b3 	cbnz	w19, fffeb950 <pm_client_suspend+0x70>
    fffeb940:	11000694 	add	w20, w20, #0x1
    fffeb944:	71000e9f 	cmp	w20, #0x3
    fffeb948:	54ffff61 	b.ne	fffeb934 <pm_client_suspend+0x54>
    fffeb94c:	14000019 	b	fffeb9b0 <pm_client_suspend+0xd0>
    fffeb950:	531b6a9a 	lsl	w26, w20, #5
    fffeb954:	4b1303e2 	neg	w2, w19
    fffeb958:	0a130042 	and	w2, w2, w19
    fffeb95c:	5ac00040 	rbit	w0, w2
    fffeb960:	5ac01000 	clz	w0, w0
    fffeb964:	0b1a0000 	add	w0, w0, w26
    fffeb968:	7101501f 	cmp	w0, #0x54
    fffeb96c:	54fffea8 	b.hi	fffeb940 <pm_client_suspend+0x60>
    fffeb970:	911da321 	add	x1, x25, #0x768
    fffeb974:	0a220273 	bic	w19, w19, w2
    fffeb978:	b8605821 	ldr	w1, [x1,w0,uxtw #2]
    fffeb97c:	34000161 	cbz	w1, fffeb9a8 <pm_client_suspend+0xc8>
    fffeb980:	d13dc3a0 	sub	x0, x29, #0xf70
    fffeb984:	8b214017 	add	x23, x0, w1, uxtw
    fffeb988:	397f02e0 	ldrb	w0, [x23,#4032]
    fffeb98c:	350000e0 	cbnz	w0, fffeb9a8 <pm_client_suspend+0xc8>
    fffeb990:	52800022 	mov	w2, #0x1                   	// #1
    fffeb994:	2a0203e0 	mov	w0, w2
    fffeb998:	97fffe4d 	bl	fffeb2cc <pm_set_wakeup_source>
    fffeb99c:	6b1f001f 	cmp	w0, wzr
    fffeb9a0:	1a9f17e0 	cset	w0, eq
    fffeb9a4:	393f02e0 	strb	w0, [x23,#4032]
    fffeb9a8:	35fffd73 	cbnz	w19, fffeb954 <pm_client_suspend+0x74>
    fffeb9ac:	17ffffe5 	b	fffeb940 <pm_client_suspend+0x60>
    fffeb9b0:	d2801201 	mov	x1, #0x90                  	// #144
    fffeb9b4:	b94006c0 	ldr	w0, [x22,#4]
    fffeb9b8:	f2bfab81 	movk	x1, #0xfd5c, lsl #16
    fffeb9bc:	b9400022 	ldr	w2, [x1]
    fffeb9c0:	2a000040 	orr	w0, w2, w0
    fffeb9c4:	b9000020 	str	w0, [x1]
    fffeb9c8:	910022a0 	add	x0, x21, #0x8
    fffeb9cc:	94000966 	bl	fffedf64 <bakery_lock_release>
    fffeb9d0:	a94153f3 	ldp	x19, x20, [sp,#16]
    fffeb9d4:	a9425bf5 	ldp	x21, x22, [sp,#32]
    fffeb9d8:	a94363f7 	ldp	x23, x24, [sp,#48]
    fffeb9dc:	a9446bf9 	ldp	x25, x26, [sp,#64]
    fffeb9e0:	a8c97bfd 	ldp	x29, x30, [sp],#144
    fffeb9e4:	d65f03c0 	ret

00000000fffeb9e8 <pm_client_abort_suspend>:
    fffeb9e8:	a9be7bfd 	stp	x29, x30, [sp,#-32]!
    fffeb9ec:	910003fd 	mov	x29, sp
    fffeb9f0:	f9000bf3 	str	x19, [sp,#16]
    fffeb9f4:	b0000093 	adrp	x19, ffffc000 <__COHERENT_RAM_START__>
    fffeb9f8:	94000cb8 	bl	fffeecd8 <gicv2_cpuif_enable>
    fffeb9fc:	91002273 	add	x19, x19, #0x8
    fffeba00:	aa1303e0 	mov	x0, x19
    fffeba04:	94000911 	bl	fffede48 <bakery_lock_get>
    fffeba08:	b0000040 	adrp	x0, ffff4000 <__RODATA_END__>
    fffeba0c:	d2801201 	mov	x1, #0x90                  	// #144
    fffeba10:	f2bfab81 	movk	x1, #0xfd5c, lsl #16
    fffeba14:	f9400400 	ldr	x0, [x0,#8]
    fffeba18:	b9400022 	ldr	w2, [x1]
    fffeba1c:	b9400400 	ldr	w0, [x0,#4]
    fffeba20:	0a200040 	bic	w0, w2, w0
    fffeba24:	b9000020 	str	w0, [x1]
    fffeba28:	aa1303e0 	mov	x0, x19
    fffeba2c:	f9400bf3 	ldr	x19, [sp,#16]
    fffeba30:	a8c27bfd 	ldp	x29, x30, [sp],#32
    fffeba34:	1400094c 	b	fffedf64 <bakery_lock_release>

00000000fffeba38 <pm_client_wakeup>:
    fffeba38:	b9400001 	ldr	w1, [x0]
    fffeba3c:	51000821 	sub	w1, w1, #0x2
    fffeba40:	71000c3f 	cmp	w1, #0x3
    fffeba44:	54000268 	b.hi	fffeba90 <pm_client_wakeup+0x58>
    fffeba48:	a9be7bfd 	stp	x29, x30, [sp,#-32]!
    fffeba4c:	910003fd 	mov	x29, sp
    fffeba50:	a90153f3 	stp	x19, x20, [sp,#16]
    fffeba54:	b0000093 	adrp	x19, ffffc000 <__COHERENT_RAM_START__>
    fffeba58:	aa0003f4 	mov	x20, x0
    fffeba5c:	91002273 	add	x19, x19, #0x8
    fffeba60:	aa1303e0 	mov	x0, x19
    fffeba64:	940008f9 	bl	fffede48 <bakery_lock_get>
    fffeba68:	d2801201 	mov	x1, #0x90                  	// #144
    fffeba6c:	b9400680 	ldr	w0, [x20,#4]
    fffeba70:	f2bfab81 	movk	x1, #0xfd5c, lsl #16
    fffeba74:	b9400022 	ldr	w2, [x1]
    fffeba78:	0a200040 	bic	w0, w2, w0
    fffeba7c:	b9000020 	str	w0, [x1]
    fffeba80:	aa1303e0 	mov	x0, x19
    fffeba84:	a94153f3 	ldp	x19, x20, [sp,#16]
    fffeba88:	a8c27bfd 	ldp	x29, x30, [sp],#32
    fffeba8c:	14000936 	b	fffedf64 <bakery_lock_release>
    fffeba90:	d65f03c0 	ret

00000000fffeba94 <get_arm_std_svc_args>:
    fffeba94:	529ffc01 	mov	w1, #0xffe0                	// #65504
    fffeba98:	6b01001f 	cmp	w0, w1
    fffeba9c:	54000160 	b.eq	fffebac8 <get_arm_std_svc_args+0x34>
    fffebaa0:	a9bf7bfd 	stp	x29, x30, [sp,#-16]!
    fffebaa4:	d0000023 	adrp	x3, ffff1000 <__TEXT_END__>
    fffebaa8:	d0000021 	adrp	x1, ffff1000 <__TEXT_END__>
    fffebaac:	d0000020 	adrp	x0, ffff1000 <__TEXT_END__>
    fffebab0:	910003fd 	mov	x29, sp
    fffebab4:	91234063 	add	x3, x3, #0x8d0
    fffebab8:	52800842 	mov	w2, #0x42                  	// #66
    fffebabc:	9123a821 	add	x1, x1, #0x8ea
    fffebac0:	9129a000 	add	x0, x0, #0xa68
    fffebac4:	94000a35 	bl	fffee398 <__assert>
    fffebac8:	d0000020 	adrp	x0, ffff1000 <__TEXT_END__>
    fffebacc:	91230000 	add	x0, x0, #0x8c0
    fffebad0:	d65f03c0 	ret

00000000fffebad4 <bl31_prepare_next_image_entry>:
    fffebad4:	a9be7bfd 	stp	x29, x30, [sp,#-32]!
    fffebad8:	910003fd 	mov	x29, sp
    fffebadc:	a90153f3 	stp	x19, x20, [sp,#16]
    fffebae0:	d5380400 	mrs	x0, id_aa64pfr0_el1
    fffebae4:	d3441c00 	ubfx	x0, x0, #4, #4
    fffebae8:	f100041f 	cmp	x0, #0x1
    fffebaec:	540000a1 	b.ne	fffebb00 <bl31_prepare_next_image_entry+0x2c>
    fffebaf0:	d0000020 	adrp	x0, ffff1000 <__TEXT_END__>
    fffebaf4:	9124b000 	add	x0, x0, #0x92c
    fffebaf8:	94000967 	bl	fffee094 <tf_printf>
    fffebafc:	9400110e 	bl	fffeff34 <do_panic>
    fffebb00:	b0000040 	adrp	x0, ffff4000 <__RODATA_END__>
    fffebb04:	b9401013 	ldr	w19, [x0,#16]
    fffebb08:	2a1303e0 	mov	w0, w19
    fffebb0c:	97fffa46 	bl	fffea424 <bl31_plat_get_next_image_ep_info>
    fffebb10:	aa0003f4 	mov	x20, x0
    fffebb14:	b50000a0 	cbnz	x0, fffebb28 <bl31_prepare_next_image_entry+0x54>
    fffebb18:	d0000023 	adrp	x3, ffff1000 <__TEXT_END__>
    fffebb1c:	52801642 	mov	w2, #0xb2                  	// #178
    fffebb20:	91260c63 	add	x3, x3, #0x983
    fffebb24:	14000008 	b	fffebb44 <bl31_prepare_next_image_entry+0x70>
    fffebb28:	b9400400 	ldr	w0, [x0,#4]
    fffebb2c:	12000000 	and	w0, w0, #0x1
    fffebb30:	6b00027f 	cmp	w19, w0
    fffebb34:	54000120 	b.eq	fffebb58 <bl31_prepare_next_image_entry+0x84>
    fffebb38:	d0000023 	adrp	x3, ffff1000 <__TEXT_END__>
    fffebb3c:	52801662 	mov	w2, #0xb3                  	// #179
    fffebb40:	91264c63 	add	x3, x3, #0x993
    fffebb44:	d0000021 	adrp	x1, ffff1000 <__TEXT_END__>
    fffebb48:	d0000020 	adrp	x0, ffff1000 <__TEXT_END__>
    fffebb4c:	9123a821 	add	x1, x1, #0x8ea
    fffebb50:	912a0000 	add	x0, x0, #0xa80
    fffebb54:	94000a11 	bl	fffee398 <__assert>
    fffebb58:	34000093 	cbz	w19, fffebb68 <bl31_prepare_next_image_entry+0x94>
    fffebb5c:	d0000021 	adrp	x1, ffff1000 <__TEXT_END__>
    fffebb60:	91249421 	add	x1, x1, #0x925
    fffebb64:	14000003 	b	fffebb70 <bl31_prepare_next_image_entry+0x9c>
    fffebb68:	d0000021 	adrp	x1, ffff1000 <__TEXT_END__>
    fffebb6c:	91247821 	add	x1, x1, #0x91e
    fffebb70:	d0000020 	adrp	x0, ffff1000 <__TEXT_END__>
    fffebb74:	91273400 	add	x0, x0, #0x9cd
    fffebb78:	94000947 	bl	fffee094 <tf_printf>
    fffebb7c:	aa1403e0 	mov	x0, x20
    fffebb80:	9400091a 	bl	fffedfe8 <print_entry_point_info>
    fffebb84:	aa1403e0 	mov	x0, x20
    fffebb88:	940001e8 	bl	fffec328 <cm_init_my_context>
    fffebb8c:	2a1303e0 	mov	w0, w19
    fffebb90:	a94153f3 	ldp	x19, x20, [sp,#16]
    fffebb94:	a8c27bfd 	ldp	x29, x30, [sp],#32
    fffebb98:	140001ef 	b	fffec354 <cm_prepare_el3_exit>

00000000fffebb9c <bl31_main>:
    fffebb9c:	a9be7bfd 	stp	x29, x30, [sp,#-32]!
    fffebba0:	d0000021 	adrp	x1, ffff1000 <__TEXT_END__>
    fffebba4:	910003fd 	mov	x29, sp
    fffebba8:	f9000bf3 	str	x19, [sp,#16]
    fffebbac:	d0000033 	adrp	x19, ffff1000 <__TEXT_END__>
    fffebbb0:	91280273 	add	x19, x19, #0xa00
    fffebbb4:	91000021 	add	x1, x1, #0x0
    fffebbb8:	aa1303e0 	mov	x0, x19
    fffebbbc:	94000936 	bl	fffee094 <tf_printf>
    fffebbc0:	d0000021 	adrp	x1, ffff1000 <__TEXT_END__>
    fffebbc4:	aa1303e0 	mov	x0, x19
    fffebbc8:	91006021 	add	x1, x1, #0x18
    fffebbcc:	d0000053 	adrp	x19, ffff5000 <__STACKS_START__+0xfc0>
    fffebbd0:	94000931 	bl	fffee094 <tf_printf>
    fffebbd4:	97fffa7b 	bl	fffea5c0 <bl31_platform_setup>
    fffebbd8:	940001c8 	bl	fffec2f8 <cm_init>
    fffebbdc:	d0000020 	adrp	x0, ffff1000 <__TEXT_END__>
    fffebbe0:	91284c00 	add	x0, x0, #0xa13
    fffebbe4:	9400092c 	bl	fffee094 <tf_printf>
    fffebbe8:	940000d5 	bl	fffebf3c <runtime_svc_init>
    fffebbec:	f9431a60 	ldr	x0, [x19,#1584]
    fffebbf0:	b40000c0 	cbz	x0, fffebc08 <bl31_main+0x6c>
    fffebbf4:	d0000020 	adrp	x0, ffff1000 <__TEXT_END__>
    fffebbf8:	91290400 	add	x0, x0, #0xa41
    fffebbfc:	94000926 	bl	fffee094 <tf_printf>
    fffebc00:	f9431a60 	ldr	x0, [x19,#1584]
    fffebc04:	d63f0000 	blr	x0
    fffebc08:	97ffffb3 	bl	fffebad4 <bl31_prepare_next_image_entry>
    fffebc0c:	f9400bf3 	ldr	x19, [sp,#16]
    fffebc10:	a8c27bfd 	ldp	x29, x30, [sp],#32
    fffebc14:	17fffa70 	b	fffea5d4 <bl31_plat_runtime_setup>

00000000fffebc18 <set_scr_el3_from_rm>:
    fffebc18:	a9bd7bfd 	stp	x29, x30, [sp,#-48]!
    fffebc1c:	1ac22421 	lsr	w1, w1, w2
    fffebc20:	910003fd 	mov	x29, sp
    fffebc24:	a9025bf5 	stp	x21, x22, [sp,#32]
    fffebc28:	12000035 	and	w21, w1, #0x1
    fffebc2c:	2a0203e1 	mov	w1, w2
    fffebc30:	a90153f3 	stp	x19, x20, [sp,#16]
    fffebc34:	2a0203f4 	mov	w20, w2
    fffebc38:	2a0003f3 	mov	w19, w0
    fffebc3c:	94000dfd 	bl	fffef430 <plat_interrupt_type_to_line>
    fffebc40:	2a0003f6 	mov	w22, w0
    fffebc44:	d28000c0 	mov	x0, #0x6                   	// #6
    fffebc48:	9b007e73 	mul	x19, x19, x0
    fffebc4c:	8b344260 	add	x0, x19, w20, uxtw
    fffebc50:	d0000053 	adrp	x19, ffff5000 <__STACKS_START__+0xfc0>
    fffebc54:	9118e273 	add	x19, x19, #0x638
    fffebc58:	8b000a73 	add	x19, x19, x0, lsl #2
    fffebc5c:	1ad622a0 	lsl	w0, w21, w22
    fffebc60:	b9000e60 	str	w0, [x19,#12]
    fffebc64:	2a1403e0 	mov	w0, w20
    fffebc68:	9400007f 	bl	fffebe64 <cm_get_context>
    fffebc6c:	b4000100 	cbz	x0, fffebc8c <set_scr_el3_from_rm+0x74>
    fffebc70:	2a1503e2 	mov	w2, w21
    fffebc74:	2a1603e1 	mov	w1, w22
    fffebc78:	2a1403e0 	mov	w0, w20
    fffebc7c:	a9425bf5 	ldp	x21, x22, [sp,#32]
    fffebc80:	a94153f3 	ldp	x19, x20, [sp,#16]
    fffebc84:	a8c37bfd 	ldp	x29, x30, [sp],#48
    fffebc88:	140001e9 	b	fffec42c <cm_write_scr_el3_bit>
    fffebc8c:	a94153f3 	ldp	x19, x20, [sp,#16]
    fffebc90:	a9425bf5 	ldp	x21, x22, [sp,#32]
    fffebc94:	a8c37bfd 	ldp	x29, x30, [sp],#48
    fffebc98:	d65f03c0 	ret

00000000fffebc9c <get_scr_el3_from_routing_model>:
    fffebc9c:	7100041f 	cmp	w0, #0x1
    fffebca0:	54000169 	b.ls	fffebccc <get_scr_el3_from_routing_model+0x30>
    fffebca4:	a9bf7bfd 	stp	x29, x30, [sp,#-16]!
    fffebca8:	d0000023 	adrp	x3, ffff1000 <__TEXT_END__>
    fffebcac:	d0000021 	adrp	x1, ffff1000 <__TEXT_END__>
    fffebcb0:	d0000020 	adrp	x0, ffff1000 <__TEXT_END__>
    fffebcb4:	910003fd 	mov	x29, sp
    fffebcb8:	9123ec63 	add	x3, x3, #0x8fb
    fffebcbc:	52800e22 	mov	w2, #0x71                  	// #113
    fffebcc0:	912b0021 	add	x1, x1, #0xac0
    fffebcc4:	912a8000 	add	x0, x0, #0xaa0
    fffebcc8:	940009b4 	bl	fffee398 <__assert>
    fffebccc:	d0000041 	adrp	x1, ffff5000 <__STACKS_START__+0xfc0>
    fffebcd0:	9118e022 	add	x2, x1, #0x638
    fffebcd4:	2a0003e1 	mov	w1, w0
    fffebcd8:	8b010840 	add	x0, x2, x1, lsl #2
    fffebcdc:	b9403c03 	ldr	w3, [x0,#60]
    fffebce0:	8b010840 	add	x0, x2, x1, lsl #2
    fffebce4:	8b010841 	add	x1, x2, x1, lsl #2
    fffebce8:	b9400c00 	ldr	w0, [x0,#12]
    fffebcec:	b9402421 	ldr	w1, [x1,#36]
    fffebcf0:	2a000060 	orr	w0, w3, w0
    fffebcf4:	2a010000 	orr	w0, w0, w1
    fffebcf8:	d65f03c0 	ret

00000000fffebcfc <set_routing_model>:
    fffebcfc:	a9bd7bfd 	stp	x29, x30, [sp,#-48]!
    fffebd00:	7100081f 	cmp	w0, #0x2
    fffebd04:	910003fd 	mov	x29, sp
    fffebd08:	a90153f3 	stp	x19, x20, [sp,#16]
    fffebd0c:	f90013f5 	str	x21, [sp,#32]
    fffebd10:	54000108 	b.hi	fffebd30 <set_routing_model+0x34>
    fffebd14:	7100041f 	cmp	w0, #0x1
    fffebd18:	12000422 	and	w2, w1, #0x3
    fffebd1c:	54000040 	b.eq	fffebd24 <set_routing_model+0x28>
    fffebd20:	350000c0 	cbnz	w0, fffebd38 <set_routing_model+0x3c>
    fffebd24:	51000842 	sub	w2, w2, #0x2
    fffebd28:	7100045f 	cmp	w2, #0x1
    fffebd2c:	54000109 	b.ls	fffebd4c <set_routing_model+0x50>
    fffebd30:	128002b5 	mov	w21, #0xffffffea            	// #-22
    fffebd34:	14000019 	b	fffebd98 <set_routing_model+0x9c>
    fffebd38:	7100081f 	cmp	w0, #0x2
    fffebd3c:	128002b5 	mov	w21, #0xffffffea            	// #-22
    fffebd40:	540002c1 	b.ne	fffebd98 <set_routing_model+0x9c>
    fffebd44:	7100045f 	cmp	w2, #0x1
    fffebd48:	54000288 	b.hi	fffebd98 <set_routing_model+0x9c>
    fffebd4c:	2a0103f4 	mov	w20, w1
    fffebd50:	2a0003e1 	mov	w1, w0
    fffebd54:	d0000040 	adrp	x0, ffff5000 <__STACKS_START__+0xfc0>
    fffebd58:	d2800302 	mov	x2, #0x18                  	// #24
    fffebd5c:	9118e000 	add	x0, x0, #0x638
    fffebd60:	aa0103f3 	mov	x19, x1
    fffebd64:	9b020020 	madd	x0, x1, x2, x0
    fffebd68:	b9000814 	str	w20, [x0,#8]
    fffebd6c:	360000b4 	tbz	w20, #0, fffebd80 <set_routing_model+0x84>
    fffebd70:	52800002 	mov	w2, #0x0                   	// #0
    fffebd74:	2a1403e1 	mov	w1, w20
    fffebd78:	2a1303e0 	mov	w0, w19
    fffebd7c:	97ffffa7 	bl	fffebc18 <set_scr_el3_from_rm>
    fffebd80:	52800015 	mov	w21, #0x0                   	// #0
    fffebd84:	360800b4 	tbz	w20, #1, fffebd98 <set_routing_model+0x9c>
    fffebd88:	52800022 	mov	w2, #0x1                   	// #1
    fffebd8c:	2a1403e1 	mov	w1, w20
    fffebd90:	2a1303e0 	mov	w0, w19
    fffebd94:	97ffffa1 	bl	fffebc18 <set_scr_el3_from_rm>
    fffebd98:	2a1503e0 	mov	w0, w21
    fffebd9c:	f94013f5 	ldr	x21, [sp,#32]
    fffebda0:	a94153f3 	ldp	x19, x20, [sp,#16]
    fffebda4:	a8c37bfd 	ldp	x29, x30, [sp],#48
    fffebda8:	d65f03c0 	ret

00000000fffebdac <register_interrupt_type_handler>:
    fffebdac:	128002a3 	mov	w3, #0xffffffea            	// #-22
    fffebdb0:	b40002e1 	cbz	x1, fffebe0c <register_interrupt_type_handler+0x60>
    fffebdb4:	721e745f 	tst	w2, #0xfffffffc
    fffebdb8:	540002a1 	b.ne	fffebe0c <register_interrupt_type_handler+0x60>
    fffebdbc:	a9bd7bfd 	stp	x29, x30, [sp,#-48]!
    fffebdc0:	aa0103e4 	mov	x4, x1
    fffebdc4:	d2800301 	mov	x1, #0x18                  	// #24
    fffebdc8:	910003fd 	mov	x29, sp
    fffebdcc:	a90153f3 	stp	x19, x20, [sp,#16]
    fffebdd0:	2a0003f3 	mov	w19, w0
    fffebdd4:	d0000054 	adrp	x20, ffff5000 <__STACKS_START__+0xfc0>
    fffebdd8:	9118e294 	add	x20, x20, #0x638
    fffebddc:	f90013f5 	str	x21, [sp,#32]
    fffebde0:	9b017e73 	mul	x19, x19, x1
    fffebde4:	12800483 	mov	w3, #0xffffffdb            	// #-37
    fffebde8:	f8736a81 	ldr	x1, [x20,x19]
    fffebdec:	b5000141 	cbnz	x1, fffebe14 <register_interrupt_type_handler+0x68>
    fffebdf0:	2a0203e1 	mov	w1, w2
    fffebdf4:	aa0403f5 	mov	x21, x4
    fffebdf8:	97ffffc1 	bl	fffebcfc <set_routing_model>
    fffebdfc:	2a0003e3 	mov	w3, w0
    fffebe00:	350000a0 	cbnz	w0, fffebe14 <register_interrupt_type_handler+0x68>
    fffebe04:	f8336a95 	str	x21, [x20,x19]
    fffebe08:	14000003 	b	fffebe14 <register_interrupt_type_handler+0x68>
    fffebe0c:	2a0303e0 	mov	w0, w3
    fffebe10:	d65f03c0 	ret
    fffebe14:	2a0303e0 	mov	w0, w3
    fffebe18:	f94013f5 	ldr	x21, [sp,#32]
    fffebe1c:	a94153f3 	ldp	x19, x20, [sp,#16]
    fffebe20:	a8c37bfd 	ldp	x29, x30, [sp],#48
    fffebe24:	d65f03c0 	ret

00000000fffebe28 <get_interrupt_type_handler>:
    fffebe28:	7100081f 	cmp	w0, #0x2
    fffebe2c:	54000069 	b.ls	fffebe38 <get_interrupt_type_handler+0x10>
    fffebe30:	d2800000 	mov	x0, #0x0                   	// #0
    fffebe34:	d65f03c0 	ret
    fffebe38:	d0000041 	adrp	x1, ffff5000 <__STACKS_START__+0xfc0>
    fffebe3c:	35000080 	cbnz	w0, fffebe4c <get_interrupt_type_handler+0x24>
    fffebe40:	f9431c20 	ldr	x0, [x1,#1592]
    fffebe44:	eb1f001f 	cmp	x0, xzr
    fffebe48:	1a9f17e0 	cset	w0, eq
    fffebe4c:	d2800302 	mov	x2, #0x18                  	// #24
    fffebe50:	2a0003e0 	mov	w0, w0
    fffebe54:	9118e021 	add	x1, x1, #0x638
    fffebe58:	9b027c00 	mul	x0, x0, x2
    fffebe5c:	f8606820 	ldr	x0, [x1,x0]
    fffebe60:	d65f03c0 	ret

00000000fffebe64 <cm_get_context>:
    fffebe64:	7100041f 	cmp	w0, #0x1
    fffebe68:	54000169 	b.ls	fffebe94 <cm_get_context+0x30>
    fffebe6c:	a9bf7bfd 	stp	x29, x30, [sp,#-16]!
    fffebe70:	d0000023 	adrp	x3, ffff1000 <__TEXT_END__>
    fffebe74:	d0000021 	adrp	x1, ffff1000 <__TEXT_END__>
    fffebe78:	d0000020 	adrp	x0, ffff1000 <__TEXT_END__>
    fffebe7c:	910003fd 	mov	x29, sp
    fffebe80:	912c4063 	add	x3, x3, #0xb10
    fffebe84:	528005e2 	mov	w2, #0x2f                  	// #47
    fffebe88:	912cb421 	add	x1, x1, #0xb2d
    fffebe8c:	912d8000 	add	x0, x0, #0xb60
    fffebe90:	94000942 	bl	fffee398 <__assert>
    fffebe94:	d53ed041 	mrs	x1, tpidr_el3
    fffebe98:	f8605820 	ldr	x0, [x1,w0,uxtw #3]
    fffebe9c:	d65f03c0 	ret

00000000fffebea0 <cm_get_context_by_index>:
    fffebea0:	a9be7bfd 	stp	x29, x30, [sp,#-32]!
    fffebea4:	7100043f 	cmp	w1, #0x1
    fffebea8:	910003fd 	mov	x29, sp
    fffebeac:	f9000bf3 	str	x19, [sp,#16]
    fffebeb0:	54000129 	b.ls	fffebed4 <cm_get_context_by_index+0x34>
    fffebeb4:	d0000023 	adrp	x3, ffff1000 <__TEXT_END__>
    fffebeb8:	d0000021 	adrp	x1, ffff1000 <__TEXT_END__>
    fffebebc:	d0000020 	adrp	x0, ffff1000 <__TEXT_END__>
    fffebec0:	9123ec63 	add	x3, x3, #0x8fb
    fffebec4:	52800902 	mov	w2, #0x48                  	// #72
    fffebec8:	912cb421 	add	x1, x1, #0xb2d
    fffebecc:	912d2000 	add	x0, x0, #0xb48
    fffebed0:	94000932 	bl	fffee398 <__assert>
    fffebed4:	2a0103f3 	mov	w19, w1
    fffebed8:	94000f21 	bl	fffefb5c <_cpu_data_by_index>
    fffebedc:	f8735800 	ldr	x0, [x0,w19,uxtw #3]
    fffebee0:	f9400bf3 	ldr	x19, [sp,#16]
    fffebee4:	a8c27bfd 	ldp	x29, x30, [sp],#32
    fffebee8:	d65f03c0 	ret

00000000fffebeec <cm_set_context_by_index>:
    fffebeec:	a9be7bfd 	stp	x29, x30, [sp,#-32]!
    fffebef0:	7100045f 	cmp	w2, #0x1
    fffebef4:	910003fd 	mov	x29, sp
    fffebef8:	a90153f3 	stp	x19, x20, [sp,#16]
    fffebefc:	54000129 	b.ls	fffebf20 <cm_set_context_by_index+0x34>
    fffebf00:	d0000023 	adrp	x3, ffff1000 <__TEXT_END__>
    fffebf04:	d0000021 	adrp	x1, ffff1000 <__TEXT_END__>
    fffebf08:	d0000020 	adrp	x0, ffff1000 <__TEXT_END__>
    fffebf0c:	9123ec63 	add	x3, x3, #0x8fb
    fffebf10:	52800a82 	mov	w2, #0x54                  	// #84
    fffebf14:	912cb421 	add	x1, x1, #0xb2d
    fffebf18:	912be000 	add	x0, x0, #0xaf8
    fffebf1c:	9400091f 	bl	fffee398 <__assert>
    fffebf20:	2a0203f3 	mov	w19, w2
    fffebf24:	aa0103f4 	mov	x20, x1
    fffebf28:	94000f0d 	bl	fffefb5c <_cpu_data_by_index>
    fffebf2c:	f8335814 	str	x20, [x0,w19,uxtw #3]
    fffebf30:	a94153f3 	ldp	x19, x20, [sp,#16]
    fffebf34:	a8c27bfd 	ldp	x29, x30, [sp],#32
    fffebf38:	d65f03c0 	ret

00000000fffebf3c <runtime_svc_init>:
    fffebf3c:	a9bb7bfd 	stp	x29, x30, [sp,#-80]!
    fffebf40:	910003fd 	mov	x29, sp
    fffebf44:	a90153f3 	stp	x19, x20, [sp,#16]
    fffebf48:	90000054 	adrp	x20, ffff3000 <__func__.1286>
    fffebf4c:	90000053 	adrp	x19, ffff3000 <__func__.1286>
    fffebf50:	912b4294 	add	x20, x20, #0xad0
    fffebf54:	912c4273 	add	x19, x19, #0xb10
    fffebf58:	a9025bf5 	stp	x21, x22, [sp,#32]
    fffebf5c:	a90363f7 	stp	x23, x24, [sp,#48]
    fffebf60:	a9046bf9 	stp	x25, x26, [sp,#64]
    fffebf64:	eb13029f 	cmp	x20, x19
    fffebf68:	54000088 	b.hi	fffebf78 <runtime_svc_init+0x3c>
    fffebf6c:	cb140273 	sub	x19, x19, x20
    fffebf70:	f13ffe7f 	cmp	x19, #0xfff
    fffebf74:	54000129 	b.ls	fffebf98 <runtime_svc_init+0x5c>
    fffebf78:	d0000023 	adrp	x3, ffff1000 <__TEXT_END__>
    fffebf7c:	d0000021 	adrp	x1, ffff1000 <__TEXT_END__>
    fffebf80:	d0000020 	adrp	x0, ffff1000 <__TEXT_END__>
    fffebf84:	912e3063 	add	x3, x3, #0xb8c
    fffebf88:	52800ee2 	mov	w2, #0x77                  	// #119
    fffebf8c:	912ddc21 	add	x1, x1, #0xb77
    fffebf90:	9130e000 	add	x0, x0, #0xc38
    fffebf94:	94000901 	bl	fffee398 <__assert>
    fffebf98:	f1007e7f 	cmp	x19, #0x1f
    fffebf9c:	540007a9 	b.ls	fffec090 <runtime_svc_init+0x154>
    fffebfa0:	f0000055 	adrp	x21, ffff6000 <base_xlation_table>
    fffebfa4:	d0000059 	adrp	x25, ffff5000 <__STACKS_START__+0xfc0>
    fffebfa8:	910142b5 	add	x21, x21, #0x50
    fffebfac:	d2801002 	mov	x2, #0x80                  	// #128
    fffebfb0:	12800001 	mov	w1, #0xffffffff            	// #-1
    fffebfb4:	aa1503e0 	mov	x0, x21
    fffebfb8:	d0000036 	adrp	x22, ffff1000 <__TEXT_END__>
    fffebfbc:	d345fe73 	lsr	x19, x19, #5
    fffebfc0:	940008fd 	bl	fffee3b4 <memset>
    fffebfc4:	d2800018 	mov	x24, #0x0                   	// #0
    fffebfc8:	f9034334 	str	x20, [x25,#1664]
    fffebfcc:	528007f7 	mov	w23, #0x3f                  	// #63
    fffebfd0:	912f62d6 	add	x22, x22, #0xbd8
    fffebfd4:	f9434320 	ldr	x0, [x25,#1664]
    fffebfd8:	d37beb1a 	lsl	x26, x24, #5
    fffebfdc:	ab1a0014 	adds	x20, x0, x26
    fffebfe0:	540004e0 	b.eq	fffec07c <runtime_svc_init+0x140>
    fffebfe4:	39400681 	ldrb	w1, [x20,#1]
    fffebfe8:	387a6800 	ldrb	w0, [x0,x26]
    fffebfec:	6b01001f 	cmp	w0, w1
    fffebff0:	7a579022 	ccmp	w1, w23, #0x2, ls
    fffebff4:	54000448 	b.hi	fffec07c <runtime_svc_init+0x140>
    fffebff8:	39400a80 	ldrb	w0, [x20,#2]
    fffebffc:	7100041f 	cmp	w0, #0x1
    fffec000:	540003e8 	b.hi	fffec07c <runtime_svc_init+0x140>
    fffec004:	f9400a80 	ldr	x0, [x20,#16]
    fffec008:	b5000080 	cbnz	x0, fffec018 <runtime_svc_init+0xdc>
    fffec00c:	f9400e80 	ldr	x0, [x20,#24]
    fffec010:	b5000100 	cbnz	x0, fffec030 <runtime_svc_init+0xf4>
    fffec014:	1400001a 	b	fffec07c <runtime_svc_init+0x140>
    fffec018:	d63f0000 	blr	x0
    fffec01c:	340000a0 	cbz	w0, fffec030 <runtime_svc_init+0xf4>
    fffec020:	f9400681 	ldr	x1, [x20,#8]
    fffec024:	aa1603e0 	mov	x0, x22
    fffec028:	9400081b 	bl	fffee094 <tf_printf>
    fffec02c:	14000010 	b	fffec06c <runtime_svc_init+0x130>
    fffec030:	f9434321 	ldr	x1, [x25,#1664]
    fffec034:	39400a80 	ldrb	w0, [x20,#2]
    fffec038:	8b1a0022 	add	x2, x1, x26
    fffec03c:	387a6821 	ldrb	w1, [x1,x26]
    fffec040:	531a0000 	ubfiz	w0, w0, #6, #1
    fffec044:	39400442 	ldrb	w2, [x2,#1]
    fffec048:	12001421 	and	w1, w1, #0x3f
    fffec04c:	2a000021 	orr	w1, w1, w0
    fffec050:	12001442 	and	w2, w2, #0x3f
    fffec054:	2a000040 	orr	w0, w2, w0
    fffec058:	6b00003f 	cmp	w1, w0
    fffec05c:	5400008c 	b.gt	fffec06c <runtime_svc_init+0x130>
    fffec060:	3821cab8 	strb	w24, [x21,w1,sxtw]
    fffec064:	11000421 	add	w1, w1, #0x1
    fffec068:	17fffffc 	b	fffec058 <runtime_svc_init+0x11c>
    fffec06c:	91000718 	add	x24, x24, #0x1
    fffec070:	eb18027f 	cmp	x19, x24
    fffec074:	54fffb01 	b.ne	fffebfd4 <runtime_svc_init+0x98>
    fffec078:	14000006 	b	fffec090 <runtime_svc_init+0x154>
    fffec07c:	b0000020 	adrp	x0, ffff1000 <__TEXT_END__>
    fffec080:	aa1403e1 	mov	x1, x20
    fffec084:	91302000 	add	x0, x0, #0xc08
    fffec088:	94000803 	bl	fffee094 <tf_printf>
    fffec08c:	94000faa 	bl	fffeff34 <do_panic>
    fffec090:	a94153f3 	ldp	x19, x20, [sp,#16]
    fffec094:	a9425bf5 	ldp	x21, x22, [sp,#32]
    fffec098:	a94363f7 	ldp	x23, x24, [sp,#48]
    fffec09c:	a9446bf9 	ldp	x25, x26, [sp,#64]
    fffec0a0:	a8c57bfd 	ldp	x29, x30, [sp],#80
    fffec0a4:	d65f03c0 	ret

00000000fffec0a8 <std_svc_smc_handler>:
    fffec0a8:	a9be7bfd 	stp	x29, x30, [sp,#-32]!
    fffec0ac:	721b281f 	tst	w0, #0xffe0
    fffec0b0:	910003fd 	mov	x29, sp
    fffec0b4:	f9000bf3 	str	x19, [sp,#16]
    fffec0b8:	aa0603f3 	mov	x19, x6
    fffec0bc:	54000061 	b.ne	fffec0c8 <std_svc_smc_handler+0x20>
    fffec0c0:	94000600 	bl	fffed8c0 <psci_smc_handler>
    fffec0c4:	14000021 	b	fffec148 <std_svc_smc_handler+0xa0>
    fffec0c8:	2a0003e8 	mov	w8, w0
    fffec0cc:	529fe020 	mov	w0, #0xff01                	// #65281
    fffec0d0:	72b08000 	movk	w0, #0x8400, lsl #16
    fffec0d4:	6b00011f 	cmp	w8, w0
    fffec0d8:	54000140 	b.eq	fffec100 <std_svc_smc_handler+0x58>
    fffec0dc:	11000800 	add	w0, w0, #0x2
    fffec0e0:	6b00011f 	cmp	w8, w0
    fffec0e4:	54000220 	b.eq	fffec128 <std_svc_smc_handler+0x80>
    fffec0e8:	529fe000 	mov	w0, #0xff00                	// #65280
    fffec0ec:	72b08000 	movk	w0, #0x8400, lsl #16
    fffec0f0:	6b00011f 	cmp	w8, w0
    fffec0f4:	54000201 	b.ne	fffec134 <std_svc_smc_handler+0x8c>
    fffec0f8:	d2800240 	mov	x0, #0x12                  	// #18
    fffec0fc:	14000013 	b	fffec148 <std_svc_smc_handler+0xa0>
    fffec100:	b0000020 	adrp	x0, ffff1000 <__TEXT_END__>
    fffec104:	91332000 	add	x0, x0, #0xcc8
    fffec108:	b9400c01 	ldr	w1, [x0,#12]
    fffec10c:	f9000cc1 	str	x1, [x6,#24]
    fffec110:	b9400801 	ldr	w1, [x0,#8]
    fffec114:	b9400400 	ldr	w0, [x0,#4]
    fffec118:	a90084c0 	stp	x0, x1, [x6,#8]
    fffec11c:	d2920b60 	mov	x0, #0x905b                	// #36955
    fffec120:	f2a211a0 	movk	x0, #0x108d, lsl #16
    fffec124:	14000009 	b	fffec148 <std_svc_smc_handler+0xa0>
    fffec128:	d2800020 	mov	x0, #0x1                   	// #1
    fffec12c:	a90000df 	stp	xzr, x0, [x6]
    fffec130:	14000007 	b	fffec14c <std_svc_smc_handler+0xa4>
    fffec134:	b0000020 	adrp	x0, ffff1000 <__TEXT_END__>
    fffec138:	2a0803e1 	mov	w1, w8
    fffec13c:	91318000 	add	x0, x0, #0xc60
    fffec140:	940007d5 	bl	fffee094 <tf_printf>
    fffec144:	b2407fe0 	mov	x0, #0xffffffff            	// #4294967295
    fffec148:	f9000260 	str	x0, [x19]
    fffec14c:	aa1303e0 	mov	x0, x19
    fffec150:	f9400bf3 	ldr	x19, [sp,#16]
    fffec154:	a8c27bfd 	ldp	x29, x30, [sp],#32
    fffec158:	d65f03c0 	ret

00000000fffec15c <std_svc_setup>:
    fffec15c:	a9bf7bfd 	stp	x29, x30, [sp,#-16]!
    fffec160:	529ffc00 	mov	w0, #0xffe0                	// #65504
    fffec164:	910003fd 	mov	x29, sp
    fffec168:	97fffe4b 	bl	fffeba94 <get_arm_std_svc_args>
    fffec16c:	b5000120 	cbnz	x0, fffec190 <std_svc_setup+0x34>
    fffec170:	b0000023 	adrp	x3, ffff1000 <__TEXT_END__>
    fffec174:	b0000021 	adrp	x1, ffff1000 <__TEXT_END__>
    fffec178:	b0000020 	adrp	x0, ffff1000 <__TEXT_END__>
    fffec17c:	91325463 	add	x3, x3, #0xc95
    fffec180:	52800662 	mov	w2, #0x33                  	// #51
    fffec184:	91327421 	add	x1, x1, #0xc9d
    fffec188:	91314000 	add	x0, x0, #0xc50
    fffec18c:	94000883 	bl	fffee398 <__assert>
    fffec190:	a8c17bfd 	ldp	x29, x30, [sp],#16
    fffec194:	14000628 	b	fffeda34 <psci_setup>

00000000fffec198 <cm_init_context_common>:
    fffec198:	a9bd7bfd 	stp	x29, x30, [sp,#-48]!
    fffec19c:	910003fd 	mov	x29, sp
    fffec1a0:	a90153f3 	stp	x19, x20, [sp,#16]
    fffec1a4:	a9025bf5 	stp	x21, x22, [sp,#32]
    fffec1a8:	b5000120 	cbnz	x0, fffec1cc <cm_init_context_common+0x34>
    fffec1ac:	b0000023 	adrp	x3, ffff1000 <__TEXT_END__>
    fffec1b0:	b0000021 	adrp	x1, ffff1000 <__TEXT_END__>
    fffec1b4:	b0000020 	adrp	x0, ffff1000 <__TEXT_END__>
    fffec1b8:	9133c063 	add	x3, x3, #0xcf0
    fffec1bc:	52800b22 	mov	w2, #0x59                  	// #89
    fffec1c0:	9133d021 	add	x1, x1, #0xcf4
    fffec1c4:	91362000 	add	x0, x0, #0xd88
    fffec1c8:	94000874 	bl	fffee398 <__assert>
    fffec1cc:	aa0103f4 	mov	x20, x1
    fffec1d0:	d2804202 	mov	x2, #0x210                 	// #528
    fffec1d4:	52800001 	mov	w1, #0x0                   	// #0
    fffec1d8:	aa0003f5 	mov	x21, x0
    fffec1dc:	b9400696 	ldr	w22, [x20,#4]
    fffec1e0:	94000875 	bl	fffee3b4 <memset>
    fffec1e4:	120002d6 	and	w22, w22, #0x1
    fffec1e8:	d53e1100 	mrs	x0, scr_el3
    fffec1ec:	1281a0e1 	mov	w1, #0xfffff2f8            	// #-3336
    fffec1f0:	0a000020 	and	w0, w1, w0
    fffec1f4:	b9401281 	ldr	w1, [x20,#16]
    fffec1f8:	2a160000 	orr	w0, w0, w22
    fffec1fc:	d3441021 	ubfx	x1, x1, #4, #1
    fffec200:	32160002 	orr	w2, w0, #0x400
    fffec204:	6b1f003f 	cmp	w1, wzr
    fffec208:	b9400681 	ldr	w1, [x20,#4]
    fffec20c:	1a800040 	csel	w0, w2, w0, eq
    fffec210:	121e0021 	and	w1, w1, #0x4
    fffec214:	32150002 	orr	w2, w0, #0x800
    fffec218:	6b1f003f 	cmp	w1, wzr
    fffec21c:	1a801040 	csel	w0, w2, w0, ne
    fffec220:	121c7813 	and	w19, w0, #0xfffffff7
    fffec224:	2a1603e0 	mov	w0, w22
    fffec228:	97fffe9d 	bl	fffebc9c <get_scr_el3_from_routing_model>
    fffec22c:	2a000260 	orr	w0, w19, w0
    fffec230:	b9400681 	ldr	w1, [x20,#4]
    fffec234:	b9401282 	ldr	w2, [x20,#16]
    fffec238:	121f0021 	and	w1, w1, #0x2
    fffec23c:	d3441043 	ubfx	x3, x2, #4, #1
    fffec240:	6b1f003f 	cmp	w1, wzr
    fffec244:	d2a04001 	mov	x1, #0x2000000             	// #33554432
    fffec248:	9a9f1021 	csel	x1, x1, xzr, ne
    fffec24c:	35000083 	cbnz	w3, fffec25c <cm_init_context_common+0xc4>
    fffec250:	d2810004 	mov	x4, #0x800                 	// #2048
    fffec254:	f2a61a04 	movk	x4, #0x30d0, lsl #16
    fffec258:	14000003 	b	fffec264 <cm_init_context_common+0xcc>
    fffec25c:	d2810304 	mov	x4, #0x818                 	// #2072
    fffec260:	f2a01804 	movk	x4, #0xc0, lsl #16
    fffec264:	aa040021 	orr	x1, x1, x4
    fffec268:	f9009aa1 	str	x1, [x21,#304]
    fffec26c:	35000083 	cbnz	w3, fffec27c <cm_init_context_common+0xe4>
    fffec270:	d3420c41 	ubfx	x1, x2, #2, #2
    fffec274:	7100083f 	cmp	w1, #0x2
    fffec278:	14000003 	b	fffec284 <cm_init_context_common+0xec>
    fffec27c:	12000c41 	and	w1, w2, #0xf
    fffec280:	7100283f 	cmp	w1, #0xa
    fffec284:	54000041 	b.ne	fffec28c <cm_init_context_common+0xf4>
    fffec288:	32180000 	orr	w0, w0, #0x100
    fffec28c:	f90082a0 	str	x0, [x21,#256]
    fffec290:	2a0203e2 	mov	w2, w2
    fffec294:	f9400680 	ldr	x0, [x20,#8]
    fffec298:	91006281 	add	x1, x20, #0x18
    fffec29c:	a94153f3 	ldp	x19, x20, [sp,#16]
    fffec2a0:	a91102a2 	stp	x2, x0, [x21,#272]
    fffec2a4:	aa1503e0 	mov	x0, x21
    fffec2a8:	d2800802 	mov	x2, #0x40                  	// #64
    fffec2ac:	a9425bf5 	ldp	x21, x22, [sp,#32]
    fffec2b0:	a8c37bfd 	ldp	x29, x30, [sp],#48
    fffec2b4:	14000847 	b	fffee3d0 <memcpy>

00000000fffec2b8 <cm_set_next_context>:
    fffec2b8:	d5384201 	mrs	x1, spsel
    fffec2bc:	b4000161 	cbz	x1, fffec2e8 <cm_set_next_context+0x30>
    fffec2c0:	a9bf7bfd 	stp	x29, x30, [sp,#-16]!
    fffec2c4:	b0000023 	adrp	x3, ffff1000 <__TEXT_END__>
    fffec2c8:	b0000021 	adrp	x1, ffff1000 <__TEXT_END__>
    fffec2cc:	b0000020 	adrp	x0, ffff1000 <__TEXT_END__>
    fffec2d0:	910003fd 	mov	x29, sp
    fffec2d4:	91346c63 	add	x3, x3, #0xd1b
    fffec2d8:	52800c42 	mov	w2, #0x62                  	// #98
    fffec2dc:	9134c821 	add	x1, x1, #0xd32
    fffec2e0:	91336000 	add	x0, x0, #0xcd8
    fffec2e4:	9400082d 	bl	fffee398 <__assert>
    fffec2e8:	d50041bf 	msr	spsel, #0x1
    fffec2ec:	9100001f 	mov	sp, x0
    fffec2f0:	d50040bf 	msr	spsel, #0x0
    fffec2f4:	d65f03c0 	ret

00000000fffec2f8 <cm_init>:
    fffec2f8:	d65f03c0 	ret

00000000fffec2fc <cm_init_context_by_index>:
    fffec2fc:	a9be7bfd 	stp	x29, x30, [sp,#-32]!
    fffec300:	910003fd 	mov	x29, sp
    fffec304:	f9000bf3 	str	x19, [sp,#16]
    fffec308:	aa0103f3 	mov	x19, x1
    fffec30c:	b9400421 	ldr	w1, [x1,#4]
    fffec310:	12000021 	and	w1, w1, #0x1
    fffec314:	97fffee3 	bl	fffebea0 <cm_get_context_by_index>
    fffec318:	aa1303e1 	mov	x1, x19
    fffec31c:	f9400bf3 	ldr	x19, [sp,#16]
    fffec320:	a8c27bfd 	ldp	x29, x30, [sp],#32
    fffec324:	17ffff9d 	b	fffec198 <cm_init_context_common>

00000000fffec328 <cm_init_my_context>:
    fffec328:	a9be7bfd 	stp	x29, x30, [sp,#-32]!
    fffec32c:	910003fd 	mov	x29, sp
    fffec330:	f9000bf3 	str	x19, [sp,#16]
    fffec334:	aa0003f3 	mov	x19, x0
    fffec338:	b9400400 	ldr	w0, [x0,#4]
    fffec33c:	12000000 	and	w0, w0, #0x1
    fffec340:	97fffec9 	bl	fffebe64 <cm_get_context>
    fffec344:	aa1303e1 	mov	x1, x19
    fffec348:	f9400bf3 	ldr	x19, [sp,#16]
    fffec34c:	a8c27bfd 	ldp	x29, x30, [sp],#32
    fffec350:	17ffff92 	b	fffec198 <cm_init_context_common>

00000000fffec354 <cm_prepare_el3_exit>:
    fffec354:	a9be7bfd 	stp	x29, x30, [sp,#-32]!
    fffec358:	910003fd 	mov	x29, sp
    fffec35c:	a90153f3 	stp	x19, x20, [sp,#16]
    fffec360:	2a0003f4 	mov	w20, w0
    fffec364:	97fffec0 	bl	fffebe64 <cm_get_context>
    fffec368:	b5000120 	cbnz	x0, fffec38c <cm_prepare_el3_exit+0x38>
    fffec36c:	b0000023 	adrp	x3, ffff1000 <__TEXT_END__>
    fffec370:	b0000021 	adrp	x1, ffff1000 <__TEXT_END__>
    fffec374:	b0000020 	adrp	x0, ffff1000 <__TEXT_END__>
    fffec378:	9133c063 	add	x3, x3, #0xcf0
    fffec37c:	52801a22 	mov	w2, #0xd1                  	// #209
    fffec380:	9133d021 	add	x1, x1, #0xcf4
    fffec384:	9136e000 	add	x0, x0, #0xdb8
    fffec388:	94000804 	bl	fffee398 <__assert>
    fffec38c:	7100069f 	cmp	w20, #0x1
    fffec390:	aa0003f3 	mov	x19, x0
    fffec394:	54000401 	b.ne	fffec414 <cm_prepare_el3_exit+0xc0>
    fffec398:	f9408000 	ldr	x0, [x0,#256]
    fffec39c:	36400100 	tbz	w0, #8, fffec3bc <cm_prepare_el3_exit+0x68>
    fffec3a0:	f9409a60 	ldr	x0, [x19,#304]
    fffec3a4:	52810601 	mov	w1, #0x830                 	// #2096
    fffec3a8:	72a618a1 	movk	w1, #0x30c5, lsl #16
    fffec3ac:	12067800 	and	w0, w0, #0xfdffffff
    fffec3b0:	2a010000 	orr	w0, w0, w1
    fffec3b4:	d51c1000 	msr	sctlr_el2, x0
    fffec3b8:	14000017 	b	fffec414 <cm_prepare_el3_exit+0xc0>
    fffec3bc:	d5380401 	mrs	x1, id_aa64pfr0_el1
    fffec3c0:	f2780c3f 	tst	x1, #0xf00
    fffec3c4:	54000280 	b.eq	fffec414 <cm_prepare_el3_exit+0xc0>
    fffec3c8:	12160000 	and	w0, w0, #0x400
    fffec3cc:	d2800001 	mov	x1, #0x0                   	// #0
    fffec3d0:	6b1f001f 	cmp	w0, wzr
    fffec3d4:	d2b00000 	mov	x0, #0x80000000            	// #2147483648
    fffec3d8:	9a9f1000 	csel	x0, x0, xzr, ne
    fffec3dc:	d51c1100 	msr	hcr_el2, x0
    fffec3e0:	d53c1140 	mrs	x0, cptr_el2
    fffec3e4:	529f7fe2 	mov	w2, #0xfbff                	// #64511
    fffec3e8:	72affde2 	movk	w2, #0x7fef, lsl #16
    fffec3ec:	0a000040 	and	w0, w2, w0
    fffec3f0:	d51c1140 	msr	cptr_el2, x0
    fffec3f4:	d2800060 	mov	x0, #0x3                   	// #3
    fffec3f8:	d51ce100 	msr	cnthctl_el2, x0
    fffec3fc:	d51ce061 	msr	cntvoff_el2, x1
    fffec400:	d5380000 	mrs	x0, midr_el1
    fffec404:	d51c0000 	msr	vpidr_el2, x0
    fffec408:	d53800a0 	mrs	x0, mpidr_el1
    fffec40c:	d51c00a0 	msr	vmpidr_el2, x0
    fffec410:	d51c2101 	msr	vttbr_el2, x1
    fffec414:	91048260 	add	x0, x19, #0x120
    fffec418:	94000e44 	bl	fffefd28 <el1_sysregs_context_restore>
    fffec41c:	aa1303e0 	mov	x0, x19
    fffec420:	a94153f3 	ldp	x19, x20, [sp,#16]
    fffec424:	a8c27bfd 	ldp	x29, x30, [sp],#32
    fffec428:	17ffffa4 	b	fffec2b8 <cm_set_next_context>

00000000fffec42c <cm_write_scr_el3_bit>:
    fffec42c:	a9be7bfd 	stp	x29, x30, [sp,#-32]!
    fffec430:	910003fd 	mov	x29, sp
    fffec434:	a90153f3 	stp	x19, x20, [sp,#16]
    fffec438:	2a0103f4 	mov	w20, w1
    fffec43c:	2a0203f3 	mov	w19, w2
    fffec440:	97fffe89 	bl	fffebe64 <cm_get_context>
    fffec444:	b50000a0 	cbnz	x0, fffec458 <cm_write_scr_el3_bit+0x2c>
    fffec448:	b0000023 	adrp	x3, ffff1000 <__TEXT_END__>
    fffec44c:	528029c2 	mov	w2, #0x14e                 	// #334
    fffec450:	9133c063 	add	x3, x3, #0xcf0
    fffec454:	14000007 	b	fffec470 <cm_write_scr_el3_bit+0x44>
    fffec458:	5285f1e1 	mov	w1, #0x2f8f                	// #12175
    fffec45c:	1ad42821 	asr	w1, w1, w20
    fffec460:	37000121 	tbnz	w1, #0, fffec484 <cm_write_scr_el3_bit+0x58>
    fffec464:	b0000023 	adrp	x3, ffff1000 <__TEXT_END__>
    fffec468:	52802a22 	mov	w2, #0x151                 	// #337
    fffec46c:	91356463 	add	x3, x3, #0xd59
    fffec470:	b0000021 	adrp	x1, ffff1000 <__TEXT_END__>
    fffec474:	b0000020 	adrp	x0, ffff1000 <__TEXT_END__>
    fffec478:	9133d021 	add	x1, x1, #0xcf4
    fffec47c:	91368000 	add	x0, x0, #0xda0
    fffec480:	940007c6 	bl	fffee398 <__assert>
    fffec484:	7100067f 	cmp	w19, #0x1
    fffec488:	540000a9 	b.ls	fffec49c <cm_write_scr_el3_bit+0x70>
    fffec48c:	b0000023 	adrp	x3, ffff1000 <__TEXT_END__>
    fffec490:	52802a82 	mov	w2, #0x154                 	// #340
    fffec494:	9135f463 	add	x3, x3, #0xd7d
    fffec498:	17fffff6 	b	fffec470 <cm_write_scr_el3_bit+0x44>
    fffec49c:	f9408001 	ldr	x1, [x0,#256]
    fffec4a0:	52800023 	mov	w3, #0x1                   	// #1
    fffec4a4:	1ad42063 	lsl	w3, w3, w20
    fffec4a8:	0a230023 	bic	w3, w1, w3
    fffec4ac:	1ad42261 	lsl	w1, w19, w20
    fffec4b0:	2a030021 	orr	w1, w1, w3
    fffec4b4:	a94153f3 	ldp	x19, x20, [sp,#16]
    fffec4b8:	f9008001 	str	x1, [x0,#256]
    fffec4bc:	a8c27bfd 	ldp	x29, x30, [sp],#32
    fffec4c0:	d65f03c0 	ret

00000000fffec4c4 <psci_do_cpu_off>:
    fffec4c4:	a9bc7bfd 	stp	x29, x30, [sp,#-64]!
    fffec4c8:	910003fd 	mov	x29, sp
    fffec4cc:	a90153f3 	stp	x19, x20, [sp,#16]
    fffec4d0:	d0000053 	adrp	x19, ffff6000 <base_xlation_table>
    fffec4d4:	a9025bf5 	stp	x21, x22, [sp,#32]
    fffec4d8:	2a0003f5 	mov	w21, w0
    fffec4dc:	94000f32 	bl	ffff01a4 <plat_my_core_pos>
    fffec4e0:	2a0003f6 	mov	w22, w0
    fffec4e4:	f941a260 	ldr	x0, [x19,#832]
    fffec4e8:	f9400800 	ldr	x0, [x0,#16]
    fffec4ec:	b5000120 	cbnz	x0, fffec510 <psci_do_cpu_off+0x4c>
    fffec4f0:	b0000023 	adrp	x3, ffff1000 <__TEXT_END__>
    fffec4f4:	b0000021 	adrp	x1, ffff1000 <__TEXT_END__>
    fffec4f8:	b0000020 	adrp	x0, ffff1000 <__TEXT_END__>
    fffec4fc:	91378063 	add	x3, x3, #0xde0
    fffec500:	52800902 	mov	w2, #0x48                  	// #72
    fffec504:	91380421 	add	x1, x1, #0xe01
    fffec508:	91374000 	add	x0, x0, #0xdd0
    fffec50c:	940007a3 	bl	fffee398 <__assert>
    fffec510:	2a1503e0 	mov	w0, w21
    fffec514:	2a1603e1 	mov	w1, w22
    fffec518:	940002a7 	bl	fffecfb4 <psci_acquire_pwr_domain_locks>
    fffec51c:	d0000040 	adrp	x0, ffff6000 <base_xlation_table>
    fffec520:	f941a400 	ldr	x0, [x0,#840]
    fffec524:	b5000200 	cbnz	x0, fffec564 <psci_do_cpu_off+0xa0>
    fffec528:	52800040 	mov	w0, #0x2                   	// #2
    fffec52c:	9100e3a1 	add	x1, x29, #0x38
    fffec530:	3900e3a0 	strb	w0, [x29,#56]
    fffec534:	52800014 	mov	w20, #0x0                   	// #0
    fffec538:	3900e7a0 	strb	w0, [x29,#57]
    fffec53c:	2a1503e0 	mov	w0, w21
    fffec540:	94000224 	bl	fffecdd0 <psci_do_state_coordination>
    fffec544:	9100e3a0 	add	x0, x29, #0x38
    fffec548:	9400025e 	bl	fffecec0 <psci_find_max_off_lvl>
    fffec54c:	94000dd4 	bl	fffefc9c <psci_do_pwrdown_cache_maintenance>
    fffec550:	f941a260 	ldr	x0, [x19,#832]
    fffec554:	f9400801 	ldr	x1, [x0,#16]
    fffec558:	9100e3a0 	add	x0, x29, #0x38
    fffec55c:	d63f0020 	blr	x1
    fffec560:	14000007 	b	fffec57c <psci_do_cpu_off+0xb8>
    fffec564:	f9400401 	ldr	x1, [x0,#8]
    fffec568:	b4fffe01 	cbz	x1, fffec528 <psci_do_cpu_off+0x64>
    fffec56c:	d2800000 	mov	x0, #0x0                   	// #0
    fffec570:	d63f0020 	blr	x1
    fffec574:	2a0003f4 	mov	w20, w0
    fffec578:	34fffd80 	cbz	w0, fffec528 <psci_do_cpu_off+0x64>
    fffec57c:	2a1603e1 	mov	w1, w22
    fffec580:	2a1503e0 	mov	w0, w21
    fffec584:	940002ab 	bl	fffed030 <psci_release_pwr_domain_locks>
    fffec588:	35000274 	cbnz	w20, fffec5d4 <psci_do_cpu_off+0x110>
    fffec58c:	d53ed040 	mrs	x0, tpidr_el3
    fffec590:	d2800081 	mov	x1, #0x4                   	// #4
    fffec594:	91016000 	add	x0, x0, #0x58
    fffec598:	94000e77 	bl	fffeff74 <flush_dcache_range>
    fffec59c:	d53ed040 	mrs	x0, tpidr_el3
    fffec5a0:	52800021 	mov	w1, #0x1                   	// #1
    fffec5a4:	b9005801 	str	w1, [x0,#88]
    fffec5a8:	d5033b9f 	dsb	ish
    fffec5ac:	d53ed040 	mrs	x0, tpidr_el3
    fffec5b0:	d2800081 	mov	x1, #0x4                   	// #4
    fffec5b4:	91016000 	add	x0, x0, #0x58
    fffec5b8:	94000e89 	bl	fffeffdc <inv_dcache_range>
    fffec5bc:	f941a260 	ldr	x0, [x19,#832]
    fffec5c0:	f9401801 	ldr	x1, [x0,#48]
    fffec5c4:	b4000061 	cbz	x1, fffec5d0 <psci_do_cpu_off+0x10c>
    fffec5c8:	9100e3a0 	add	x0, x29, #0x38
    fffec5cc:	d63f0020 	blr	x1
    fffec5d0:	94000dd3 	bl	fffefd1c <psci_power_down_wfi>
    fffec5d4:	2a1403e0 	mov	w0, w20
    fffec5d8:	a94153f3 	ldp	x19, x20, [sp,#16]
    fffec5dc:	a9425bf5 	ldp	x21, x22, [sp,#32]
    fffec5e0:	a8c47bfd 	ldp	x29, x30, [sp],#64
    fffec5e4:	d65f03c0 	ret

00000000fffec5e8 <psci_cpu_on_start>:
    fffec5e8:	a9bc7bfd 	stp	x29, x30, [sp,#-64]!
    fffec5ec:	910003fd 	mov	x29, sp
    fffec5f0:	a9025bf5 	stp	x21, x22, [sp,#32]
    fffec5f4:	a90363f7 	stp	x23, x24, [sp,#48]
    fffec5f8:	a90153f3 	stp	x19, x20, [sp,#16]
    fffec5fc:	aa0003f7 	mov	x23, x0
    fffec600:	aa0103f6 	mov	x22, x1
    fffec604:	97fff933 	bl	fffeaad0 <plat_core_pos_by_mpidr>
    fffec608:	36f800a0 	tbz	w0, #31, fffec61c <psci_cpu_on_start+0x34>
    fffec60c:	b0000023 	adrp	x3, ffff1000 <__TEXT_END__>
    fffec610:	52800962 	mov	w2, #0x4b                  	// #75
    fffec614:	91385463 	add	x3, x3, #0xe15
    fffec618:	14000005 	b	fffec62c <psci_cpu_on_start+0x44>
    fffec61c:	b5000136 	cbnz	x22, fffec640 <psci_cpu_on_start+0x58>
    fffec620:	b0000023 	adrp	x3, ffff1000 <__TEXT_END__>
    fffec624:	52800982 	mov	w2, #0x4c                  	// #76
    fffec628:	9138f863 	add	x3, x3, #0xe3e
    fffec62c:	b0000021 	adrp	x1, ffff1000 <__TEXT_END__>
    fffec630:	b0000020 	adrp	x0, ffff1000 <__TEXT_END__>
    fffec634:	9138ac21 	add	x1, x1, #0xe2b
    fffec638:	913de000 	add	x0, x0, #0xf78
    fffec63c:	94000757 	bl	fffee398 <__assert>
    fffec640:	d0000055 	adrp	x21, ffff6000 <base_xlation_table>
    fffec644:	2a0003f3 	mov	w19, w0
    fffec648:	f941a2a0 	ldr	x0, [x21,#832]
    fffec64c:	f9400401 	ldr	x1, [x0,#8]
    fffec650:	b4000061 	cbz	x1, fffec65c <psci_cpu_on_start+0x74>
    fffec654:	f9401000 	ldr	x0, [x0,#32]
    fffec658:	b50000a0 	cbnz	x0, fffec66c <psci_cpu_on_start+0x84>
    fffec65c:	b0000023 	adrp	x3, ffff1000 <__TEXT_END__>
    fffec660:	52800a62 	mov	w2, #0x53                  	// #83
    fffec664:	91392463 	add	x3, x3, #0xe49
    fffec668:	17fffff1 	b	fffec62c <psci_cpu_on_start+0x44>
    fffec66c:	d0000040 	adrp	x0, ffff6000 <base_xlation_table>
    fffec670:	d37c7e74 	ubfiz	x20, x19, #4, #32
    fffec674:	910c0000 	add	x0, x0, #0x300
    fffec678:	8b000294 	add	x20, x20, x0
    fffec67c:	91003294 	add	x20, x20, #0xc
    fffec680:	aa1403e0 	mov	x0, x20
    fffec684:	94000d7c 	bl	fffefc74 <spin_lock>
    fffec688:	2a1303e0 	mov	w0, w19
    fffec68c:	94000d34 	bl	fffefb5c <_cpu_data_by_index>
    fffec690:	b9405800 	ldr	w0, [x0,#88]
    fffec694:	340001a0 	cbz	w0, fffec6c8 <psci_cpu_on_start+0xe0>
    fffec698:	7100081f 	cmp	w0, #0x2
    fffec69c:	540001a0 	b.eq	fffec6d0 <psci_cpu_on_start+0xe8>
    fffec6a0:	7100041f 	cmp	w0, #0x1
    fffec6a4:	540001a0 	b.eq	fffec6d8 <psci_cpu_on_start+0xf0>
    fffec6a8:	b0000023 	adrp	x3, ffff1000 <__TEXT_END__>
    fffec6ac:	b0000021 	adrp	x1, ffff1000 <__TEXT_END__>
    fffec6b0:	b0000020 	adrp	x0, ffff1000 <__TEXT_END__>
    fffec6b4:	913a6863 	add	x3, x3, #0xe9a
    fffec6b8:	528006a2 	mov	w2, #0x35                  	// #53
    fffec6bc:	9138ac21 	add	x1, x1, #0xe2b
    fffec6c0:	913d8000 	add	x0, x0, #0xf60
    fffec6c4:	17ffffde 	b	fffec63c <psci_cpu_on_start+0x54>
    fffec6c8:	12800075 	mov	w21, #0xfffffffc            	// #-4
    fffec6cc:	14000049 	b	fffec7f0 <psci_cpu_on_start+0x208>
    fffec6d0:	12800095 	mov	w21, #0xfffffffb            	// #-5
    fffec6d4:	14000047 	b	fffec7f0 <psci_cpu_on_start+0x208>
    fffec6d8:	d0000040 	adrp	x0, ffff6000 <base_xlation_table>
    fffec6dc:	f941a400 	ldr	x0, [x0,#840]
    fffec6e0:	b40000a0 	cbz	x0, fffec6f4 <psci_cpu_on_start+0x10c>
    fffec6e4:	f9400001 	ldr	x1, [x0]
    fffec6e8:	b4000061 	cbz	x1, fffec6f4 <psci_cpu_on_start+0x10c>
    fffec6ec:	aa1703e0 	mov	x0, x23
    fffec6f0:	d63f0020 	blr	x1
    fffec6f4:	2a1303e0 	mov	w0, w19
    fffec6f8:	52800058 	mov	w24, #0x2                   	// #2
    fffec6fc:	94000d18 	bl	fffefb5c <_cpu_data_by_index>
    fffec700:	b9005818 	str	w24, [x0,#88]
    fffec704:	2a1303e0 	mov	w0, w19
    fffec708:	94000d15 	bl	fffefb5c <_cpu_data_by_index>
    fffec70c:	91016000 	add	x0, x0, #0x58
    fffec710:	d2800081 	mov	x1, #0x4                   	// #4
    fffec714:	94000e18 	bl	fffeff74 <flush_dcache_range>
    fffec718:	2a1303e0 	mov	w0, w19
    fffec71c:	94000d10 	bl	fffefb5c <_cpu_data_by_index>
    fffec720:	b9405800 	ldr	w0, [x0,#88]
    fffec724:	6b18001f 	cmp	w0, w24
    fffec728:	54000300 	b.eq	fffec788 <psci_cpu_on_start+0x1a0>
    fffec72c:	7100041f 	cmp	w0, #0x1
    fffec730:	540000a0 	b.eq	fffec744 <psci_cpu_on_start+0x15c>
    fffec734:	b0000023 	adrp	x3, ffff1000 <__TEXT_END__>
    fffec738:	52800f02 	mov	w2, #0x78                  	// #120
    fffec73c:	913a4c63 	add	x3, x3, #0xe93
    fffec740:	17ffffbb 	b	fffec62c <psci_cpu_on_start+0x44>
    fffec744:	2a1303e0 	mov	w0, w19
    fffec748:	94000d05 	bl	fffefb5c <_cpu_data_by_index>
    fffec74c:	b9005818 	str	w24, [x0,#88]
    fffec750:	2a1303e0 	mov	w0, w19
    fffec754:	94000d02 	bl	fffefb5c <_cpu_data_by_index>
    fffec758:	91016000 	add	x0, x0, #0x58
    fffec75c:	d2800081 	mov	x1, #0x4                   	// #4
    fffec760:	94000e05 	bl	fffeff74 <flush_dcache_range>
    fffec764:	2a1303e0 	mov	w0, w19
    fffec768:	94000cfd 	bl	fffefb5c <_cpu_data_by_index>
    fffec76c:	b9405800 	ldr	w0, [x0,#88]
    fffec770:	7100081f 	cmp	w0, #0x2
    fffec774:	540000a0 	b.eq	fffec788 <psci_cpu_on_start+0x1a0>
    fffec778:	b0000023 	adrp	x3, ffff1000 <__TEXT_END__>
    fffec77c:	52800f82 	mov	w2, #0x7c                  	// #124
    fffec780:	913ad463 	add	x3, x3, #0xeb5
    fffec784:	17ffffaa 	b	fffec62c <psci_cpu_on_start+0x44>
    fffec788:	f941a2a0 	ldr	x0, [x21,#832]
    fffec78c:	f9400401 	ldr	x1, [x0,#8]
    fffec790:	aa1703e0 	mov	x0, x23
    fffec794:	d63f0020 	blr	x1
    fffec798:	6b1f001f 	cmp	w0, wzr
    fffec79c:	3a461804 	ccmn	w0, #0x6, #0x4, ne
    fffec7a0:	2a0003f5 	mov	w21, w0
    fffec7a4:	540000a0 	b.eq	fffec7b8 <psci_cpu_on_start+0x1d0>
    fffec7a8:	b0000023 	adrp	x3, ffff1000 <__TEXT_END__>
    fffec7ac:	52801102 	mov	w2, #0x88                  	// #136
    fffec7b0:	913be063 	add	x3, x3, #0xef8
    fffec7b4:	17ffff9e 	b	fffec62c <psci_cpu_on_start+0x44>
    fffec7b8:	350000a0 	cbnz	w0, fffec7cc <psci_cpu_on_start+0x1e4>
    fffec7bc:	aa1603e1 	mov	x1, x22
    fffec7c0:	2a1303e0 	mov	w0, w19
    fffec7c4:	97fffece 	bl	fffec2fc <cm_init_context_by_index>
    fffec7c8:	1400000a 	b	fffec7f0 <psci_cpu_on_start+0x208>
    fffec7cc:	2a1303e0 	mov	w0, w19
    fffec7d0:	94000ce3 	bl	fffefb5c <_cpu_data_by_index>
    fffec7d4:	52800021 	mov	w1, #0x1                   	// #1
    fffec7d8:	b9005801 	str	w1, [x0,#88]
    fffec7dc:	2a1303e0 	mov	w0, w19
    fffec7e0:	94000cdf 	bl	fffefb5c <_cpu_data_by_index>
    fffec7e4:	91016000 	add	x0, x0, #0x58
    fffec7e8:	d2800081 	mov	x1, #0x4                   	// #4
    fffec7ec:	94000de2 	bl	fffeff74 <flush_dcache_range>
    fffec7f0:	aa1403e0 	mov	x0, x20
    fffec7f4:	94000d28 	bl	fffefc94 <spin_unlock>
    fffec7f8:	2a1503e0 	mov	w0, w21
    fffec7fc:	a94153f3 	ldp	x19, x20, [sp,#16]
    fffec800:	a9425bf5 	ldp	x21, x22, [sp,#32]
    fffec804:	a94363f7 	ldp	x23, x24, [sp,#48]
    fffec808:	a8c47bfd 	ldp	x29, x30, [sp],#64
    fffec80c:	d65f03c0 	ret

00000000fffec810 <psci_cpu_on_finish>:
    fffec810:	a9bd7bfd 	stp	x29, x30, [sp,#-48]!
    fffec814:	910003fd 	mov	x29, sp
    fffec818:	f90013f5 	str	x21, [sp,#32]
    fffec81c:	2a0003f5 	mov	w21, w0
    fffec820:	d0000040 	adrp	x0, ffff6000 <base_xlation_table>
    fffec824:	a90153f3 	stp	x19, x20, [sp,#16]
    fffec828:	d0000053 	adrp	x19, ffff6000 <base_xlation_table>
    fffec82c:	d37c7eb4 	ubfiz	x20, x21, #4, #32
    fffec830:	f941a000 	ldr	x0, [x0,#832]
    fffec834:	f9401002 	ldr	x2, [x0,#32]
    fffec838:	aa0103e0 	mov	x0, x1
    fffec83c:	d63f0040 	blr	x2
    fffec840:	94000d2a 	bl	fffefce8 <psci_do_pwrup_cache_maintenance>
    fffec844:	94000475 	bl	fffeda18 <psci_arch_setup>
    fffec848:	910c0260 	add	x0, x19, #0x300
    fffec84c:	8b000294 	add	x20, x20, x0
    fffec850:	91003294 	add	x20, x20, #0xc
    fffec854:	aa1403e0 	mov	x0, x20
    fffec858:	94000d07 	bl	fffefc74 <spin_lock>
    fffec85c:	aa1403e0 	mov	x0, x20
    fffec860:	94000d0d 	bl	fffefc94 <spin_unlock>
    fffec864:	d53ed040 	mrs	x0, tpidr_el3
    fffec868:	b9405800 	ldr	w0, [x0,#88]
    fffec86c:	7100081f 	cmp	w0, #0x2
    fffec870:	54000120 	b.eq	fffec894 <psci_cpu_on_finish+0x84>
    fffec874:	b0000023 	adrp	x3, ffff1000 <__TEXT_END__>
    fffec878:	b0000021 	adrp	x1, ffff1000 <__TEXT_END__>
    fffec87c:	b0000020 	adrp	x0, ffff1000 <__TEXT_END__>
    fffec880:	913ca463 	add	x3, x3, #0xf29
    fffec884:	528017c2 	mov	w2, #0xbe                  	// #190
    fffec888:	9138ac21 	add	x1, x1, #0xe2b
    fffec88c:	913e4000 	add	x0, x0, #0xf90
    fffec890:	940006c2 	bl	fffee398 <__assert>
    fffec894:	d0000040 	adrp	x0, ffff6000 <base_xlation_table>
    fffec898:	f941a400 	ldr	x0, [x0,#840]
    fffec89c:	b40000a0 	cbz	x0, fffec8b0 <psci_cpu_on_finish+0xa0>
    fffec8a0:	f9400c01 	ldr	x1, [x0,#24]
    fffec8a4:	b4000061 	cbz	x1, fffec8b0 <psci_cpu_on_finish+0xa0>
    fffec8a8:	d2800000 	mov	x0, #0x0                   	// #0
    fffec8ac:	d63f0020 	blr	x1
    fffec8b0:	d53800a1 	mrs	x1, mpidr_el1
    fffec8b4:	910c0273 	add	x19, x19, #0x300
    fffec8b8:	d37c7eb5 	ubfiz	x21, x21, #4, #32
    fffec8bc:	b2405fe0 	mov	x0, #0xffffff              	// #16777215
    fffec8c0:	f2c01fe0 	movk	x0, #0xff, lsl #32
    fffec8c4:	8a000020 	and	x0, x1, x0
    fffec8c8:	f8356a60 	str	x0, [x19,x21]
    fffec8cc:	a94153f3 	ldp	x19, x20, [sp,#16]
    fffec8d0:	f94013f5 	ldr	x21, [sp,#32]
    fffec8d4:	52800020 	mov	w0, #0x1                   	// #1
    fffec8d8:	a8c37bfd 	ldp	x29, x30, [sp],#48
    fffec8dc:	17fffe9e 	b	fffec354 <cm_prepare_el3_exit>

00000000fffec8e0 <psci_cpu_suspend_start>:
    fffec8e0:	a9ba7bfd 	stp	x29, x30, [sp,#-96]!
    fffec8e4:	910003fd 	mov	x29, sp
    fffec8e8:	a90153f3 	stp	x19, x20, [sp,#16]
    fffec8ec:	d0000054 	adrp	x20, ffff6000 <base_xlation_table>
    fffec8f0:	2a0103f3 	mov	w19, w1
    fffec8f4:	a9025bf5 	stp	x21, x22, [sp,#32]
    fffec8f8:	a90363f7 	stp	x23, x24, [sp,#48]
    fffec8fc:	aa0203f6 	mov	x22, x2
    fffec900:	aa0003f8 	mov	x24, x0
    fffec904:	2a0303f7 	mov	w23, w3
    fffec908:	f90023f9 	str	x25, [sp,#64]
    fffec90c:	94000e26 	bl	ffff01a4 <plat_my_core_pos>
    fffec910:	2a0003f5 	mov	w21, w0
    fffec914:	f941a280 	ldr	x0, [x20,#832]
    fffec918:	f9400c01 	ldr	x1, [x0,#24]
    fffec91c:	b4000061 	cbz	x1, fffec928 <psci_cpu_suspend_start+0x48>
    fffec920:	f9401400 	ldr	x0, [x0,#40]
    fffec924:	b5000120 	cbnz	x0, fffec948 <psci_cpu_suspend_start+0x68>
    fffec928:	b0000023 	adrp	x3, ffff1000 <__TEXT_END__>
    fffec92c:	d0000021 	adrp	x1, ffff2000 <__func__.2513+0x40>
    fffec930:	b0000020 	adrp	x0, ffff1000 <__TEXT_END__>
    fffec934:	913f6063 	add	x3, x3, #0xfd8
    fffec938:	528012e2 	mov	w2, #0x97                  	// #151
    fffec93c:	9100b021 	add	x1, x1, #0x2c
    fffec940:	913ea000 	add	x0, x0, #0xfa8
    fffec944:	94000695 	bl	fffee398 <__assert>
    fffec948:	2a1503e1 	mov	w1, w21
    fffec94c:	2a1303e0 	mov	w0, w19
    fffec950:	94000199 	bl	fffecfb4 <psci_acquire_pwr_domain_locks>
    fffec954:	d538c100 	mrs	x0, isr_el1
    fffec958:	52800039 	mov	w25, #0x1                   	// #1
    fffec95c:	b50003c0 	cbnz	x0, fffec9d4 <psci_cpu_suspend_start+0xf4>
    fffec960:	aa1603e1 	mov	x1, x22
    fffec964:	2a1303e0 	mov	w0, w19
    fffec968:	9400011a 	bl	fffecdd0 <psci_do_state_coordination>
    fffec96c:	340002b7 	cbz	w23, fffec9c0 <psci_cpu_suspend_start+0xe0>
    fffec970:	aa1603e0 	mov	x0, x22
    fffec974:	94000153 	bl	fffecec0 <psci_find_max_off_lvl>
    fffec978:	2a0003f9 	mov	w25, w0
    fffec97c:	d53ed040 	mrs	x0, tpidr_el3
    fffec980:	39017013 	strb	w19, [x0,#92]
    fffec984:	d53ed040 	mrs	x0, tpidr_el3
    fffec988:	d2800021 	mov	x1, #0x1                   	// #1
    fffec98c:	91017000 	add	x0, x0, #0x5c
    fffec990:	94000d79 	bl	fffeff74 <flush_dcache_range>
    fffec994:	d0000040 	adrp	x0, ffff6000 <base_xlation_table>
    fffec998:	f941a400 	ldr	x0, [x0,#840]
    fffec99c:	b40000a0 	cbz	x0, fffec9b0 <psci_cpu_suspend_start+0xd0>
    fffec9a0:	f9400801 	ldr	x1, [x0,#16]
    fffec9a4:	b4000061 	cbz	x1, fffec9b0 <psci_cpu_suspend_start+0xd0>
    fffec9a8:	2a1903e0 	mov	w0, w25
    fffec9ac:	d63f0020 	blr	x1
    fffec9b0:	aa1803e0 	mov	x0, x24
    fffec9b4:	97fffe5d 	bl	fffec328 <cm_init_my_context>
    fffec9b8:	2a1903e0 	mov	w0, w25
    fffec9bc:	94000cb8 	bl	fffefc9c <psci_do_pwrdown_cache_maintenance>
    fffec9c0:	f941a280 	ldr	x0, [x20,#832]
    fffec9c4:	52800019 	mov	w25, #0x0                   	// #0
    fffec9c8:	f9400c01 	ldr	x1, [x0,#24]
    fffec9cc:	aa1603e0 	mov	x0, x22
    fffec9d0:	d63f0020 	blr	x1
    fffec9d4:	2a1503e1 	mov	w1, w21
    fffec9d8:	2a1303e0 	mov	w0, w19
    fffec9dc:	94000195 	bl	fffed030 <psci_release_pwr_domain_locks>
    fffec9e0:	35000319 	cbnz	w25, fffeca40 <psci_cpu_suspend_start+0x160>
    fffec9e4:	340000f7 	cbz	w23, fffeca00 <psci_cpu_suspend_start+0x120>
    fffec9e8:	f941a280 	ldr	x0, [x20,#832]
    fffec9ec:	f9401801 	ldr	x1, [x0,#48]
    fffec9f0:	b4000061 	cbz	x1, fffec9fc <psci_cpu_suspend_start+0x11c>
    fffec9f4:	aa1603e0 	mov	x0, x22
    fffec9f8:	d63f0020 	blr	x1
    fffec9fc:	94000cc8 	bl	fffefd1c <psci_power_down_wfi>
    fffeca00:	d503207f 	wfi
    fffeca04:	2a1503e1 	mov	w1, w21
    fffeca08:	2a1303e0 	mov	w0, w19
    fffeca0c:	9400016a 	bl	fffecfb4 <psci_acquire_pwr_domain_locks>
    fffeca10:	910163a1 	add	x1, x29, #0x58
    fffeca14:	2a1303e0 	mov	w0, w19
    fffeca18:	94000096 	bl	fffecc70 <psci_get_target_local_pwr_states>
    fffeca1c:	f941a280 	ldr	x0, [x20,#832]
    fffeca20:	f9401401 	ldr	x1, [x0,#40]
    fffeca24:	910163a0 	add	x0, x29, #0x58
    fffeca28:	d63f0020 	blr	x1
    fffeca2c:	2a1303e0 	mov	w0, w19
    fffeca30:	940000c4 	bl	fffecd40 <psci_set_pwr_domains_to_run>
    fffeca34:	2a1503e1 	mov	w1, w21
    fffeca38:	2a1303e0 	mov	w0, w19
    fffeca3c:	9400017d 	bl	fffed030 <psci_release_pwr_domain_locks>
    fffeca40:	a94153f3 	ldp	x19, x20, [sp,#16]
    fffeca44:	a9425bf5 	ldp	x21, x22, [sp,#32]
    fffeca48:	a94363f7 	ldp	x23, x24, [sp,#48]
    fffeca4c:	f94023f9 	ldr	x25, [sp,#64]
    fffeca50:	a8c67bfd 	ldp	x29, x30, [sp],#96
    fffeca54:	d65f03c0 	ret

00000000fffeca58 <psci_cpu_suspend_finish>:
    fffeca58:	a9be7bfd 	stp	x29, x30, [sp,#-32]!
    fffeca5c:	910003fd 	mov	x29, sp
    fffeca60:	a90153f3 	stp	x19, x20, [sp,#16]
    fffeca64:	d53ed040 	mrs	x0, tpidr_el3
    fffeca68:	b9405800 	ldr	w0, [x0,#88]
    fffeca6c:	350000a0 	cbnz	w0, fffeca80 <psci_cpu_suspend_finish+0x28>
    fffeca70:	39400020 	ldrb	w0, [x1]
    fffeca74:	aa0103f3 	mov	x19, x1
    fffeca78:	7100081f 	cmp	w0, #0x2
    fffeca7c:	540000a0 	b.eq	fffeca90 <psci_cpu_suspend_finish+0x38>
    fffeca80:	d0000023 	adrp	x3, ffff2000 <__func__.2513+0x40>
    fffeca84:	52801f22 	mov	w2, #0xf9                  	// #249
    fffeca88:	91011063 	add	x3, x3, #0x44
    fffeca8c:	14000016 	b	fffecae4 <psci_cpu_suspend_finish+0x8c>
    fffeca90:	d0000040 	adrp	x0, ffff6000 <base_xlation_table>
    fffeca94:	f941a000 	ldr	x0, [x0,#832]
    fffeca98:	f9401401 	ldr	x1, [x0,#40]
    fffeca9c:	aa1303e0 	mov	x0, x19
    fffecaa0:	d63f0020 	blr	x1
    fffecaa4:	94000c91 	bl	fffefce8 <psci_do_pwrup_cache_maintenance>
    fffecaa8:	94000ae5 	bl	fffef63c <plat_get_syscnt_freq2>
    fffecaac:	2a0003e0 	mov	w0, w0
    fffecab0:	d51be000 	msr	cntfrq_el0, x0
    fffecab4:	d0000054 	adrp	x20, ffff6000 <base_xlation_table>
    fffecab8:	f941a680 	ldr	x0, [x20,#840]
    fffecabc:	b4000260 	cbz	x0, fffecb08 <psci_cpu_suspend_finish+0xb0>
    fffecac0:	f9400800 	ldr	x0, [x0,#16]
    fffecac4:	b4000220 	cbz	x0, fffecb08 <psci_cpu_suspend_finish+0xb0>
    fffecac8:	aa1303e0 	mov	x0, x19
    fffecacc:	940000fd 	bl	fffecec0 <psci_find_max_off_lvl>
    fffecad0:	7100081f 	cmp	w0, #0x2
    fffecad4:	54000121 	b.ne	fffecaf8 <psci_cpu_suspend_finish+0xa0>
    fffecad8:	d0000023 	adrp	x3, ffff2000 <__func__.2513+0x40>
    fffecadc:	528022c2 	mov	w2, #0x116                 	// #278
    fffecae0:	9102d463 	add	x3, x3, #0xb5
    fffecae4:	d0000021 	adrp	x1, ffff2000 <__func__.2513+0x40>
    fffecae8:	b0000020 	adrp	x0, ffff1000 <__TEXT_END__>
    fffecaec:	9100b021 	add	x1, x1, #0x2c
    fffecaf0:	913f0000 	add	x0, x0, #0xfc0
    fffecaf4:	94000629 	bl	fffee398 <__assert>
    fffecaf8:	f941a681 	ldr	x1, [x20,#840]
    fffecafc:	2a0003e0 	mov	w0, w0
    fffecb00:	f9401021 	ldr	x1, [x1,#32]
    fffecb04:	d63f0020 	blr	x1
    fffecb08:	d53ed040 	mrs	x0, tpidr_el3
    fffecb0c:	52800041 	mov	w1, #0x2                   	// #2
    fffecb10:	39017001 	strb	w1, [x0,#92]
    fffecb14:	52800020 	mov	w0, #0x1                   	// #1
    fffecb18:	a94153f3 	ldp	x19, x20, [sp,#16]
    fffecb1c:	a8c27bfd 	ldp	x29, x30, [sp],#32
    fffecb20:	17fffe0d 	b	fffec354 <cm_prepare_el3_exit>

00000000fffecb24 <psci_set_req_local_pwr_state.part.0>:
    fffecb24:	a9bf7bfd 	stp	x29, x30, [sp,#-16]!
    fffecb28:	d0000023 	adrp	x3, ffff2000 <__func__.2513+0x40>
    fffecb2c:	d0000021 	adrp	x1, ffff2000 <__func__.2513+0x40>
    fffecb30:	d0000020 	adrp	x0, ffff2000 <__func__.2513+0x40>
    fffecb34:	910003fd 	mov	x29, sp
    fffecb38:	9104e063 	add	x3, x3, #0x138
    fffecb3c:	52801b62 	mov	w2, #0xdb                  	// #219
    fffecb40:	91054821 	add	x1, x1, #0x152
    fffecb44:	9103e000 	add	x0, x0, #0xf8
    fffecb48:	94000614 	bl	fffee398 <__assert>

00000000fffecb4c <psci_validate_power_state>:
    fffecb4c:	52b60002 	mov	w2, #0xb0000000            	// #-1342177280
    fffecb50:	6a02001f 	tst	w0, w2
    fffecb54:	54000201 	b.ne	fffecb94 <psci_validate_power_state+0x48>
    fffecb58:	d0000042 	adrp	x2, ffff6000 <base_xlation_table>
    fffecb5c:	f941a042 	ldr	x2, [x2,#832]
    fffecb60:	f9402442 	ldr	x2, [x2,#72]
    fffecb64:	b5000162 	cbnz	x2, fffecb90 <psci_validate_power_state+0x44>
    fffecb68:	a9bf7bfd 	stp	x29, x30, [sp,#-16]!
    fffecb6c:	d0000023 	adrp	x3, ffff2000 <__func__.2513+0x40>
    fffecb70:	d0000021 	adrp	x1, ffff2000 <__func__.2513+0x40>
    fffecb74:	d0000020 	adrp	x0, ffff2000 <__func__.2513+0x40>
    fffecb78:	910003fd 	mov	x29, sp
    fffecb7c:	9105a463 	add	x3, x3, #0x169
    fffecb80:	528011c2 	mov	w2, #0x8e                  	// #142
    fffecb84:	91054821 	add	x1, x1, #0x152
    fffecb88:	910ec000 	add	x0, x0, #0x3b0
    fffecb8c:	94000603 	bl	fffee398 <__assert>
    fffecb90:	d61f0040 	br	x2
    fffecb94:	12800020 	mov	w0, #0xfffffffe            	// #-2
    fffecb98:	d65f03c0 	ret

00000000fffecb9c <psci_query_sys_suspend_pwrstate>:
    fffecb9c:	d0000041 	adrp	x1, ffff6000 <base_xlation_table>
    fffecba0:	f941a021 	ldr	x1, [x1,#832]
    fffecba4:	f9402c21 	ldr	x1, [x1,#88]
    fffecba8:	b5000161 	cbnz	x1, fffecbd4 <psci_query_sys_suspend_pwrstate+0x38>
    fffecbac:	a9bf7bfd 	stp	x29, x30, [sp,#-16]!
    fffecbb0:	d0000023 	adrp	x3, ffff2000 <__func__.2513+0x40>
    fffecbb4:	d0000021 	adrp	x1, ffff2000 <__func__.2513+0x40>
    fffecbb8:	d0000020 	adrp	x0, ffff2000 <__func__.2513+0x40>
    fffecbbc:	910003fd 	mov	x29, sp
    fffecbc0:	91064063 	add	x3, x3, #0x190
    fffecbc4:	528013c2 	mov	w2, #0x9e                  	// #158
    fffecbc8:	91054821 	add	x1, x1, #0x152
    fffecbcc:	910e4000 	add	x0, x0, #0x390
    fffecbd0:	940005f2 	bl	fffee398 <__assert>
    fffecbd4:	d61f0020 	br	x1

00000000fffecbd8 <psci_is_last_on_cpu>:
    fffecbd8:	a9be7bfd 	stp	x29, x30, [sp,#-32]!
    fffecbdc:	910003fd 	mov	x29, sp
    fffecbe0:	a90153f3 	stp	x19, x20, [sp,#16]
    fffecbe4:	94000d70 	bl	ffff01a4 <plat_my_core_pos>
    fffecbe8:	52800013 	mov	w19, #0x0                   	// #0
    fffecbec:	2a0003f4 	mov	w20, w0
    fffecbf0:	6b13029f 	cmp	w20, w19
    fffecbf4:	54000221 	b.ne	fffecc38 <psci_is_last_on_cpu+0x60>
    fffecbf8:	d53ed040 	mrs	x0, tpidr_el3
    fffecbfc:	b9405800 	ldr	w0, [x0,#88]
    fffecc00:	350000c0 	cbnz	w0, fffecc18 <psci_is_last_on_cpu+0x40>
    fffecc04:	11000673 	add	w19, w19, #0x1
    fffecc08:	7100127f 	cmp	w19, #0x4
    fffecc0c:	54ffff21 	b.ne	fffecbf0 <psci_is_last_on_cpu+0x18>
    fffecc10:	52800020 	mov	w0, #0x1                   	// #1
    fffecc14:	1400000f 	b	fffecc50 <psci_is_last_on_cpu+0x78>
    fffecc18:	d0000023 	adrp	x3, ffff2000 <__func__.2513+0x40>
    fffecc1c:	d0000021 	adrp	x1, ffff2000 <__func__.2513+0x40>
    fffecc20:	d0000020 	adrp	x0, ffff2000 <__func__.2513+0x40>
    fffecc24:	9106f863 	add	x3, x3, #0x1be
    fffecc28:	52801642 	mov	w2, #0xb2                  	// #178
    fffecc2c:	91054821 	add	x1, x1, #0x152
    fffecc30:	91038000 	add	x0, x0, #0xe0
    fffecc34:	940005d9 	bl	fffee398 <__assert>
    fffecc38:	2a1303e0 	mov	w0, w19
    fffecc3c:	94000bc8 	bl	fffefb5c <_cpu_data_by_index>
    fffecc40:	b9405800 	ldr	w0, [x0,#88]
    fffecc44:	7100041f 	cmp	w0, #0x1
    fffecc48:	54fffde0 	b.eq	fffecc04 <psci_is_last_on_cpu+0x2c>
    fffecc4c:	52800000 	mov	w0, #0x0                   	// #0
    fffecc50:	a94153f3 	ldp	x19, x20, [sp,#16]
    fffecc54:	a8c27bfd 	ldp	x29, x30, [sp],#32
    fffecc58:	d65f03c0 	ret

00000000fffecc5c <psci_init_req_local_pwr_states>:
    fffecc5c:	b0000040 	adrp	x0, ffff5000 <__STACKS_START__+0xfc0>
    fffecc60:	d2800082 	mov	x2, #0x4                   	// #4
    fffecc64:	52800041 	mov	w1, #0x2                   	// #2
    fffecc68:	911a2000 	add	x0, x0, #0x688
    fffecc6c:	140005d2 	b	fffee3b4 <memset>

00000000fffecc70 <psci_get_target_local_pwr_states>:
    fffecc70:	a9be7bfd 	stp	x29, x30, [sp,#-32]!
    fffecc74:	910003fd 	mov	x29, sp
    fffecc78:	a90153f3 	stp	x19, x20, [sp,#16]
    fffecc7c:	2a0003f4 	mov	w20, w0
    fffecc80:	aa0103f3 	mov	x19, x1
    fffecc84:	d53ed040 	mrs	x0, tpidr_el3
    fffecc88:	39417400 	ldrb	w0, [x0,#93]
    fffecc8c:	39000020 	strb	w0, [x1]
    fffecc90:	94000d45 	bl	ffff01a4 <plat_my_core_pos>
    fffecc94:	d37c7c00 	ubfiz	x0, x0, #4, #32
    fffecc98:	d0000041 	adrp	x1, ffff6000 <base_xlation_table>
    fffecc9c:	910c0021 	add	x1, x1, #0x300
    fffecca0:	8b000020 	add	x0, x1, x0
    fffecca4:	90000081 	adrp	x1, ffffc000 <__COHERENT_RAM_START__>
    fffecca8:	9100c021 	add	x1, x1, #0x30
    fffeccac:	b9400802 	ldr	w2, [x0,#8]
    fffeccb0:	52800020 	mov	w0, #0x1                   	// #1
    fffeccb4:	6b14001f 	cmp	w0, w20
    fffeccb8:	54000108 	b.hi	fffeccd8 <psci_get_target_local_pwr_states+0x68>
    fffeccbc:	d37c7c42 	ubfiz	x2, x2, #4, #32
    fffeccc0:	8b020022 	add	x2, x1, x2
    fffeccc4:	39403043 	ldrb	w3, [x2,#12]
    fffeccc8:	38204a63 	strb	w3, [x19,w0,uxtw]
    fffecccc:	11000400 	add	w0, w0, #0x1
    fffeccd0:	b9400842 	ldr	w2, [x2,#8]
    fffeccd4:	17fffff8 	b	fffeccb4 <psci_get_target_local_pwr_states+0x44>
    fffeccd8:	7100041f 	cmp	w0, #0x1
    fffeccdc:	54000088 	b.hi	fffeccec <psci_get_target_local_pwr_states+0x7c>
    fffecce0:	38204a7f 	strb	wzr, [x19,w0,uxtw]
    fffecce4:	11000400 	add	w0, w0, #0x1
    fffecce8:	17fffffc 	b	fffeccd8 <psci_get_target_local_pwr_states+0x68>
    fffeccec:	a94153f3 	ldp	x19, x20, [sp,#16]
    fffeccf0:	a8c27bfd 	ldp	x29, x30, [sp],#32
    fffeccf4:	d65f03c0 	ret

00000000fffeccf8 <psci_get_parent_pwr_domain_nodes>:
    fffeccf8:	d0000043 	adrp	x3, ffff6000 <base_xlation_table>
    fffeccfc:	d37c7c00 	ubfiz	x0, x0, #4, #32
    fffecd00:	910c0063 	add	x3, x3, #0x300
    fffecd04:	90000084 	adrp	x4, ffffc000 <__COHERENT_RAM_START__>
    fffecd08:	8b000060 	add	x0, x3, x0
    fffecd0c:	9100c084 	add	x4, x4, #0x30
    fffecd10:	d2800003 	mov	x3, #0x0                   	// #0
    fffecd14:	b9400800 	ldr	w0, [x0,#8]
    fffecd18:	11000465 	add	w5, w3, #0x1
    fffecd1c:	6b05003f 	cmp	w1, w5
    fffecd20:	540000e3 	b.cc	fffecd3c <psci_get_parent_pwr_domain_nodes+0x44>
    fffecd24:	b8237840 	str	w0, [x2,x3,lsl #2]
    fffecd28:	d37c7c00 	ubfiz	x0, x0, #4, #32
    fffecd2c:	8b000080 	add	x0, x4, x0
    fffecd30:	91000463 	add	x3, x3, #0x1
    fffecd34:	b9400800 	ldr	w0, [x0,#8]
    fffecd38:	17fffff8 	b	fffecd18 <psci_get_parent_pwr_domain_nodes+0x20>
    fffecd3c:	d65f03c0 	ret

00000000fffecd40 <psci_set_pwr_domains_to_run>:
    fffecd40:	a9be7bfd 	stp	x29, x30, [sp,#-32]!
    fffecd44:	910003fd 	mov	x29, sp
    fffecd48:	f9000bf3 	str	x19, [sp,#16]
    fffecd4c:	2a0003f3 	mov	w19, w0
    fffecd50:	94000d15 	bl	ffff01a4 <plat_my_core_pos>
    fffecd54:	2a0003e0 	mov	w0, w0
    fffecd58:	d0000041 	adrp	x1, ffff6000 <base_xlation_table>
    fffecd5c:	910c0021 	add	x1, x1, #0x300
    fffecd60:	8b001021 	add	x1, x1, x0, lsl #4
    fffecd64:	b9400821 	ldr	w1, [x1,#8]
    fffecd68:	34000213 	cbz	w19, fffecda8 <psci_set_pwr_domains_to_run+0x68>
    fffecd6c:	90000082 	adrp	x2, ffffc000 <__COHERENT_RAM_START__>
    fffecd70:	d37c7c21 	ubfiz	x1, x1, #4, #32
    fffecd74:	9100c042 	add	x2, x2, #0x30
    fffecd78:	b0000043 	adrp	x3, ffff5000 <__STACKS_START__+0xfc0>
    fffecd7c:	8b010041 	add	x1, x2, x1
    fffecd80:	911a2063 	add	x3, x3, #0x688
    fffecd84:	7100067f 	cmp	w19, #0x1
    fffecd88:	3820687f 	strb	wzr, [x3,x0]
    fffecd8c:	3900303f 	strb	wzr, [x1,#12]
    fffecd90:	b9400820 	ldr	w0, [x1,#8]
    fffecd94:	540000a9 	b.ls	fffecda8 <psci_set_pwr_domains_to_run+0x68>
    fffecd98:	d37c7c00 	ubfiz	x0, x0, #4, #32
    fffecd9c:	8b000040 	add	x0, x2, x0
    fffecda0:	3900301f 	strb	wzr, [x0,#12]
    fffecda4:	97ffff60 	bl	fffecb24 <psci_set_req_local_pwr_state.part.0>
    fffecda8:	d53ed040 	mrs	x0, tpidr_el3
    fffecdac:	b900581f 	str	wzr, [x0,#88]
    fffecdb0:	d53ed040 	mrs	x0, tpidr_el3
    fffecdb4:	3901741f 	strb	wzr, [x0,#93]
    fffecdb8:	d53ed040 	mrs	x0, tpidr_el3
    fffecdbc:	f9400bf3 	ldr	x19, [sp,#16]
    fffecdc0:	d2800101 	mov	x1, #0x8                   	// #8
    fffecdc4:	a8c27bfd 	ldp	x29, x30, [sp],#32
    fffecdc8:	91016000 	add	x0, x0, #0x58
    fffecdcc:	14000c6a 	b	fffeff74 <flush_dcache_range>

00000000fffecdd0 <psci_do_state_coordination>:
    fffecdd0:	a9bd7bfd 	stp	x29, x30, [sp,#-48]!
    fffecdd4:	910003fd 	mov	x29, sp
    fffecdd8:	a90153f3 	stp	x19, x20, [sp,#16]
    fffecddc:	f90013f5 	str	x21, [sp,#32]
    fffecde0:	aa0103f4 	mov	x20, x1
    fffecde4:	2a0003f5 	mov	w21, w0
    fffecde8:	94000cef 	bl	ffff01a4 <plat_my_core_pos>
    fffecdec:	710006bf 	cmp	w21, #0x1
    fffecdf0:	54000129 	b.ls	fffece14 <psci_do_state_coordination+0x44>
    fffecdf4:	d0000023 	adrp	x3, ffff2000 <__func__.2513+0x40>
    fffecdf8:	d0000021 	adrp	x1, ffff2000 <__func__.2513+0x40>
    fffecdfc:	d0000020 	adrp	x0, ffff2000 <__func__.2513+0x40>
    fffece00:	9107a063 	add	x3, x3, #0x1e8
    fffece04:	52803182 	mov	w2, #0x18c                 	// #396
    fffece08:	91054821 	add	x1, x1, #0x152
    fffece0c:	91046000 	add	x0, x0, #0x118
    fffece10:	94000562 	bl	fffee398 <__assert>
    fffece14:	2a0003e2 	mov	w2, w0
    fffece18:	d0000053 	adrp	x19, ffff6000 <base_xlation_table>
    fffece1c:	910c0261 	add	x1, x19, #0x300
    fffece20:	8b021021 	add	x1, x1, x2, lsl #4
    fffece24:	b9400820 	ldr	w0, [x1,#8]
    fffece28:	340001f5 	cbz	w21, fffece64 <psci_do_state_coordination+0x94>
    fffece2c:	b0000041 	adrp	x1, ffff5000 <__STACKS_START__+0xfc0>
    fffece30:	39400683 	ldrb	w3, [x20,#1]
    fffece34:	911a2021 	add	x1, x1, #0x688
    fffece38:	d37c7c00 	ubfiz	x0, x0, #4, #32
    fffece3c:	38226823 	strb	w3, [x1,x2]
    fffece40:	90000082 	adrp	x2, ffffc000 <__COHERENT_RAM_START__>
    fffece44:	9100c042 	add	x2, x2, #0x30
    fffece48:	8b000043 	add	x3, x2, x0
    fffece4c:	b8606840 	ldr	w0, [x2,x0]
    fffece50:	b9400462 	ldr	w2, [x3,#4]
    fffece54:	8b000021 	add	x1, x1, x0
    fffece58:	52800020 	mov	w0, #0x1                   	// #1
    fffece5c:	97fff547 	bl	fffea378 <plat_get_target_pwr_state>
    fffece60:	39000680 	strb	w0, [x20,#1]
    fffece64:	d53ed040 	mrs	x0, tpidr_el3
    fffece68:	39400281 	ldrb	w1, [x20]
    fffece6c:	39017401 	strb	w1, [x0,#93]
    fffece70:	d53ed040 	mrs	x0, tpidr_el3
    fffece74:	d2800021 	mov	x1, #0x1                   	// #1
    fffece78:	91017400 	add	x0, x0, #0x5d
    fffece7c:	910c0273 	add	x19, x19, #0x300
    fffece80:	94000c3d 	bl	fffeff74 <flush_dcache_range>
    fffece84:	94000cc8 	bl	ffff01a4 <plat_my_core_pos>
    fffece88:	d37c7c00 	ubfiz	x0, x0, #4, #32
    fffece8c:	8b000260 	add	x0, x19, x0
    fffece90:	b9400800 	ldr	w0, [x0,#8]
    fffece94:	340000f5 	cbz	w21, fffeceb0 <psci_do_state_coordination+0xe0>
    fffece98:	d37c7c01 	ubfiz	x1, x0, #4, #32
    fffece9c:	90000080 	adrp	x0, ffffc000 <__COHERENT_RAM_START__>
    fffecea0:	9100c000 	add	x0, x0, #0x30
    fffecea4:	39400682 	ldrb	w2, [x20,#1]
    fffecea8:	8b010000 	add	x0, x0, x1
    fffeceac:	39003002 	strb	w2, [x0,#12]
    fffeceb0:	a94153f3 	ldp	x19, x20, [sp,#16]
    fffeceb4:	f94013f5 	ldr	x21, [sp,#32]
    fffeceb8:	a8c37bfd 	ldp	x29, x30, [sp],#48
    fffecebc:	d65f03c0 	ret

00000000fffecec0 <psci_find_max_off_lvl>:
    fffecec0:	39400401 	ldrb	w1, [x0,#1]
    fffecec4:	7100083f 	cmp	w1, #0x2
    fffecec8:	540000e0 	b.eq	fffecee4 <psci_find_max_off_lvl+0x24>
    fffececc:	39400001 	ldrb	w1, [x0]
    fffeced0:	52800040 	mov	w0, #0x2                   	// #2
    fffeced4:	6b00003f 	cmp	w1, w0
    fffeced8:	54000081 	b.ne	fffecee8 <psci_find_max_off_lvl+0x28>
    fffecedc:	52800000 	mov	w0, #0x0                   	// #0
    fffecee0:	d65f03c0 	ret
    fffecee4:	52800020 	mov	w0, #0x1                   	// #1
    fffecee8:	d65f03c0 	ret

00000000fffeceec <psci_find_target_suspend_lvl>:
    fffeceec:	39400401 	ldrb	w1, [x0,#1]
    fffecef0:	350000c1 	cbnz	w1, fffecf08 <psci_find_target_suspend_lvl+0x1c>
    fffecef4:	39400001 	ldrb	w1, [x0]
    fffecef8:	52800040 	mov	w0, #0x2                   	// #2
    fffecefc:	34000081 	cbz	w1, fffecf0c <psci_find_target_suspend_lvl+0x20>
    fffecf00:	52800000 	mov	w0, #0x0                   	// #0
    fffecf04:	d65f03c0 	ret
    fffecf08:	52800020 	mov	w0, #0x1                   	// #1
    fffecf0c:	d65f03c0 	ret

00000000fffecf10 <psci_validate_suspend_req>:
    fffecf10:	a9bf7bfd 	stp	x29, x30, [sp,#-16]!
    fffecf14:	aa0003e4 	mov	x4, x0
    fffecf18:	2a0103e3 	mov	w3, w1
    fffecf1c:	910003fd 	mov	x29, sp
    fffecf20:	97fffff3 	bl	fffeceec <psci_find_target_suspend_lvl>
    fffecf24:	7100081f 	cmp	w0, #0x2
    fffecf28:	54000380 	b.eq	fffecf98 <psci_validate_suspend_req+0x88>
    fffecf2c:	2a0003e2 	mov	w2, w0
    fffecf30:	52800005 	mov	w5, #0x0                   	// #0
    fffecf34:	37f801c0 	tbnz	w0, #31, fffecf6c <psci_validate_suspend_req+0x5c>
    fffecf38:	3860c886 	ldrb	w6, [x4,w0,sxtw]
    fffecf3c:	340000c6 	cbz	w6, fffecf54 <psci_validate_suspend_req+0x44>
    fffecf40:	710004df 	cmp	w6, #0x1
    fffecf44:	52800041 	mov	w1, #0x2                   	// #2
    fffecf48:	540000c8 	b.hi	fffecf60 <psci_validate_suspend_req+0x50>
    fffecf4c:	52800021 	mov	w1, #0x1                   	// #1
    fffecf50:	14000002 	b	fffecf58 <psci_validate_suspend_req+0x48>
    fffecf54:	52800001 	mov	w1, #0x0                   	// #0
    fffecf58:	6b0100bf 	cmp	w5, w1
    fffecf5c:	540001e8 	b.hi	fffecf98 <psci_validate_suspend_req+0x88>
    fffecf60:	51000400 	sub	w0, w0, #0x1
    fffecf64:	2a0103e5 	mov	w5, w1
    fffecf68:	17fffff3 	b	fffecf34 <psci_validate_suspend_req+0x24>
    fffecf6c:	aa0403e0 	mov	x0, x4
    fffecf70:	97ffffd4 	bl	fffecec0 <psci_find_max_off_lvl>
    fffecf74:	6b00005f 	cmp	w2, w0
    fffecf78:	2a0003e1 	mov	w1, w0
    fffecf7c:	54000120 	b.eq	fffecfa0 <psci_validate_suspend_req+0x90>
    fffecf80:	52800000 	mov	w0, #0x0                   	// #0
    fffecf84:	35000143 	cbnz	w3, fffecfac <psci_validate_suspend_req+0x9c>
    fffecf88:	7100083f 	cmp	w1, #0x2
    fffecf8c:	12800020 	mov	w0, #0xfffffffe            	// #-2
    fffecf90:	1a8003e0 	csel	w0, wzr, w0, eq
    fffecf94:	14000006 	b	fffecfac <psci_validate_suspend_req+0x9c>
    fffecf98:	12800020 	mov	w0, #0xfffffffe            	// #-2
    fffecf9c:	14000004 	b	fffecfac <psci_validate_suspend_req+0x9c>
    fffecfa0:	6b1f007f 	cmp	w3, wzr
    fffecfa4:	12800020 	mov	w0, #0xfffffffe            	// #-2
    fffecfa8:	1a8013e0 	csel	w0, wzr, w0, ne
    fffecfac:	a8c17bfd 	ldp	x29, x30, [sp],#16
    fffecfb0:	d65f03c0 	ret

00000000fffecfb4 <psci_acquire_pwr_domain_locks>:
    fffecfb4:	a9bc7bfd 	stp	x29, x30, [sp,#-64]!
    fffecfb8:	d37c7c21 	ubfiz	x1, x1, #4, #32
    fffecfbc:	910003fd 	mov	x29, sp
    fffecfc0:	f9001bf7 	str	x23, [sp,#48]
    fffecfc4:	2a0003f7 	mov	w23, w0
    fffecfc8:	d0000040 	adrp	x0, ffff6000 <base_xlation_table>
    fffecfcc:	910c0000 	add	x0, x0, #0x300
    fffecfd0:	8b010001 	add	x1, x0, x1
    fffecfd4:	a90153f3 	stp	x19, x20, [sp,#16]
    fffecfd8:	a9025bf5 	stp	x21, x22, [sp,#32]
    fffecfdc:	b9400833 	ldr	w19, [x1,#8]
    fffecfe0:	90000095 	adrp	x21, ffffc000 <__COHERENT_RAM_START__>
    fffecfe4:	90000096 	adrp	x22, ffffc000 <__COHERENT_RAM_START__>
    fffecfe8:	52800034 	mov	w20, #0x1                   	// #1
    fffecfec:	910042b5 	add	x21, x21, #0x10
    fffecff0:	9100c2d6 	add	x22, x22, #0x30
    fffecff4:	6b17029f 	cmp	w20, w23
    fffecff8:	54000128 	b.hi	fffed01c <psci_acquire_pwr_domain_locks+0x68>
    fffecffc:	d37c7e73 	ubfiz	x19, x19, #4, #32
    fffed000:	11000694 	add	w20, w20, #0x1
    fffed004:	8b1302d3 	add	x19, x22, x19
    fffed008:	39403a60 	ldrb	w0, [x19,#14]
    fffed00c:	8b000ea0 	add	x0, x21, x0, lsl #3
    fffed010:	9400038e 	bl	fffede48 <bakery_lock_get>
    fffed014:	b9400a73 	ldr	w19, [x19,#8]
    fffed018:	17fffff7 	b	fffecff4 <psci_acquire_pwr_domain_locks+0x40>
    fffed01c:	a94153f3 	ldp	x19, x20, [sp,#16]
    fffed020:	a9425bf5 	ldp	x21, x22, [sp,#32]
    fffed024:	f9401bf7 	ldr	x23, [sp,#48]
    fffed028:	a8c47bfd 	ldp	x29, x30, [sp],#64
    fffed02c:	d65f03c0 	ret

00000000fffed030 <psci_release_pwr_domain_locks>:
    fffed030:	a9bc7bfd 	stp	x29, x30, [sp,#-64]!
    fffed034:	910003fd 	mov	x29, sp
    fffed038:	910103a2 	add	x2, x29, #0x40
    fffed03c:	f90013f5 	str	x21, [sp,#32]
    fffed040:	a90153f3 	stp	x19, x20, [sp,#16]
    fffed044:	f0000075 	adrp	x21, ffffc000 <__COHERENT_RAM_START__>
    fffed048:	2a0003f3 	mov	w19, w0
    fffed04c:	f0000074 	adrp	x20, ffffc000 <__COHERENT_RAM_START__>
    fffed050:	2a0103e0 	mov	w0, w1
    fffed054:	b81f8c5f 	str	wzr, [x2,#-8]!
    fffed058:	2a1303e1 	mov	w1, w19
    fffed05c:	91004294 	add	x20, x20, #0x10
    fffed060:	9100c2b5 	add	x21, x21, #0x30
    fffed064:	97ffff25 	bl	fffeccf8 <psci_get_parent_pwr_domain_nodes>
    fffed068:	6b1f027f 	cmp	w19, wzr
    fffed06c:	5400014d 	b.le	fffed094 <psci_release_pwr_domain_locks+0x64>
    fffed070:	51000673 	sub	w19, w19, #0x1
    fffed074:	910103a0 	add	x0, x29, #0x40
    fffed078:	8b33c800 	add	x0, x0, w19, sxtw #2
    fffed07c:	b85f8000 	ldur	w0, [x0,#-8]
    fffed080:	8b0012a0 	add	x0, x21, x0, lsl #4
    fffed084:	39403800 	ldrb	w0, [x0,#14]
    fffed088:	8b000e80 	add	x0, x20, x0, lsl #3
    fffed08c:	940003b6 	bl	fffedf64 <bakery_lock_release>
    fffed090:	17fffff6 	b	fffed068 <psci_release_pwr_domain_locks+0x38>
    fffed094:	a94153f3 	ldp	x19, x20, [sp,#16]
    fffed098:	f94013f5 	ldr	x21, [sp,#32]
    fffed09c:	a8c47bfd 	ldp	x29, x30, [sp],#64
    fffed0a0:	d65f03c0 	ret

00000000fffed0a4 <psci_validate_mpidr>:
    fffed0a4:	a9bf7bfd 	stp	x29, x30, [sp,#-16]!
    fffed0a8:	910003fd 	mov	x29, sp
    fffed0ac:	97fff689 	bl	fffeaad0 <plat_core_pos_by_mpidr>
    fffed0b0:	6b1f001f 	cmp	w0, wzr
    fffed0b4:	12800020 	mov	w0, #0xfffffffe            	// #-2
    fffed0b8:	1a9fb000 	csel	w0, w0, wzr, lt
    fffed0bc:	a8c17bfd 	ldp	x29, x30, [sp],#16
    fffed0c0:	d65f03c0 	ret

00000000fffed0c4 <psci_validate_entry_point>:
    fffed0c4:	a9bb7bfd 	stp	x29, x30, [sp,#-80]!
    fffed0c8:	910003fd 	mov	x29, sp
    fffed0cc:	a90153f3 	stp	x19, x20, [sp,#16]
    fffed0d0:	aa0003f3 	mov	x19, x0
    fffed0d4:	b0000040 	adrp	x0, ffff6000 <base_xlation_table>
    fffed0d8:	a9025bf5 	stp	x21, x22, [sp,#32]
    fffed0dc:	aa0103f5 	mov	x21, x1
    fffed0e0:	f941a000 	ldr	x0, [x0,#832]
    fffed0e4:	a9046bf9 	stp	x25, x26, [sp,#64]
    fffed0e8:	a90363f7 	stp	x23, x24, [sp,#48]
    fffed0ec:	f9402801 	ldr	x1, [x0,#80]
    fffed0f0:	aa0203fa 	mov	x26, x2
    fffed0f4:	b50000e1 	cbnz	x1, fffed110 <psci_validate_entry_point+0x4c>
    fffed0f8:	d53e1118 	mrs	x24, scr_el3
    fffed0fc:	d5381000 	mrs	x0, sctlr_el1
    fffed100:	92780319 	and	x25, x24, #0x100
    fffed104:	36400118 	tbz	w24, #8, fffed124 <psci_validate_entry_point+0x60>
    fffed108:	d53c1000 	mrs	x0, sctlr_el2
    fffed10c:	14000006 	b	fffed124 <psci_validate_entry_point+0x60>
    fffed110:	aa1503e0 	mov	x0, x21
    fffed114:	d63f0020 	blr	x1
    fffed118:	34ffff00 	cbz	w0, fffed0f8 <psci_validate_entry_point+0x34>
    fffed11c:	12800100 	mov	w0, #0xfffffff7            	// #-9
    fffed120:	14000024 	b	fffed1b0 <psci_validate_entry_point+0xec>
    fffed124:	92670001 	and	x1, x0, #0x2000000
    fffed128:	d2800076 	mov	x22, #0x3                   	// #3
    fffed12c:	eb1f003f 	cmp	x1, xzr
    fffed130:	d3596414 	ubfx	x20, x0, #25, #1
    fffed134:	52800b01 	mov	w1, #0x58                  	// #88
    fffed138:	9a9f16c0 	csinc	x0, x22, xzr, ne
    fffed13c:	52800037 	mov	w23, #0x1                   	// #1
    fffed140:	79000661 	strh	w1, [x19,#2]
    fffed144:	b9000660 	str	w0, [x19,#4]
    fffed148:	d2800802 	mov	x2, #0x40                  	// #64
    fffed14c:	39000277 	strb	w23, [x19]
    fffed150:	52800001 	mov	w1, #0x0                   	// #0
    fffed154:	39000677 	strb	w23, [x19,#1]
    fffed158:	91006260 	add	x0, x19, #0x18
    fffed15c:	f9000675 	str	x21, [x19,#8]
    fffed160:	94000495 	bl	fffee3b4 <memset>
    fffed164:	f9000e7a 	str	x26, [x19,#24]
    fffed168:	36500118 	tbz	w24, #10, fffed188 <psci_validate_entry_point+0xc4>
    fffed16c:	3707fd95 	tbnz	w21, #0, fffed11c <psci_validate_entry_point+0x58>
    fffed170:	eb1f033f 	cmp	x25, xzr
    fffed174:	52800040 	mov	w0, #0x2                   	// #2
    fffed178:	1a971000 	csel	w0, w0, w23, ne
    fffed17c:	52807821 	mov	w1, #0x3c1                 	// #961
    fffed180:	2a000820 	orr	w0, w1, w0, lsl #2
    fffed184:	14000009 	b	fffed1a8 <psci_validate_entry_point+0xe4>
    fffed188:	eb1f033f 	cmp	x25, xzr
    fffed18c:	52800140 	mov	w0, #0xa                   	// #10
    fffed190:	1a8002c0 	csel	w0, w22, w0, eq
    fffed194:	531b02b5 	ubfiz	w21, w21, #5, #1
    fffed198:	52803a01 	mov	w1, #0x1d0                 	// #464
    fffed19c:	2a142400 	orr	w0, w0, w20, lsl #9
    fffed1a0:	2a0102b5 	orr	w21, w21, w1
    fffed1a4:	2a0002a0 	orr	w0, w21, w0
    fffed1a8:	b9001260 	str	w0, [x19,#16]
    fffed1ac:	52800000 	mov	w0, #0x0                   	// #0
    fffed1b0:	a94153f3 	ldp	x19, x20, [sp,#16]
    fffed1b4:	a9425bf5 	ldp	x21, x22, [sp,#32]
    fffed1b8:	a94363f7 	ldp	x23, x24, [sp,#48]
    fffed1bc:	a9446bf9 	ldp	x25, x26, [sp,#64]
    fffed1c0:	a8c57bfd 	ldp	x29, x30, [sp],#80
    fffed1c4:	d65f03c0 	ret

00000000fffed1c8 <psci_warmboot_entrypoint>:
    fffed1c8:	a9bd7bfd 	stp	x29, x30, [sp,#-48]!
    fffed1cc:	910003fd 	mov	x29, sp
    fffed1d0:	a90153f3 	stp	x19, x20, [sp,#16]
    fffed1d4:	94000bf4 	bl	ffff01a4 <plat_my_core_pos>
    fffed1d8:	2a0003f4 	mov	w20, w0
    fffed1dc:	790053bf 	strh	wzr, [x29,#40]
    fffed1e0:	d53ed040 	mrs	x0, tpidr_el3
    fffed1e4:	b9405800 	ldr	w0, [x0,#88]
    fffed1e8:	7100041f 	cmp	w0, #0x1
    fffed1ec:	540000a1 	b.ne	fffed200 <psci_warmboot_entrypoint+0x38>
    fffed1f0:	b0000020 	adrp	x0, ffff2000 <__func__.2513+0x40>
    fffed1f4:	91081c00 	add	x0, x0, #0x207
    fffed1f8:	940003a7 	bl	fffee094 <tf_printf>
    fffed1fc:	94000b4e 	bl	fffeff34 <do_panic>
    fffed200:	d53ed040 	mrs	x0, tpidr_el3
    fffed204:	39417013 	ldrb	w19, [x0,#92]
    fffed208:	2a1403e1 	mov	w1, w20
    fffed20c:	71000a7f 	cmp	w19, #0x2
    fffed210:	1a9f1673 	csinc	w19, w19, wzr, ne
    fffed214:	2a1303e0 	mov	w0, w19
    fffed218:	97ffff67 	bl	fffecfb4 <psci_acquire_pwr_domain_locks>
    fffed21c:	9100a3a1 	add	x1, x29, #0x28
    fffed220:	2a1303e0 	mov	w0, w19
    fffed224:	97fffe93 	bl	fffecc70 <psci_get_target_local_pwr_states>
    fffed228:	d53ed040 	mrs	x0, tpidr_el3
    fffed22c:	b9405800 	ldr	w0, [x0,#88]
    fffed230:	9100a3a1 	add	x1, x29, #0x28
    fffed234:	7100081f 	cmp	w0, #0x2
    fffed238:	2a1403e0 	mov	w0, w20
    fffed23c:	54000061 	b.ne	fffed248 <psci_warmboot_entrypoint+0x80>
    fffed240:	97fffd74 	bl	fffec810 <psci_cpu_on_finish>
    fffed244:	14000002 	b	fffed24c <psci_warmboot_entrypoint+0x84>
    fffed248:	97fffe04 	bl	fffeca58 <psci_cpu_suspend_finish>
    fffed24c:	2a1303e0 	mov	w0, w19
    fffed250:	97fffebc 	bl	fffecd40 <psci_set_pwr_domains_to_run>
    fffed254:	2a1403e1 	mov	w1, w20
    fffed258:	2a1303e0 	mov	w0, w19
    fffed25c:	97ffff75 	bl	fffed030 <psci_release_pwr_domain_locks>
    fffed260:	a94153f3 	ldp	x19, x20, [sp,#16]
    fffed264:	a8c37bfd 	ldp	x29, x30, [sp],#48
    fffed268:	d65f03c0 	ret

00000000fffed26c <psci_spd_migrate_info>:
    fffed26c:	b0000041 	adrp	x1, ffff6000 <base_xlation_table>
    fffed270:	f941a421 	ldr	x1, [x1,#840]
    fffed274:	b4000221 	cbz	x1, fffed2b8 <psci_spd_migrate_info+0x4c>
    fffed278:	f9401821 	ldr	x1, [x1,#48]
    fffed27c:	b40001e1 	cbz	x1, fffed2b8 <psci_spd_migrate_info+0x4c>
    fffed280:	a9bf7bfd 	stp	x29, x30, [sp,#-16]!
    fffed284:	910003fd 	mov	x29, sp
    fffed288:	d63f0020 	blr	x1
    fffed28c:	11000401 	add	w1, w0, #0x1
    fffed290:	71000c3f 	cmp	w1, #0x3
    fffed294:	54000169 	b.ls	fffed2c0 <psci_spd_migrate_info+0x54>
    fffed298:	b0000023 	adrp	x3, ffff2000 <__func__.2513+0x40>
    fffed29c:	b0000021 	adrp	x1, ffff2000 <__func__.2513+0x40>
    fffed2a0:	b0000020 	adrp	x0, ffff2000 <__func__.2513+0x40>
    fffed2a4:	9108c863 	add	x3, x3, #0x232
    fffed2a8:	52806a42 	mov	w2, #0x352                 	// #850
    fffed2ac:	91054821 	add	x1, x1, #0x152
    fffed2b0:	910d8000 	add	x0, x0, #0x360
    fffed2b4:	94000439 	bl	fffee398 <__assert>
    fffed2b8:	12800000 	mov	w0, #0xffffffff            	// #-1
    fffed2bc:	d65f03c0 	ret
    fffed2c0:	a8c17bfd 	ldp	x29, x30, [sp],#16
    fffed2c4:	d65f03c0 	ret

00000000fffed2c8 <psci_print_power_domain_map>:
    fffed2c8:	a9ba7bfd 	stp	x29, x30, [sp,#-96]!
    fffed2cc:	b0000020 	adrp	x0, ffff2000 <__func__.2513+0x40>
    fffed2d0:	910003fd 	mov	x29, sp
    fffed2d4:	910ab000 	add	x0, x0, #0x2ac
    fffed2d8:	a90153f3 	stp	x19, x20, [sp,#16]
    fffed2dc:	a9025bf5 	stp	x21, x22, [sp,#32]
    fffed2e0:	a90363f7 	stp	x23, x24, [sp,#48]
    fffed2e4:	a9046bf9 	stp	x25, x26, [sp,#64]
    fffed2e8:	f9002bfb 	str	x27, [sp,#80]
    fffed2ec:	9400036a 	bl	fffee094 <tf_printf>
    fffed2f0:	f0000060 	adrp	x0, ffffc000 <__COHERENT_RAM_START__>
    fffed2f4:	b0000037 	adrp	x23, ffff2000 <__func__.2513+0x40>
    fffed2f8:	9100c000 	add	x0, x0, #0x30
    fffed2fc:	b0000036 	adrp	x22, ffff2000 <__func__.2513+0x40>
    fffed300:	52800058 	mov	w24, #0x2                   	// #2
    fffed304:	910b36d6 	add	x22, x22, #0x2cd
    fffed308:	aa1703f5 	mov	x21, x23
    fffed30c:	91002014 	add	x20, x0, #0x8
    fffed310:	91012013 	add	x19, x0, #0x48
    fffed314:	39401284 	ldrb	w4, [x20,#4]
    fffed318:	52800000 	mov	w0, #0x0                   	// #0
    fffed31c:	34000064 	cbz	w4, fffed328 <psci_print_power_domain_map+0x60>
    fffed320:	7100049f 	cmp	w4, #0x1
    fffed324:	1a9f8700 	csinc	w0, w24, wzr, hi
    fffed328:	910de2e2 	add	x2, x23, #0x378
    fffed32c:	2a0003e0 	mov	w0, w0
    fffed330:	39401681 	ldrb	w1, [x20,#5]
    fffed334:	f8607843 	ldr	x3, [x2,x0,lsl #3]
    fffed338:	aa1603e0 	mov	x0, x22
    fffed33c:	b8410682 	ldr	w2, [x20],#16
    fffed340:	94000355 	bl	fffee094 <tf_printf>
    fffed344:	eb13029f 	cmp	x20, x19
    fffed348:	54fffe61 	b.ne	fffed314 <psci_print_power_domain_map+0x4c>
    fffed34c:	b0000054 	adrp	x20, ffff6000 <base_xlation_table>
    fffed350:	b0000036 	adrp	x22, ffff2000 <__func__.2513+0x40>
    fffed354:	910c2294 	add	x20, x20, #0x308
    fffed358:	52800013 	mov	w19, #0x0                   	// #0
    fffed35c:	d2800057 	mov	x23, #0x2                   	// #2
    fffed360:	d2800038 	mov	x24, #0x1                   	// #1
    fffed364:	910c46d6 	add	x22, x22, #0x311
    fffed368:	2a1303e0 	mov	w0, w19
    fffed36c:	940009fc 	bl	fffefb5c <_cpu_data_by_index>
    fffed370:	39417401 	ldrb	w1, [x0,#93]
    fffed374:	d2800000 	mov	x0, #0x0                   	// #0
    fffed378:	34000061 	cbz	w1, fffed384 <psci_print_power_domain_map+0xbc>
    fffed37c:	7100043f 	cmp	w1, #0x1
    fffed380:	9a9882e0 	csel	x0, x23, x24, hi
    fffed384:	910de2a3 	add	x3, x21, #0x378
    fffed388:	f85f8299 	ldur	x25, [x20,#-8]
    fffed38c:	b841069a 	ldr	w26, [x20],#16
    fffed390:	f860787b 	ldr	x27, [x3,x0,lsl #3]
    fffed394:	2a1303e0 	mov	w0, w19
    fffed398:	11000673 	add	w19, w19, #0x1
    fffed39c:	940009f0 	bl	fffefb5c <_cpu_data_by_index>
    fffed3a0:	39417404 	ldrb	w4, [x0,#93]
    fffed3a4:	aa1b03e3 	mov	x3, x27
    fffed3a8:	2a1a03e2 	mov	w2, w26
    fffed3ac:	aa1903e1 	mov	x1, x25
    fffed3b0:	aa1603e0 	mov	x0, x22
    fffed3b4:	94000338 	bl	fffee094 <tf_printf>
    fffed3b8:	7100127f 	cmp	w19, #0x4
    fffed3bc:	54fffd61 	b.ne	fffed368 <psci_print_power_domain_map+0xa0>
    fffed3c0:	a94153f3 	ldp	x19, x20, [sp,#16]
    fffed3c4:	a9425bf5 	ldp	x21, x22, [sp,#32]
    fffed3c8:	a94363f7 	ldp	x23, x24, [sp,#48]
    fffed3cc:	a9446bf9 	ldp	x25, x26, [sp,#64]
    fffed3d0:	f9402bfb 	ldr	x27, [sp,#80]
    fffed3d4:	a8c67bfd 	ldp	x29, x30, [sp],#96
    fffed3d8:	d65f03c0 	ret

00000000fffed3dc <psci_cpu_on>:
    fffed3dc:	a9b77bfd 	stp	x29, x30, [sp,#-144]!
    fffed3e0:	910003fd 	mov	x29, sp
    fffed3e4:	a90153f3 	stp	x19, x20, [sp,#16]
    fffed3e8:	f90013f5 	str	x21, [sp,#32]
    fffed3ec:	aa0003f3 	mov	x19, x0
    fffed3f0:	aa0103f4 	mov	x20, x1
    fffed3f4:	aa0203f5 	mov	x21, x2
    fffed3f8:	97ffff2b 	bl	fffed0a4 <psci_validate_mpidr>
    fffed3fc:	35000140 	cbnz	w0, fffed424 <psci_cpu_on+0x48>
    fffed400:	aa1503e2 	mov	x2, x21
    fffed404:	aa1403e1 	mov	x1, x20
    fffed408:	9100e3a0 	add	x0, x29, #0x38
    fffed40c:	97ffff2e 	bl	fffed0c4 <psci_validate_entry_point>
    fffed410:	350000c0 	cbnz	w0, fffed428 <psci_cpu_on+0x4c>
    fffed414:	9100e3a1 	add	x1, x29, #0x38
    fffed418:	aa1303e0 	mov	x0, x19
    fffed41c:	97fffc73 	bl	fffec5e8 <psci_cpu_on_start>
    fffed420:	14000002 	b	fffed428 <psci_cpu_on+0x4c>
    fffed424:	12800020 	mov	w0, #0xfffffffe            	// #-2
    fffed428:	a94153f3 	ldp	x19, x20, [sp,#16]
    fffed42c:	f94013f5 	ldr	x21, [sp,#32]
    fffed430:	a8c97bfd 	ldp	x29, x30, [sp],#144
    fffed434:	d65f03c0 	ret

00000000fffed438 <psci_cpu_suspend>:
    fffed438:	a9b67bfd 	stp	x29, x30, [sp,#-160]!
    fffed43c:	910003fd 	mov	x29, sp
    fffed440:	a90153f3 	stp	x19, x20, [sp,#16]
    fffed444:	910283b4 	add	x20, x29, #0xa0
    fffed448:	2a0003f3 	mov	w19, w0
    fffed44c:	a90363f7 	stp	x23, x24, [sp,#48]
    fffed450:	aa0103f7 	mov	x23, x1
    fffed454:	aa0203f8 	mov	x24, x2
    fffed458:	781a0e9f 	strh	wzr, [x20,#-96]!
    fffed45c:	a9025bf5 	stp	x21, x22, [sp,#32]
    fffed460:	aa1403e1 	mov	x1, x20
    fffed464:	97fffdba 	bl	fffecb4c <psci_validate_power_state>
    fffed468:	34000120 	cbz	w0, fffed48c <psci_cpu_suspend+0x54>
    fffed46c:	3100081f 	cmn	w0, #0x2
    fffed470:	54000061 	b.ne	fffed47c <psci_cpu_suspend+0x44>
    fffed474:	12800035 	mov	w21, #0xfffffffe            	// #-2
    fffed478:	14000037 	b	fffed554 <psci_cpu_suspend+0x11c>
    fffed47c:	b0000023 	adrp	x3, ffff2000 <__func__.2513+0x40>
    fffed480:	52800ac2 	mov	w2, #0x56                  	// #86
    fffed484:	91186463 	add	x3, x3, #0x619
    fffed488:	1400000a 	b	fffed4b0 <psci_cpu_suspend+0x78>
    fffed48c:	d35e7a73 	ubfx	x19, x19, #30, #1
    fffed490:	aa1403e0 	mov	x0, x20
    fffed494:	2a1303e1 	mov	w1, w19
    fffed498:	97fffe9e 	bl	fffecf10 <psci_validate_suspend_req>
    fffed49c:	2a0003f5 	mov	w21, w0
    fffed4a0:	34000120 	cbz	w0, fffed4c4 <psci_cpu_suspend+0x8c>
    fffed4a4:	b0000023 	adrp	x3, ffff2000 <__func__.2513+0x40>
    fffed4a8:	52800c22 	mov	w2, #0x61                  	// #97
    fffed4ac:	91107463 	add	x3, x3, #0x41d
    fffed4b0:	b0000021 	adrp	x1, ffff2000 <__func__.2513+0x40>
    fffed4b4:	b0000020 	adrp	x0, ffff2000 <__func__.2513+0x40>
    fffed4b8:	91102021 	add	x1, x1, #0x408
    fffed4bc:	91198000 	add	x0, x0, #0x660
    fffed4c0:	940003b6 	bl	fffee398 <__assert>
    fffed4c4:	aa1403e0 	mov	x0, x20
    fffed4c8:	97fffe89 	bl	fffeceec <psci_find_target_suspend_lvl>
    fffed4cc:	7100081f 	cmp	w0, #0x2
    fffed4d0:	2a0003f6 	mov	w22, w0
    fffed4d4:	540000a1 	b.ne	fffed4e8 <psci_cpu_suspend+0xb0>
    fffed4d8:	b0000020 	adrp	x0, ffff2000 <__func__.2513+0x40>
    fffed4dc:	9111ac00 	add	x0, x0, #0x46b
    fffed4e0:	940002ed 	bl	fffee094 <tf_printf>
    fffed4e4:	94000a94 	bl	fffeff34 <do_panic>
    fffed4e8:	2a000260 	orr	w0, w19, w0
    fffed4ec:	350001a0 	cbnz	w0, fffed520 <psci_cpu_suspend+0xe8>
    fffed4f0:	b0000040 	adrp	x0, ffff6000 <base_xlation_table>
    fffed4f4:	f941a001 	ldr	x1, [x0,#832]
    fffed4f8:	f9400020 	ldr	x0, [x1]
    fffed4fc:	b4fffbc0 	cbz	x0, fffed474 <psci_cpu_suspend+0x3c>
    fffed500:	394103a0 	ldrb	w0, [x29,#64]
    fffed504:	d53ed042 	mrs	x2, tpidr_el3
    fffed508:	39017440 	strb	w0, [x2,#93]
    fffed50c:	f9400021 	ldr	x1, [x1]
    fffed510:	d63f0020 	blr	x1
    fffed514:	d53ed040 	mrs	x0, tpidr_el3
    fffed518:	3901741f 	strb	wzr, [x0,#93]
    fffed51c:	1400000e 	b	fffed554 <psci_cpu_suspend+0x11c>
    fffed520:	350000f3 	cbnz	w19, fffed53c <psci_cpu_suspend+0x104>
    fffed524:	2a1303e3 	mov	w3, w19
    fffed528:	aa1403e2 	mov	x2, x20
    fffed52c:	2a1603e1 	mov	w1, w22
    fffed530:	910123a0 	add	x0, x29, #0x48
    fffed534:	97fffceb 	bl	fffec8e0 <psci_cpu_suspend_start>
    fffed538:	14000007 	b	fffed554 <psci_cpu_suspend+0x11c>
    fffed53c:	aa1803e2 	mov	x2, x24
    fffed540:	aa1703e1 	mov	x1, x23
    fffed544:	910123a0 	add	x0, x29, #0x48
    fffed548:	97fffedf 	bl	fffed0c4 <psci_validate_entry_point>
    fffed54c:	34fffec0 	cbz	w0, fffed524 <psci_cpu_suspend+0xec>
    fffed550:	2a0003f5 	mov	w21, w0
    fffed554:	2a1503e0 	mov	w0, w21
    fffed558:	a94153f3 	ldp	x19, x20, [sp,#16]
    fffed55c:	a9425bf5 	ldp	x21, x22, [sp,#32]
    fffed560:	a94363f7 	ldp	x23, x24, [sp,#48]
    fffed564:	a8ca7bfd 	ldp	x29, x30, [sp],#160
    fffed568:	d65f03c0 	ret

00000000fffed56c <psci_system_suspend>:
    fffed56c:	a9b87bfd 	stp	x29, x30, [sp,#-128]!
    fffed570:	910003fd 	mov	x29, sp
    fffed574:	a90153f3 	stp	x19, x20, [sp,#16]
    fffed578:	aa0003f3 	mov	x19, x0
    fffed57c:	aa0103f4 	mov	x20, x1
    fffed580:	97fffd96 	bl	fffecbd8 <psci_is_last_on_cpu>
    fffed584:	34000580 	cbz	w0, fffed634 <psci_system_suspend+0xc8>
    fffed588:	aa1303e1 	mov	x1, x19
    fffed58c:	aa1403e2 	mov	x2, x20
    fffed590:	9100a3a0 	add	x0, x29, #0x28
    fffed594:	97fffecc 	bl	fffed0c4 <psci_validate_entry_point>
    fffed598:	2a0003f3 	mov	w19, w0
    fffed59c:	350004e0 	cbnz	w0, fffed638 <psci_system_suspend+0xcc>
    fffed5a0:	910083a0 	add	x0, x29, #0x20
    fffed5a4:	97fffd7e 	bl	fffecb9c <psci_query_sys_suspend_pwrstate>
    fffed5a8:	910083a0 	add	x0, x29, #0x20
    fffed5ac:	97fffe50 	bl	fffeceec <psci_find_target_suspend_lvl>
    fffed5b0:	7100041f 	cmp	w0, #0x1
    fffed5b4:	2a0003f4 	mov	w20, w0
    fffed5b8:	540000a0 	b.eq	fffed5cc <psci_system_suspend+0x60>
    fffed5bc:	b0000023 	adrp	x3, ffff2000 <__func__.2513+0x40>
    fffed5c0:	528017a2 	mov	w2, #0xbd                  	// #189
    fffed5c4:	91129863 	add	x3, x3, #0x4a6
    fffed5c8:	14000009 	b	fffed5ec <psci_system_suspend+0x80>
    fffed5cc:	2a0003e1 	mov	w1, w0
    fffed5d0:	910083a0 	add	x0, x29, #0x20
    fffed5d4:	97fffe4f 	bl	fffecf10 <psci_validate_suspend_req>
    fffed5d8:	2a0003f3 	mov	w19, w0
    fffed5dc:	34000120 	cbz	w0, fffed600 <psci_system_suspend+0x94>
    fffed5e0:	b0000023 	adrp	x3, ffff2000 <__func__.2513+0x40>
    fffed5e4:	528017e2 	mov	w2, #0xbf                  	// #191
    fffed5e8:	91139063 	add	x3, x3, #0x4e4
    fffed5ec:	b0000021 	adrp	x1, ffff2000 <__func__.2513+0x40>
    fffed5f0:	b0000020 	adrp	x0, ffff2000 <__func__.2513+0x40>
    fffed5f4:	91102021 	add	x1, x1, #0x408
    fffed5f8:	9119e000 	add	x0, x0, #0x678
    fffed5fc:	94000367 	bl	fffee398 <__assert>
    fffed600:	394087a0 	ldrb	w0, [x29,#33]
    fffed604:	7100081f 	cmp	w0, #0x2
    fffed608:	540000a0 	b.eq	fffed61c <psci_system_suspend+0xb0>
    fffed60c:	b0000023 	adrp	x3, ffff2000 <__func__.2513+0x40>
    fffed610:	52801802 	mov	w2, #0xc0                  	// #192
    fffed614:	9114d063 	add	x3, x3, #0x534
    fffed618:	17fffff5 	b	fffed5ec <psci_system_suspend+0x80>
    fffed61c:	2a1403e3 	mov	w3, w20
    fffed620:	910083a2 	add	x2, x29, #0x20
    fffed624:	2a1403e1 	mov	w1, w20
    fffed628:	9100a3a0 	add	x0, x29, #0x28
    fffed62c:	97fffcad 	bl	fffec8e0 <psci_cpu_suspend_start>
    fffed630:	14000002 	b	fffed638 <psci_system_suspend+0xcc>
    fffed634:	12800053 	mov	w19, #0xfffffffd            	// #-3
    fffed638:	2a1303e0 	mov	w0, w19
    fffed63c:	a94153f3 	ldp	x19, x20, [sp,#16]
    fffed640:	a8c87bfd 	ldp	x29, x30, [sp],#128
    fffed644:	d65f03c0 	ret

00000000fffed648 <psci_cpu_off>:
    fffed648:	a9bf7bfd 	stp	x29, x30, [sp,#-16]!
    fffed64c:	52800020 	mov	w0, #0x1                   	// #1
    fffed650:	910003fd 	mov	x29, sp
    fffed654:	97fffb9c 	bl	fffec4c4 <psci_do_cpu_off>
    fffed658:	31000c1f 	cmn	w0, #0x3
    fffed65c:	54000120 	b.eq	fffed680 <psci_cpu_off+0x38>
    fffed660:	b0000023 	adrp	x3, ffff2000 <__func__.2513+0x40>
    fffed664:	b0000021 	adrp	x1, ffff2000 <__func__.2513+0x40>
    fffed668:	b0000020 	adrp	x0, ffff2000 <__func__.2513+0x40>
    fffed66c:	9115d863 	add	x3, x3, #0x576
    fffed670:	52801be2 	mov	w2, #0xdf                  	// #223
    fffed674:	91102021 	add	x1, x1, #0x408
    fffed678:	911a4000 	add	x0, x0, #0x690
    fffed67c:	94000347 	bl	fffee398 <__assert>
    fffed680:	a8c17bfd 	ldp	x29, x30, [sp],#16
    fffed684:	d65f03c0 	ret

00000000fffed688 <psci_affinity_info>:
    fffed688:	35000181 	cbnz	w1, fffed6b8 <psci_affinity_info+0x30>
    fffed68c:	a9bf7bfd 	stp	x29, x30, [sp,#-16]!
    fffed690:	910003fd 	mov	x29, sp
    fffed694:	97fff50f 	bl	fffeaad0 <plat_core_pos_by_mpidr>
    fffed698:	3100041f 	cmn	w0, #0x1
    fffed69c:	54000061 	b.ne	fffed6a8 <psci_affinity_info+0x20>
    fffed6a0:	12800020 	mov	w0, #0xfffffffe            	// #-2
    fffed6a4:	14000003 	b	fffed6b0 <psci_affinity_info+0x28>
    fffed6a8:	9400092d 	bl	fffefb5c <_cpu_data_by_index>
    fffed6ac:	b9405800 	ldr	w0, [x0,#88]
    fffed6b0:	a8c17bfd 	ldp	x29, x30, [sp],#16
    fffed6b4:	d65f03c0 	ret
    fffed6b8:	12800020 	mov	w0, #0xfffffffe            	// #-2
    fffed6bc:	d65f03c0 	ret

00000000fffed6c0 <psci_migrate>:
    fffed6c0:	a9bd7bfd 	stp	x29, x30, [sp,#-48]!
    fffed6c4:	910003fd 	mov	x29, sp
    fffed6c8:	f9000bf3 	str	x19, [sp,#16]
    fffed6cc:	aa0003f3 	mov	x19, x0
    fffed6d0:	9100a3a0 	add	x0, x29, #0x28
    fffed6d4:	97fffee6 	bl	fffed26c <psci_spd_migrate_info>
    fffed6d8:	340000a0 	cbz	w0, fffed6ec <psci_migrate+0x2c>
    fffed6dc:	7100041f 	cmp	w0, #0x1
    fffed6e0:	12800040 	mov	w0, #0xfffffffd            	// #-3
    fffed6e4:	5a9f0000 	csinv	w0, w0, wzr, eq
    fffed6e8:	14000023 	b	fffed774 <psci_migrate+0xb4>
    fffed6ec:	d53800a0 	mrs	x0, mpidr_el1
    fffed6f0:	f94017a1 	ldr	x1, [x29,#40]
    fffed6f4:	eb00003f 	cmp	x1, x0
    fffed6f8:	54000381 	b.ne	fffed768 <psci_migrate+0xa8>
    fffed6fc:	aa1303e0 	mov	x0, x19
    fffed700:	97fffe69 	bl	fffed0a4 <psci_validate_mpidr>
    fffed704:	35000360 	cbnz	w0, fffed770 <psci_migrate+0xb0>
    fffed708:	b0000040 	adrp	x0, ffff6000 <base_xlation_table>
    fffed70c:	f941a400 	ldr	x0, [x0,#840]
    fffed710:	b4000060 	cbz	x0, fffed71c <psci_migrate+0x5c>
    fffed714:	f9401402 	ldr	x2, [x0,#40]
    fffed718:	b50000a2 	cbnz	x2, fffed72c <psci_migrate+0x6c>
    fffed71c:	b0000023 	adrp	x3, ffff2000 <__func__.2513+0x40>
    fffed720:	52802162 	mov	w2, #0x10b                 	// #267
    fffed724:	91162863 	add	x3, x3, #0x58a
    fffed728:	1400000b 	b	fffed754 <psci_migrate+0x94>
    fffed72c:	d53800a0 	mrs	x0, mpidr_el1
    fffed730:	aa1303e1 	mov	x1, x19
    fffed734:	d63f0040 	blr	x2
    fffed738:	6b1f001f 	cmp	w0, wzr
    fffed73c:	3a461804 	ccmn	w0, #0x6, #0x4, ne
    fffed740:	1a9f07e1 	cset	w1, ne
    fffed744:	34000181 	cbz	w1, fffed774 <psci_migrate+0xb4>
    fffed748:	90000023 	adrp	x3, ffff1000 <__TEXT_END__>
    fffed74c:	528021c2 	mov	w2, #0x10e                 	// #270
    fffed750:	913be063 	add	x3, x3, #0xef8
    fffed754:	b0000021 	adrp	x1, ffff2000 <__func__.2513+0x40>
    fffed758:	b0000020 	adrp	x0, ffff2000 <__func__.2513+0x40>
    fffed75c:	91102021 	add	x1, x1, #0x408
    fffed760:	911a8000 	add	x0, x0, #0x6a0
    fffed764:	9400030d 	bl	fffee398 <__assert>
    fffed768:	128000c0 	mov	w0, #0xfffffff9            	// #-7
    fffed76c:	14000002 	b	fffed774 <psci_migrate+0xb4>
    fffed770:	12800020 	mov	w0, #0xfffffffe            	// #-2
    fffed774:	f9400bf3 	ldr	x19, [sp,#16]
    fffed778:	a8c37bfd 	ldp	x29, x30, [sp],#48
    fffed77c:	d65f03c0 	ret

00000000fffed780 <psci_migrate_info_type>:
    fffed780:	a9be7bfd 	stp	x29, x30, [sp,#-32]!
    fffed784:	910003fd 	mov	x29, sp
    fffed788:	910063a0 	add	x0, x29, #0x18
    fffed78c:	97fffeb8 	bl	fffed26c <psci_spd_migrate_info>
    fffed790:	a8c27bfd 	ldp	x29, x30, [sp],#32
    fffed794:	d65f03c0 	ret

00000000fffed798 <psci_migrate_info_up_cpu>:
    fffed798:	a9be7bfd 	stp	x29, x30, [sp,#-32]!
    fffed79c:	910003fd 	mov	x29, sp
    fffed7a0:	910063a0 	add	x0, x29, #0x18
    fffed7a4:	97fffeb2 	bl	fffed26c <psci_spd_migrate_info>
    fffed7a8:	7100041f 	cmp	w0, #0x1
    fffed7ac:	f9400fa1 	ldr	x1, [x29,#24]
    fffed7b0:	92800020 	mov	x0, #0xfffffffffffffffe    	// #-2
    fffed7b4:	a8c27bfd 	ldp	x29, x30, [sp],#32
    fffed7b8:	9a809020 	csel	x0, x1, x0, ls
    fffed7bc:	d65f03c0 	ret

00000000fffed7c0 <psci_node_hw_state>:
    fffed7c0:	a9be7bfd 	stp	x29, x30, [sp,#-32]!
    fffed7c4:	910003fd 	mov	x29, sp
    fffed7c8:	a90153f3 	stp	x19, x20, [sp,#16]
    fffed7cc:	2a0103f3 	mov	w19, w1
    fffed7d0:	aa0003f4 	mov	x20, x0
    fffed7d4:	97fffe34 	bl	fffed0a4 <psci_validate_mpidr>
    fffed7d8:	6b1f001f 	cmp	w0, wzr
    fffed7dc:	7a410a62 	ccmp	w19, #0x1, #0x2, eq
    fffed7e0:	54000328 	b.hi	fffed844 <psci_node_hw_state+0x84>
    fffed7e4:	b0000040 	adrp	x0, ffff6000 <base_xlation_table>
    fffed7e8:	f941a000 	ldr	x0, [x0,#832]
    fffed7ec:	f9403802 	ldr	x2, [x0,#112]
    fffed7f0:	b50000a2 	cbnz	x2, fffed804 <psci_node_hw_state+0x44>
    fffed7f4:	b0000023 	adrp	x3, ffff2000 <__func__.2513+0x40>
    fffed7f8:	52802782 	mov	w2, #0x13c                 	// #316
    fffed7fc:	9116c863 	add	x3, x3, #0x5b2
    fffed800:	1400000c 	b	fffed830 <psci_node_hw_state+0x70>
    fffed804:	2a1303e1 	mov	w1, w19
    fffed808:	aa1403e0 	mov	x0, x20
    fffed80c:	d63f0040 	blr	x2
    fffed810:	11000401 	add	w1, w0, #0x1
    fffed814:	71000c3f 	cmp	w1, #0x3
    fffed818:	54000189 	b.ls	fffed848 <psci_node_hw_state+0x88>
    fffed81c:	3100081f 	cmn	w0, #0x2
    fffed820:	54000120 	b.eq	fffed844 <psci_node_hw_state+0x84>
    fffed824:	b0000023 	adrp	x3, ffff2000 <__func__.2513+0x40>
    fffed828:	528027e2 	mov	w2, #0x13f                 	// #319
    fffed82c:	91175863 	add	x3, x3, #0x5d6
    fffed830:	b0000021 	adrp	x1, ffff2000 <__func__.2513+0x40>
    fffed834:	b0000020 	adrp	x0, ffff2000 <__func__.2513+0x40>
    fffed838:	91102021 	add	x1, x1, #0x408
    fffed83c:	910fc000 	add	x0, x0, #0x3f0
    fffed840:	940002d6 	bl	fffee398 <__assert>
    fffed844:	12800020 	mov	w0, #0xfffffffe            	// #-2
    fffed848:	a94153f3 	ldp	x19, x20, [sp,#16]
    fffed84c:	a8c27bfd 	ldp	x29, x30, [sp],#32
    fffed850:	d65f03c0 	ret

00000000fffed854 <psci_features>:
    fffed854:	b0000041 	adrp	x1, ffff6000 <base_xlation_table>
    fffed858:	b9435023 	ldr	w3, [x1,#848]
    fffed85c:	36f00080 	tbz	w0, #30, fffed86c <psci_features+0x18>
    fffed860:	528c1741 	mov	w1, #0x60ba                	// #24762
    fffed864:	72a00061 	movk	w1, #0x3, lsl #16
    fffed868:	0a010063 	and	w3, w3, w1
    fffed86c:	d3587402 	ubfx	x2, x0, #24, #6
    fffed870:	12800001 	mov	w1, #0xffffffff            	// #-1
    fffed874:	7100105f 	cmp	w2, #0x4
    fffed878:	54000201 	b.ne	fffed8b8 <psci_features+0x64>
    fffed87c:	d3505c02 	ubfx	x2, x0, #16, #8
    fffed880:	350001c2 	cbnz	w2, fffed8b8 <psci_features+0x64>
    fffed884:	531f7c02 	lsr	w2, w0, #31
    fffed888:	34000182 	cbz	w2, fffed8b8 <psci_features+0x64>
    fffed88c:	721b281f 	tst	w0, #0xffe0
    fffed890:	54000141 	b.ne	fffed8b8 <psci_features+0x64>
    fffed894:	1ac02042 	lsl	w2, w2, w0
    fffed898:	6a03005f 	tst	w2, w3
    fffed89c:	540000e0 	b.eq	fffed8b8 <psci_features+0x64>
    fffed8a0:	52800021 	mov	w1, #0x1                   	// #1
    fffed8a4:	12017800 	and	w0, w0, #0xbfffffff
    fffed8a8:	72b08001 	movk	w1, #0x8400, lsl #16
    fffed8ac:	6b01001f 	cmp	w0, w1
    fffed8b0:	52800041 	mov	w1, #0x2                   	// #2
    fffed8b4:	1a9f0021 	csel	w1, w1, wzr, eq
    fffed8b8:	2a0103e0 	mov	w0, w1
    fffed8bc:	d65f03c0 	ret

00000000fffed8c0 <psci_smc_handler>:
    fffed8c0:	a9bf7bfd 	stp	x29, x30, [sp,#-16]!
    fffed8c4:	910003fd 	mov	x29, sp
    fffed8c8:	360009e7 	tbz	w7, #0, fffeda04 <psci_smc_handler+0x144>
    fffed8cc:	aa0103e4 	mov	x4, x1
    fffed8d0:	aa0203e1 	mov	x1, x2
    fffed8d4:	52800022 	mov	w2, #0x1                   	// #1
    fffed8d8:	2a0003e5 	mov	w5, w0
    fffed8dc:	1ac02042 	lsl	w2, w2, w0
    fffed8e0:	b0000040 	adrp	x0, ffff6000 <base_xlation_table>
    fffed8e4:	b9435006 	ldr	w6, [x0,#848]
    fffed8e8:	b2407fe0 	mov	x0, #0xffffffff            	// #4294967295
    fffed8ec:	6a06005f 	tst	w2, w6
    fffed8f0:	54000900 	b.eq	fffeda10 <psci_smc_handler+0x150>
    fffed8f4:	aa0303e2 	mov	x2, x3
    fffed8f8:	2a0503e3 	mov	w3, w5
    fffed8fc:	aa0403e0 	mov	x0, x4
    fffed900:	37f00483 	tbnz	w3, #30, fffed990 <psci_smc_handler+0xd0>
    fffed904:	52af8005 	mov	w5, #0x7c000000            	// #2080374784
    fffed908:	92407c84 	and	x4, x4, #0xffffffff
    fffed90c:	0b050065 	add	w5, w3, w5
    fffed910:	92407c26 	and	x6, x1, #0xffffffff
    fffed914:	710038bf 	cmp	w5, #0xe
    fffed918:	92407c42 	and	x2, x2, #0xffffffff
    fffed91c:	540006c8 	b.hi	fffed9f4 <psci_smc_handler+0x134>
    fffed920:	b0000027 	adrp	x7, ffff2000 <__func__.2513+0x40>
    fffed924:	910f40e7 	add	x7, x7, #0x3d0
    fffed928:	386548e5 	ldrb	w5, [x7,w5,uxtw]
    fffed92c:	10000067 	adr	x7, fffed938 <psci_smc_handler+0x78>
    fffed930:	8b2588e5 	add	x5, x7, w5, sxtb #2
    fffed934:	d61f00a0 	br	x5
    fffed938:	97ffff44 	bl	fffed648 <psci_cpu_off>
    fffed93c:	1400002c 	b	fffed9ec <psci_smc_handler+0x12c>
    fffed940:	aa0603e1 	mov	x1, x6
    fffed944:	1400001d 	b	fffed9b8 <psci_smc_handler+0xf8>
    fffed948:	aa0603e1 	mov	x1, x6
    fffed94c:	aa0403e0 	mov	x0, x4
    fffed950:	1400001c 	b	fffed9c0 <psci_smc_handler+0x100>
    fffed954:	aa0403e0 	mov	x0, x4
    fffed958:	1400001c 	b	fffed9c8 <psci_smc_handler+0x108>
    fffed95c:	aa0403e0 	mov	x0, x4
    fffed960:	1400001c 	b	fffed9d0 <psci_smc_handler+0x110>
    fffed964:	97ffff87 	bl	fffed780 <psci_migrate_info_type>
    fffed968:	14000021 	b	fffed9ec <psci_smc_handler+0x12c>
    fffed96c:	aa0403e0 	mov	x0, x4
    fffed970:	1400001c 	b	fffed9e0 <psci_smc_handler+0x120>
    fffed974:	aa0603e1 	mov	x1, x6
    fffed978:	aa0403e0 	mov	x0, x4
    fffed97c:	1400001b 	b	fffed9e8 <psci_smc_handler+0x128>
    fffed980:	940000fe 	bl	fffedd78 <psci_system_off>
    fffed984:	94000117 	bl	fffedde0 <psci_system_reset>
    fffed988:	97ffffb3 	bl	fffed854 <psci_features>
    fffed98c:	14000018 	b	fffed9ec <psci_smc_handler+0x12c>
    fffed990:	12b88004 	mov	w4, #0x3bffffff            	// #1006632959
    fffed994:	0b0400a4 	add	w4, w5, w4
    fffed998:	7100349f 	cmp	w4, #0xd
    fffed99c:	540002c8 	b.hi	fffed9f4 <psci_smc_handler+0x134>
    fffed9a0:	b0000025 	adrp	x5, ffff2000 <__func__.2513+0x40>
    fffed9a4:	910f80a5 	add	x5, x5, #0x3e0
    fffed9a8:	386448a4 	ldrb	w4, [x5,w4,uxtw]
    fffed9ac:	10000065 	adr	x5, fffed9b8 <psci_smc_handler+0xf8>
    fffed9b0:	8b2488a4 	add	x4, x5, w4, sxtb #2
    fffed9b4:	d61f0080 	br	x4
    fffed9b8:	97fffea0 	bl	fffed438 <psci_cpu_suspend>
    fffed9bc:	1400000c 	b	fffed9ec <psci_smc_handler+0x12c>
    fffed9c0:	97fffe87 	bl	fffed3dc <psci_cpu_on>
    fffed9c4:	1400000a 	b	fffed9ec <psci_smc_handler+0x12c>
    fffed9c8:	97ffff30 	bl	fffed688 <psci_affinity_info>
    fffed9cc:	14000008 	b	fffed9ec <psci_smc_handler+0x12c>
    fffed9d0:	97ffff3c 	bl	fffed6c0 <psci_migrate>
    fffed9d4:	14000006 	b	fffed9ec <psci_smc_handler+0x12c>
    fffed9d8:	a8c17bfd 	ldp	x29, x30, [sp],#16
    fffed9dc:	17ffff6f 	b	fffed798 <psci_migrate_info_up_cpu>
    fffed9e0:	97ffff78 	bl	fffed7c0 <psci_node_hw_state>
    fffed9e4:	14000002 	b	fffed9ec <psci_smc_handler+0x12c>
    fffed9e8:	97fffee1 	bl	fffed56c <psci_system_suspend>
    fffed9ec:	93407c00 	sxtw	x0, w0
    fffed9f0:	14000008 	b	fffeda10 <psci_smc_handler+0x150>
    fffed9f4:	b0000020 	adrp	x0, ffff2000 <__func__.2513+0x40>
    fffed9f8:	2a0303e1 	mov	w1, w3
    fffed9fc:	9118d400 	add	x0, x0, #0x635
    fffeda00:	940001a5 	bl	fffee094 <tf_printf>
    fffeda04:	b2407fe0 	mov	x0, #0xffffffff            	// #4294967295
    fffeda08:	14000002 	b	fffeda10 <psci_smc_handler+0x150>
    fffeda0c:	d2a00020 	mov	x0, #0x10000               	// #65536
    fffeda10:	a8c17bfd 	ldp	x29, x30, [sp],#16
    fffeda14:	d65f03c0 	ret

00000000fffeda18 <psci_arch_setup>:
    fffeda18:	a9bf7bfd 	stp	x29, x30, [sp,#-16]!
    fffeda1c:	910003fd 	mov	x29, sp
    fffeda20:	94000707 	bl	fffef63c <plat_get_syscnt_freq2>
    fffeda24:	2a0003e0 	mov	w0, w0
    fffeda28:	d51be000 	msr	cntfrq_el0, x0
    fffeda2c:	a8c17bfd 	ldp	x29, x30, [sp],#16
    fffeda30:	1400086d 	b	fffefbe4 <init_cpu_ops>

00000000fffeda34 <psci_setup>:
    fffeda34:	a9b77bfd 	stp	x29, x30, [sp,#-144]!
    fffeda38:	910003fd 	mov	x29, sp
    fffeda3c:	a90153f3 	stp	x19, x20, [sp,#16]
    fffeda40:	a9025bf5 	stp	x21, x22, [sp,#32]
    fffeda44:	a90363f7 	stp	x23, x24, [sp,#48]
    fffeda48:	a9046bf9 	stp	x25, x26, [sp,#64]
    fffeda4c:	a90573fb 	stp	x27, x28, [sp,#80]
    fffeda50:	b4000120 	cbz	x0, fffeda74 <psci_setup+0x40>
    fffeda54:	aa0003f6 	mov	x22, x0
    fffeda58:	d28020c0 	mov	x0, #0x106                 	// #262
    fffeda5c:	f2a00200 	movk	x0, #0x10, lsl #16
    fffeda60:	f94002c1 	ldr	x1, [x22]
    fffeda64:	eb00003f 	cmp	x1, x0
    fffeda68:	54000061 	b.ne	fffeda74 <psci_setup+0x40>
    fffeda6c:	f94006c0 	ldr	x0, [x22,#8]
    fffeda70:	b50000a0 	cbnz	x0, fffeda84 <psci_setup+0x50>
    fffeda74:	b0000023 	adrp	x3, ffff2000 <__func__.2513+0x40>
    fffeda78:	52801aa2 	mov	w2, #0xd5                  	// #213
    fffeda7c:	911b0063 	add	x3, x3, #0x6c0
    fffeda80:	1400007e 	b	fffedc78 <psci_setup+0x244>
    fffeda84:	97ffffe5 	bl	fffeda18 <psci_arch_setup>
    fffeda88:	52800035 	mov	w21, #0x1                   	// #1
    fffeda8c:	b0000057 	adrp	x23, ffff6000 <base_xlation_table>
    fffeda90:	90000059 	adrp	x25, ffff5000 <__STACKS_START__+0xfc0>
    fffeda94:	97fff499 	bl	fffeacf8 <plat_get_power_domain_tree_desc>
    fffeda98:	52800014 	mov	w20, #0x0                   	// #0
    fffeda9c:	aa0003e5 	mov	x5, x0
    fffedaa0:	52800013 	mov	w19, #0x0                   	// #0
    fffedaa4:	2a1503fa 	mov	w26, w21
    fffedaa8:	910c02f7 	add	x23, x23, #0x300
    fffedaac:	911a4339 	add	x25, x25, #0x690
    fffedab0:	0b1402a4 	add	w4, w21, w20
    fffedab4:	52800018 	mov	w24, #0x0                   	// #0
    fffedab8:	52800015 	mov	w21, #0x0                   	// #0
    fffedabc:	6b04029f 	cmp	w20, w4
    fffedac0:	540007e0 	b.eq	fffedbbc <psci_setup+0x188>
    fffedac4:	7100169f 	cmp	w20, #0x5
    fffedac8:	54000121 	b.ne	fffedaec <psci_setup+0xb8>
    fffedacc:	b0000023 	adrp	x3, ffff2000 <__func__.2513+0x40>
    fffedad0:	52801402 	mov	w2, #0xa0                  	// #160
    fffedad4:	911be063 	add	x3, x3, #0x6f8
    fffedad8:	b0000021 	adrp	x1, ffff2000 <__func__.2513+0x40>
    fffedadc:	b0000020 	adrp	x0, ffff2000 <__func__.2513+0x40>
    fffedae0:	911b8821 	add	x1, x1, #0x6e2
    fffedae4:	911e4000 	add	x0, x0, #0x790
    fffedae8:	9400022c 	bl	fffee398 <__assert>
    fffedaec:	387448bb 	ldrb	w27, [x5,w20,uxtw]
    fffedaf0:	2a1803f3 	mov	w19, w24
    fffedaf4:	5100069c 	sub	w28, w20, #0x1
    fffedaf8:	0b180360 	add	w0, w27, w24
    fffedafc:	6b00027f 	cmp	w19, w0
    fffedb00:	54000562 	b.cs	fffedbac <psci_setup+0x178>
    fffedb04:	3400019a 	cbz	w26, fffedb34 <psci_setup+0x100>
    fffedb08:	f0000061 	adrp	x1, ffffc000 <__COHERENT_RAM_START__>
    fffedb0c:	d37c7e60 	ubfiz	x0, x19, #4, #32
    fffedb10:	9100c021 	add	x1, x1, #0x30
    fffedb14:	8b000020 	add	x0, x1, x0
    fffedb18:	52800021 	mov	w1, #0x1                   	// #1
    fffedb1c:	39003813 	strb	w19, [x0,#14]
    fffedb20:	39003401 	strb	w1, [x0,#13]
    fffedb24:	52800041 	mov	w1, #0x2                   	// #2
    fffedb28:	b900081c 	str	w28, [x0,#8]
    fffedb2c:	39003001 	strb	w1, [x0,#12]
    fffedb30:	1400001d 	b	fffedba4 <psci_setup+0x170>
    fffedb34:	2a1303e3 	mov	w3, w19
    fffedb38:	b9007ba4 	str	w4, [x29,#120]
    fffedb3c:	d37cec60 	lsl	x0, x3, #4
    fffedb40:	8b0002e1 	add	x1, x23, x0
    fffedb44:	a9068fa5 	stp	x5, x3, [x29,#104]
    fffedb48:	b900083c 	str	w28, [x1,#8]
    fffedb4c:	92800001 	mov	x1, #0xffffffffffffffff    	// #-1
    fffedb50:	f8206ae1 	str	x1, [x23,x0]
    fffedb54:	2a1303e0 	mov	w0, w19
    fffedb58:	94000801 	bl	fffefb5c <_cpu_data_by_index>
    fffedb5c:	aa0003e1 	mov	x1, x0
    fffedb60:	91016000 	add	x0, x0, #0x58
    fffedb64:	52800022 	mov	w2, #0x1                   	// #1
    fffedb68:	b9007fa2 	str	w2, [x29,#124]
    fffedb6c:	b9005822 	str	w2, [x1,#88]
    fffedb70:	52800041 	mov	w1, #0x2                   	// #2
    fffedb74:	39001001 	strb	w1, [x0,#4]
    fffedb78:	39001401 	strb	w1, [x0,#5]
    fffedb7c:	d2800101 	mov	x1, #0x8                   	// #8
    fffedb80:	940008fd 	bl	fffeff74 <flush_dcache_range>
    fffedb84:	f9403ba3 	ldr	x3, [x29,#112]
    fffedb88:	d2804201 	mov	x1, #0x210                 	// #528
    fffedb8c:	b9407fa2 	ldr	w2, [x29,#124]
    fffedb90:	2a1303e0 	mov	w0, w19
    fffedb94:	9b016461 	madd	x1, x3, x1, x25
    fffedb98:	97fff8d5 	bl	fffebeec <cm_set_context_by_index>
    fffedb9c:	b9407ba4 	ldr	w4, [x29,#120]
    fffedba0:	f94037a5 	ldr	x5, [x29,#104]
    fffedba4:	11000673 	add	w19, w19, #0x1
    fffedba8:	17ffffd4 	b	fffedaf8 <psci_setup+0xc4>
    fffedbac:	0b1b02b5 	add	w21, w21, w27
    fffedbb0:	11000694 	add	w20, w20, #0x1
    fffedbb4:	2a1303f8 	mov	w24, w19
    fffedbb8:	17ffffc1 	b	fffedabc <psci_setup+0x88>
    fffedbbc:	3400069a 	cbz	w26, fffedc8c <psci_setup+0x258>
    fffedbc0:	5280001a 	mov	w26, #0x0                   	// #0
    fffedbc4:	17ffffbb 	b	fffedab0 <psci_setup+0x7c>
    fffedbc8:	f0000074 	adrp	x20, ffffc000 <__COHERENT_RAM_START__>
    fffedbcc:	52800015 	mov	w21, #0x0                   	// #0
    fffedbd0:	52800013 	mov	w19, #0x0                   	// #0
    fffedbd4:	9100c294 	add	x20, x20, #0x30
    fffedbd8:	2a1303e0 	mov	w0, w19
    fffedbdc:	910223a2 	add	x2, x29, #0x88
    fffedbe0:	52800021 	mov	w1, #0x1                   	// #1
    fffedbe4:	97fffc45 	bl	fffeccf8 <psci_get_parent_pwr_domain_nodes>
    fffedbe8:	b9408ba0 	ldr	w0, [x29,#136]
    fffedbec:	6b0002bf 	cmp	w21, w0
    fffedbf0:	54000060 	b.eq	fffedbfc <psci_setup+0x1c8>
    fffedbf4:	d37c7c01 	ubfiz	x1, x0, #4, #32
    fffedbf8:	b8216a93 	str	w19, [x20,x1]
    fffedbfc:	d37c7c01 	ubfiz	x1, x0, #4, #32
    fffedc00:	11000673 	add	w19, w19, #0x1
    fffedc04:	8b010281 	add	x1, x20, x1
    fffedc08:	7100127f 	cmp	w19, #0x4
    fffedc0c:	2a0003f5 	mov	w21, w0
    fffedc10:	b9400422 	ldr	w2, [x1,#4]
    fffedc14:	11000442 	add	w2, w2, #0x1
    fffedc18:	b9000422 	str	w2, [x1,#4]
    fffedc1c:	54fffde1 	b.ne	fffedbd8 <psci_setup+0x1a4>
    fffedc20:	94000961 	bl	ffff01a4 <plat_my_core_pos>
    fffedc24:	d53800a2 	mrs	x2, mpidr_el1
    fffedc28:	b2405fe1 	mov	x1, #0xffffff              	// #16777215
    fffedc2c:	d37c7c00 	ubfiz	x0, x0, #4, #32
    fffedc30:	f2c01fe1 	movk	x1, #0xff, lsl #32
    fffedc34:	b0000053 	adrp	x19, ffff6000 <base_xlation_table>
    fffedc38:	8a010042 	and	x2, x2, x1
    fffedc3c:	b0000041 	adrp	x1, ffff6000 <base_xlation_table>
    fffedc40:	910c0021 	add	x1, x1, #0x300
    fffedc44:	910d0274 	add	x20, x19, #0x340
    fffedc48:	f8206822 	str	x2, [x1,x0]
    fffedc4c:	97fffc04 	bl	fffecc5c <psci_init_req_local_pwr_states>
    fffedc50:	52800020 	mov	w0, #0x1                   	// #1
    fffedc54:	97fffc3b 	bl	fffecd40 <psci_set_pwr_domains_to_run>
    fffedc58:	f94006c0 	ldr	x0, [x22,#8]
    fffedc5c:	aa1403e1 	mov	x1, x20
    fffedc60:	97fff38a 	bl	fffeaa88 <plat_setup_psci_ops>
    fffedc64:	f941a260 	ldr	x0, [x19,#832]
    fffedc68:	b50001e0 	cbnz	x0, fffedca4 <psci_setup+0x270>
    fffedc6c:	b0000023 	adrp	x3, ffff2000 <__func__.2513+0x40>
    fffedc70:	52801e02 	mov	w2, #0xf0                  	// #240
    fffedc74:	911d0c63 	add	x3, x3, #0x743
    fffedc78:	b0000021 	adrp	x1, ffff2000 <__func__.2513+0x40>
    fffedc7c:	b0000020 	adrp	x0, ffff2000 <__func__.2513+0x40>
    fffedc80:	911b8821 	add	x1, x1, #0x6e2
    fffedc84:	911ac000 	add	x0, x0, #0x6b0
    fffedc88:	17ffff98 	b	fffedae8 <psci_setup+0xb4>
    fffedc8c:	7100127f 	cmp	w19, #0x4
    fffedc90:	54fff9c0 	b.eq	fffedbc8 <psci_setup+0x194>
    fffedc94:	b0000023 	adrp	x3, ffff2000 <__func__.2513+0x40>
    fffedc98:	528016e2 	mov	w2, #0xb7                  	// #183
    fffedc9c:	911ca863 	add	x3, x3, #0x72a
    fffedca0:	17ffff8e 	b	fffedad8 <psci_setup+0xa4>
    fffedca4:	d2800101 	mov	x1, #0x8                   	// #8
    fffedca8:	aa1403e0 	mov	x0, x20
    fffedcac:	940008b2 	bl	fffeff74 <flush_dcache_range>
    fffedcb0:	b0000040 	adrp	x0, ffff6000 <base_xlation_table>
    fffedcb4:	52808221 	mov	w1, #0x411                 	// #1041
    fffedcb8:	b9035001 	str	w1, [x0,#848]
    fffedcbc:	f941a261 	ldr	x1, [x19,#832]
    fffedcc0:	f9400822 	ldr	x2, [x1,#16]
    fffedcc4:	b4000062 	cbz	x2, fffedcd0 <psci_setup+0x29c>
    fffedcc8:	528082a2 	mov	w2, #0x415                 	// #1045
    fffedccc:	b9035002 	str	w2, [x0,#848]
    fffedcd0:	f9400422 	ldr	x2, [x1,#8]
    fffedcd4:	b40000c2 	cbz	x2, fffedcec <psci_setup+0x2b8>
    fffedcd8:	f9401022 	ldr	x2, [x1,#32]
    fffedcdc:	b4000082 	cbz	x2, fffedcec <psci_setup+0x2b8>
    fffedce0:	b9435002 	ldr	w2, [x0,#848]
    fffedce4:	321d0042 	orr	w2, w2, #0x8
    fffedce8:	b9035002 	str	w2, [x0,#848]
    fffedcec:	f9400c22 	ldr	x2, [x1,#24]
    fffedcf0:	b4000162 	cbz	x2, fffedd1c <psci_setup+0x2e8>
    fffedcf4:	f9401422 	ldr	x2, [x1,#40]
    fffedcf8:	b4000122 	cbz	x2, fffedd1c <psci_setup+0x2e8>
    fffedcfc:	b9435003 	ldr	w3, [x0,#848]
    fffedd00:	321f0062 	orr	w2, w3, #0x2
    fffedd04:	b9035002 	str	w2, [x0,#848]
    fffedd08:	f9402c22 	ldr	x2, [x1,#88]
    fffedd0c:	b4000082 	cbz	x2, fffedd1c <psci_setup+0x2e8>
    fffedd10:	52880042 	mov	w2, #0x4002                	// #16386
    fffedd14:	2a020062 	orr	w2, w3, w2
    fffedd18:	b9035002 	str	w2, [x0,#848]
    fffedd1c:	f9401c22 	ldr	x2, [x1,#56]
    fffedd20:	b4000082 	cbz	x2, fffedd30 <psci_setup+0x2fc>
    fffedd24:	b9435002 	ldr	w2, [x0,#848]
    fffedd28:	32180042 	orr	w2, w2, #0x100
    fffedd2c:	b9035002 	str	w2, [x0,#848]
    fffedd30:	f9402022 	ldr	x2, [x1,#64]
    fffedd34:	b4000082 	cbz	x2, fffedd44 <psci_setup+0x310>
    fffedd38:	b9435002 	ldr	w2, [x0,#848]
    fffedd3c:	32170042 	orr	w2, w2, #0x200
    fffedd40:	b9035002 	str	w2, [x0,#848]
    fffedd44:	f9403821 	ldr	x1, [x1,#112]
    fffedd48:	b4000081 	cbz	x1, fffedd58 <psci_setup+0x324>
    fffedd4c:	b9435001 	ldr	w1, [x0,#848]
    fffedd50:	32130021 	orr	w1, w1, #0x2000
    fffedd54:	b9035001 	str	w1, [x0,#848]
    fffedd58:	a94153f3 	ldp	x19, x20, [sp,#16]
    fffedd5c:	a9425bf5 	ldp	x21, x22, [sp,#32]
    fffedd60:	a94363f7 	ldp	x23, x24, [sp,#48]
    fffedd64:	a9446bf9 	ldp	x25, x26, [sp,#64]
    fffedd68:	a94573fb 	ldp	x27, x28, [sp,#80]
    fffedd6c:	52800000 	mov	w0, #0x0                   	// #0
    fffedd70:	a8c97bfd 	ldp	x29, x30, [sp],#144
    fffedd74:	d65f03c0 	ret

00000000fffedd78 <psci_system_off>:
    fffedd78:	a9be7bfd 	stp	x29, x30, [sp,#-32]!
    fffedd7c:	910003fd 	mov	x29, sp
    fffedd80:	f9000bf3 	str	x19, [sp,#16]
    fffedd84:	97fffd51 	bl	fffed2c8 <psci_print_power_domain_map>
    fffedd88:	b0000040 	adrp	x0, ffff6000 <base_xlation_table>
    fffedd8c:	f941a001 	ldr	x1, [x0,#832]
    fffedd90:	f9401c21 	ldr	x1, [x1,#56]
    fffedd94:	b5000121 	cbnz	x1, fffeddb8 <psci_system_off+0x40>
    fffedd98:	b0000023 	adrp	x3, ffff2000 <__func__.2513+0x40>
    fffedd9c:	b0000021 	adrp	x1, ffff2000 <__func__.2513+0x40>
    fffedda0:	b0000020 	adrp	x0, ffff2000 <__func__.2513+0x40>
    fffedda4:	911ec063 	add	x3, x3, #0x7b0
    fffedda8:	52800542 	mov	w2, #0x2a                  	// #42
    fffeddac:	911f3421 	add	x1, x1, #0x7cd
    fffeddb0:	91202000 	add	x0, x0, #0x808
    fffeddb4:	94000179 	bl	fffee398 <__assert>
    fffeddb8:	aa0003f3 	mov	x19, x0
    fffeddbc:	b0000040 	adrp	x0, ffff6000 <base_xlation_table>
    fffeddc0:	f941a400 	ldr	x0, [x0,#840]
    fffeddc4:	b4000080 	cbz	x0, fffeddd4 <psci_system_off+0x5c>
    fffeddc8:	f9401c00 	ldr	x0, [x0,#56]
    fffeddcc:	b4000040 	cbz	x0, fffeddd4 <psci_system_off+0x5c>
    fffeddd0:	d63f0000 	blr	x0
    fffeddd4:	f941a260 	ldr	x0, [x19,#832]
    fffeddd8:	f9401c00 	ldr	x0, [x0,#56]
    fffedddc:	d63f0000 	blr	x0

00000000fffedde0 <psci_system_reset>:
    fffedde0:	a9be7bfd 	stp	x29, x30, [sp,#-32]!
    fffedde4:	910003fd 	mov	x29, sp
    fffedde8:	f9000bf3 	str	x19, [sp,#16]
    fffeddec:	97fffd37 	bl	fffed2c8 <psci_print_power_domain_map>
    fffeddf0:	b0000040 	adrp	x0, ffff6000 <base_xlation_table>
    fffeddf4:	f941a001 	ldr	x1, [x0,#832]
    fffeddf8:	f9402021 	ldr	x1, [x1,#64]
    fffeddfc:	b5000121 	cbnz	x1, fffede20 <psci_system_reset+0x40>
    fffede00:	b0000023 	adrp	x3, ffff2000 <__func__.2513+0x40>
    fffede04:	b0000021 	adrp	x1, ffff2000 <__func__.2513+0x40>
    fffede08:	b0000020 	adrp	x0, ffff2000 <__func__.2513+0x40>
    fffede0c:	911fa063 	add	x3, x3, #0x7e8
    fffede10:	52800762 	mov	w2, #0x3b                  	// #59
    fffede14:	911f3421 	add	x1, x1, #0x7cd
    fffede18:	91206000 	add	x0, x0, #0x818
    fffede1c:	9400015f 	bl	fffee398 <__assert>
    fffede20:	aa0003f3 	mov	x19, x0
    fffede24:	b0000040 	adrp	x0, ffff6000 <base_xlation_table>
    fffede28:	f941a400 	ldr	x0, [x0,#840]
    fffede2c:	b4000080 	cbz	x0, fffede3c <psci_system_reset+0x5c>
    fffede30:	f9402000 	ldr	x0, [x0,#64]
    fffede34:	b4000040 	cbz	x0, fffede3c <psci_system_reset+0x5c>
    fffede38:	d63f0000 	blr	x0
    fffede3c:	f941a260 	ldr	x0, [x19,#832]
    fffede40:	f9402000 	ldr	x0, [x0,#64]
    fffede44:	d63f0000 	blr	x0

00000000fffede48 <bakery_lock_get>:
    fffede48:	a9be7bfd 	stp	x29, x30, [sp,#-32]!
    fffede4c:	910003fd 	mov	x29, sp
    fffede50:	f9000bf3 	str	x19, [sp,#16]
    fffede54:	aa0003f3 	mov	x19, x0
    fffede58:	940008d3 	bl	ffff01a4 <plat_my_core_pos>
    fffede5c:	b5000093 	cbnz	x19, fffede6c <bakery_lock_get+0x24>
    fffede60:	b0000023 	adrp	x3, ffff2000 <__func__.2513+0x40>
    fffede64:	91216063 	add	x3, x3, #0x858
    fffede68:	14000005 	b	fffede7c <bakery_lock_get+0x34>
    fffede6c:	71000c1f 	cmp	w0, #0x3
    fffede70:	54000129 	b.ls	fffede94 <bakery_lock_get+0x4c>
    fffede74:	b0000023 	adrp	x3, ffff2000 <__func__.2513+0x40>
    fffede78:	91221c63 	add	x3, x3, #0x887
    fffede7c:	b0000021 	adrp	x1, ffff2000 <__func__.2513+0x40>
    fffede80:	b0000020 	adrp	x0, ffff2000 <__func__.2513+0x40>
    fffede84:	52800f62 	mov	w2, #0x7b                  	// #123
    fffede88:	91217c21 	add	x1, x1, #0x85f
    fffede8c:	9120c000 	add	x0, x0, #0x830
    fffede90:	94000142 	bl	fffee398 <__assert>
    fffede94:	d37f7c04 	ubfiz	x4, x0, #1, #32
    fffede98:	78646a61 	ldrh	w1, [x19,x4]
    fffede9c:	d3413c21 	ubfx	x1, x1, #1, #15
    fffedea0:	34000121 	cbz	w1, fffedec4 <bakery_lock_get+0x7c>
    fffedea4:	b0000023 	adrp	x3, ffff2000 <__func__.2513+0x40>
    fffedea8:	b0000021 	adrp	x1, ffff2000 <__func__.2513+0x40>
    fffedeac:	b0000020 	adrp	x0, ffff2000 <__func__.2513+0x40>
    fffedeb0:	91228463 	add	x3, x3, #0x8a1
    fffedeb4:	52800922 	mov	w2, #0x49                  	// #73
    fffedeb8:	91217c21 	add	x1, x1, #0x85f
    fffedebc:	91234000 	add	x0, x0, #0x8d0
    fffedec0:	17fffff4 	b	fffede90 <bakery_lock_get+0x48>
    fffedec4:	52800021 	mov	w1, #0x1                   	// #1
    fffedec8:	52800002 	mov	w2, #0x0                   	// #0
    fffedecc:	78246a61 	strh	w1, [x19,x4]
    fffeded0:	52800001 	mov	w1, #0x0                   	// #0
    fffeded4:	2a0203e3 	mov	w3, w2
    fffeded8:	11000442 	add	w2, w2, #0x1
    fffededc:	78637a63 	ldrh	w3, [x19,x3,lsl #1]
    fffedee0:	d3413c63 	ubfx	x3, x3, #1, #15
    fffedee4:	6b03003f 	cmp	w1, w3
    fffedee8:	1a832021 	csel	w1, w1, w3, cs
    fffedeec:	7100105f 	cmp	w2, #0x4
    fffedef0:	54ffff21 	b.ne	fffeded4 <bakery_lock_get+0x8c>
    fffedef4:	11000421 	add	w1, w1, #0x1
    fffedef8:	52800003 	mov	w3, #0x0                   	// #0
    fffedefc:	531f3822 	ubfiz	w2, w1, #1, #15
    fffedf00:	78246a62 	strh	w2, [x19,x4]
    fffedf04:	2a012001 	orr	w1, w0, w1, lsl #8
    fffedf08:	6b03001f 	cmp	w0, w3
    fffedf0c:	54000200 	b.eq	fffedf4c <bakery_lock_get+0x104>
    fffedf10:	d37f7c64 	ubfiz	x4, x3, #1, #32
    fffedf14:	78646a62 	ldrh	w2, [x19,x4]
    fffedf18:	8b040265 	add	x5, x19, x4
    fffedf1c:	53003c42 	uxth	w2, w2
    fffedf20:	3707ffa2 	tbnz	w2, #0, fffedf14 <bakery_lock_get+0xcc>
    fffedf24:	53017c42 	lsr	w2, w2, #1
    fffedf28:	34000122 	cbz	w2, fffedf4c <bakery_lock_get+0x104>
    fffedf2c:	2a022064 	orr	w4, w3, w2, lsl #8
    fffedf30:	6b04003f 	cmp	w1, w4
    fffedf34:	540000c9 	b.ls	fffedf4c <bakery_lock_get+0x104>
    fffedf38:	d503205f 	wfe
    fffedf3c:	794000a4 	ldrh	w4, [x5]
    fffedf40:	d3413c84 	ubfx	x4, x4, #1, #15
    fffedf44:	6b04005f 	cmp	w2, w4
    fffedf48:	54ffff80 	b.eq	fffedf38 <bakery_lock_get+0xf0>
    fffedf4c:	11000463 	add	w3, w3, #0x1
    fffedf50:	7100107f 	cmp	w3, #0x4
    fffedf54:	54fffda1 	b.ne	fffedf08 <bakery_lock_get+0xc0>
    fffedf58:	f9400bf3 	ldr	x19, [sp,#16]
    fffedf5c:	a8c27bfd 	ldp	x29, x30, [sp],#32
    fffedf60:	d65f03c0 	ret

00000000fffedf64 <bakery_lock_release>:
    fffedf64:	a9be7bfd 	stp	x29, x30, [sp,#-32]!
    fffedf68:	910003fd 	mov	x29, sp
    fffedf6c:	f9000bf3 	str	x19, [sp,#16]
    fffedf70:	aa0003f3 	mov	x19, x0
    fffedf74:	9400088c 	bl	ffff01a4 <plat_my_core_pos>
    fffedf78:	b5000093 	cbnz	x19, fffedf88 <bakery_lock_release+0x24>
    fffedf7c:	b0000023 	adrp	x3, ffff2000 <__func__.2513+0x40>
    fffedf80:	91216063 	add	x3, x3, #0x858
    fffedf84:	14000005 	b	fffedf98 <bakery_lock_release+0x34>
    fffedf88:	71000c1f 	cmp	w0, #0x3
    fffedf8c:	54000129 	b.ls	fffedfb0 <bakery_lock_release+0x4c>
    fffedf90:	b0000023 	adrp	x3, ffff2000 <__func__.2513+0x40>
    fffedf94:	91221c63 	add	x3, x3, #0x887
    fffedf98:	52801522 	mov	w2, #0xa9                  	// #169
    fffedf9c:	b0000021 	adrp	x1, ffff2000 <__func__.2513+0x40>
    fffedfa0:	b0000020 	adrp	x0, ffff2000 <__func__.2513+0x40>
    fffedfa4:	91217c21 	add	x1, x1, #0x85f
    fffedfa8:	91210000 	add	x0, x0, #0x840
    fffedfac:	940000fb 	bl	fffee398 <__assert>
    fffedfb0:	d37f7c00 	ubfiz	x0, x0, #1, #32
    fffedfb4:	78606a61 	ldrh	w1, [x19,x0]
    fffedfb8:	d3413c21 	ubfx	x1, x1, #1, #15
    fffedfbc:	350000a1 	cbnz	w1, fffedfd0 <bakery_lock_release+0x6c>
    fffedfc0:	b0000023 	adrp	x3, ffff2000 <__func__.2513+0x40>
    fffedfc4:	52801542 	mov	w2, #0xaa                  	// #170
    fffedfc8:	91228863 	add	x3, x3, #0x8a2
    fffedfcc:	17fffff4 	b	fffedf9c <bakery_lock_release+0x38>
    fffedfd0:	78206a7f 	strh	wzr, [x19,x0]
    fffedfd4:	d5033f9f 	dsb	sy
    fffedfd8:	d503209f 	sev
    fffedfdc:	f9400bf3 	ldr	x19, [sp,#16]
    fffedfe0:	a8c27bfd 	ldp	x29, x30, [sp],#32
    fffedfe4:	d65f03c0 	ret

00000000fffedfe8 <print_entry_point_info>:
    fffedfe8:	a9be7bfd 	stp	x29, x30, [sp,#-32]!
    fffedfec:	910003fd 	mov	x29, sp
    fffedff0:	f9000bf3 	str	x19, [sp,#16]
    fffedff4:	aa0003f3 	mov	x19, x0
    fffedff8:	b0000020 	adrp	x0, ffff2000 <__func__.2513+0x40>
    fffedffc:	91322000 	add	x0, x0, #0xc88
    fffee000:	f9400661 	ldr	x1, [x19,#8]
    fffee004:	94000024 	bl	fffee094 <tf_printf>
    fffee008:	b9401261 	ldr	w1, [x19,#16]
    fffee00c:	90000020 	adrp	x0, ffff2000 <__func__.2513+0x40>
    fffee010:	f9400bf3 	ldr	x19, [sp,#16]
    fffee014:	9132ac00 	add	x0, x0, #0xcab
    fffee018:	a8c27bfd 	ldp	x29, x30, [sp],#32
    fffee01c:	1400001e 	b	fffee094 <tf_printf>

00000000fffee020 <unsigned_num_print>:
    fffee020:	a9bc7bfd 	stp	x29, x30, [sp,#-64]!
    fffee024:	d2800003 	mov	x3, #0x0                   	// #0
    fffee028:	910003fd 	mov	x29, sp
    fffee02c:	f9000bf3 	str	x19, [sp,#16]
    fffee030:	2a0103e2 	mov	w2, w1
    fffee034:	11000473 	add	w19, w3, #0x1
    fffee038:	9ac20804 	udiv	x4, x0, x2
    fffee03c:	9b028080 	msub	x0, x4, x2, x0
    fffee040:	9100a3a2 	add	x2, x29, #0x28
    fffee044:	7100241f 	cmp	w0, #0x9
    fffee048:	5400006c 	b.gt	fffee054 <unsigned_num_print+0x34>
    fffee04c:	1100c000 	add	w0, w0, #0x30
    fffee050:	14000002 	b	fffee058 <unsigned_num_print+0x38>
    fffee054:	11015c00 	add	w0, w0, #0x57
    fffee058:	38236840 	strb	w0, [x2,x3]
    fffee05c:	aa0403e0 	mov	x0, x4
    fffee060:	91000463 	add	x3, x3, #0x1
    fffee064:	b5fffe64 	cbnz	x4, fffee030 <unsigned_num_print+0x10>
    fffee068:	51000673 	sub	w19, w19, #0x1
    fffee06c:	3100067f 	cmn	w19, #0x1
    fffee070:	540000c0 	b.eq	fffee088 <unsigned_num_print+0x68>
    fffee074:	d13f03a0 	sub	x0, x29, #0xfc0
    fffee078:	8b33c000 	add	x0, x0, w19, sxtw
    fffee07c:	397fa000 	ldrb	w0, [x0,#4072]
    fffee080:	940000ee 	bl	fffee438 <putchar>
    fffee084:	17fffff9 	b	fffee068 <unsigned_num_print+0x48>
    fffee088:	f9400bf3 	ldr	x19, [sp,#16]
    fffee08c:	a8c47bfd 	ldp	x29, x30, [sp],#64
    fffee090:	d65f03c0 	ret

00000000fffee094 <tf_printf>:
    fffee094:	a9b77bfd 	stp	x29, x30, [sp,#-144]!
    fffee098:	910003fd 	mov	x29, sp
    fffee09c:	a90153f3 	stp	x19, x20, [sp,#16]
    fffee0a0:	aa0003f3 	mov	x19, x0
    fffee0a4:	910243a0 	add	x0, x29, #0x90
