; ModuleID = '/home/aimee/root_of_trust/experiments/secure_filesystem/secure_filesystem_hls/solution1/.autopilot/db/a.o.bc'
target datalayout = "e-p:64:64:64-i1:8:8-i8:8:8-i16:16:16-i32:32:32-i64:64:64-f32:32:32-f64:64:64-v64:64:64-v128:128:128-a0:0:64-s0:64:64-f80:128:128-n8:16:32:64-S128"
target triple = "x86_64-unknown-linux-gnu"

%"class.std::ios_base::Init" = type {}
%"class.std::locale::id" = type { i64 }
%"class.std::basic_istream" = type { i32 (...)**, i64, %"class.std::basic_ios" }
%"class.std::basic_ios" = type { %"class.std::ios_base", %"class.std::basic_ostream"*, i8, i1, %"class.std::basic_streambuf"*, %"class.std::ctype"*, %"class.std::num_put"*, %"class.std::num_get"* }
%"class.std::ios_base" = type { i32 (...)**, i64, i64, i17, i17, i17, %"struct.std::ios_base::_Callback_list"*, %"struct.std::ios_base::_Words", [8 x %"struct.std::ios_base::_Words"], i32, %"struct.std::ios_base::_Words"*, %"class.std::locale" }
%"struct.std::ios_base::_Callback_list" = type { %"struct.std::ios_base::_Callback_list"*, void (i2, %"class.std::ios_base"*, i32)*, i32, i32 }
%"struct.std::ios_base::_Words" = type { i8*, i64 }
%"class.std::locale" = type { %"class.std::locale::_Impl"* }
%"class.std::locale::_Impl" = type { i32, %"class.std::locale::facet"**, i64, %"class.std::locale::facet"**, i8** }
%"class.std::locale::facet" = type { i32 (...)**, i32 }
%"class.std::basic_ostream" = type { i32 (...)**, %"class.std::basic_ios" }
%"class.std::basic_streambuf" = type { i32 (...)**, i8*, i8*, i8*, i8*, i8*, i8*, %"class.std::locale" }
%"class.std::ctype" = type { %"class.std::locale::facet", %struct.__locale_struct*, i1, i32*, i32*, i16*, i8, [256 x i8], [256 x i8], i8 }
%struct.__locale_struct = type { [13 x %"class.std::ios_base::Init"*], i16*, i32*, i32*, [13 x i8*] }
%"class.std::num_put" = type { %"class.std::locale::facet" }
%"class.std::num_get" = type { %"class.std::locale::facet" }
%"class.std::basic_istream.4" = type { i32 (...)**, i64, %"class.std::basic_ios.6" }
%"class.std::basic_ios.6" = type { %"class.std::ios_base", %"class.std::basic_ostream.7"*, i32, i1, %"class.std::basic_streambuf.8"*, %"class.std::ctype.9"*, %"class.std::num_put.10"*, %"class.std::num_get.11"* }
%"class.std::basic_ostream.7" = type { i32 (...)**, %"class.std::basic_ios.6" }
%"class.std::basic_streambuf.8" = type { i32 (...)**, i32*, i32*, i32*, i32*, i32*, i32*, %"class.std::locale" }
%"class.std::ctype.9" = type { %"class.std::__ctype_abstract_base", %struct.__locale_struct*, i1, [128 x i8], [256 x i32], [16 x i16], [16 x i64] }
%"class.std::__ctype_abstract_base" = type { %"class.std::locale::facet" }
%"class.std::num_put.10" = type { %"class.std::locale::facet" }
%"class.std::num_get.11" = type { %"class.std::locale::facet" }
%class.ssdm_global_array_aespp0cppaplinecpp = type {}
%struct.ap_uint = type { %struct.ap_int_base }
%struct.ap_int_base = type { %struct.ssdm_int }
%struct.ssdm_int = type { i128 }
%struct.ap_int_base.0 = type { %struct.ssdm_int.1 }
%struct.ssdm_int.1 = type { i131 }
%struct.ap_int_base.2 = type { %struct.ssdm_int.3 }
%struct.ssdm_int.3 = type { i130 }
%struct.ap_int_base.13 = type { %struct.ssdm_int.14 }
%struct.ssdm_int.14 = type { i32 }
%struct.ap_range_ref = type { %struct.ap_int_base*, i32, i32 }

@_ZStL8__ioinit = internal global %"class.std::ios_base::Init" zeroinitializer, align 1 ; [#uses=2 type=%"class.std::ios_base::Init"*]
@.str = private unnamed_addr constant [7 x i8] c"ap_vld\00", align 1 ; [#uses=1 type=[7 x i8]*]
@.str1 = private unnamed_addr constant [1 x i8] zeroinitializer, align 1 ; [#uses=1 type=[1 x i8]*]
@.str2 = private unnamed_addr constant [10 x i8] c"s_axilite\00", align 1 ; [#uses=1 type=[10 x i8]*]
@.str3 = private unnamed_addr constant [8 x i8] c"ap_none\00", align 1 ; [#uses=1 type=[8 x i8]*]
@.str4 = private unnamed_addr constant [6 x i8] c"m_axi\00", align 1 ; [#uses=1 type=[6 x i8]*]
@.str5 = private unnamed_addr constant [12 x i8] c"hls_label_0\00", align 1 ; [#uses=1 type=[12 x i8]*]
@.str6 = private unnamed_addr constant [12 x i8] c"hls_label_1\00", align 1 ; [#uses=1 type=[12 x i8]*]
@signgam = external global i32                    ; [#uses=0 type=i32*]
@_ZN9__gnu_cxx24__numeric_traits_integer8__digitsE = external constant i32 ; [#uses=0 type=i32*]
@_ZN9__gnu_cxx25__numeric_traits_floating14__max_digits10E = external constant i32 ; [#uses=0 type=i32*]
@_ZN9__gnu_cxx25__numeric_traits_floating10__digits10E = external constant i32 ; [#uses=0 type=i32*]
@_ZN9__gnu_cxx25__numeric_traits_floating16__max_exponent10E = external constant i32 ; [#uses=0 type=i32*]
@__daylight = external global i32                 ; [#uses=0 type=i32*]
@daylight = external global i32                   ; [#uses=0 type=i32*]
@getdate_err = external global i32                ; [#uses=0 type=i32*]
@optarg = external global i8*                     ; [#uses=0 type=i8**]
@optind = external global i32                     ; [#uses=0 type=i32*]
@opterr = external global i32                     ; [#uses=0 type=i32*]
@optopt = external global i32                     ; [#uses=0 type=i32*]
@_ZSt7nothrow = external global %"class.std::ios_base::Init" ; [#uses=0 type=%"class.std::ios_base::Init"*]
@_ZNSt6locale7_S_onceE = external global i32      ; [#uses=0 type=i32*]
@_ZNSt6locale5facet7_S_onceE = external global i32 ; [#uses=0 type=i32*]
@_ZNSt6locale2id11_S_refcountE = external global i32 ; [#uses=0 type=i32*]
@_ZNSt7collate2idE = external global %"class.std::locale::id" ; [#uses=0 type=%"class.std::locale::id"*]
@_ZNSt8ios_base4Init11_S_refcountE = external global i32 ; [#uses=0 type=i32*]
@_ZNSt5ctype2idE = external global %"class.std::locale::id" ; [#uses=0 type=%"class.std::locale::id"*]
@_ZNSt5ctypeIcE2idE = external global %"class.std::locale::id" ; [#uses=0 type=%"class.std::locale::id"*]
@_ZNSt5ctypeIwE2idE = external global %"class.std::locale::id" ; [#uses=0 type=%"class.std::locale::id"*]
@_ZNSt10__num_base12_S_atoms_outE = external global i8* ; [#uses=0 type=i8**]
@_ZNSt10__num_base11_S_atoms_inE = external global i8* ; [#uses=0 type=i8**]
@_ZNSt8numpunct2idE = external global %"class.std::locale::id" ; [#uses=0 type=%"class.std::locale::id"*]
@_ZNSt7num_get2idE = external global %"class.std::locale::id" ; [#uses=0 type=%"class.std::locale::id"*]
@_ZNSt7num_put2idE = external global %"class.std::locale::id" ; [#uses=0 type=%"class.std::locale::id"*]
@_ZSt3cin = external global %"class.std::basic_istream" ; [#uses=0 type=%"class.std::basic_istream"*]
@_ZSt4cout = external global %"class.std::basic_ostream" ; [#uses=0 type=%"class.std::basic_ostream"*]
@_ZSt4cerr = external global %"class.std::basic_ostream" ; [#uses=0 type=%"class.std::basic_ostream"*]
@_ZSt4clog = external global %"class.std::basic_ostream" ; [#uses=0 type=%"class.std::basic_ostream"*]
@_ZSt4wcin = external global %"class.std::basic_istream.4" ; [#uses=0 type=%"class.std::basic_istream.4"*]
@_ZSt5wcout = external global %"class.std::basic_ostream.7" ; [#uses=0 type=%"class.std::basic_ostream.7"*]
@_ZSt5wcerr = external global %"class.std::basic_ostream.7" ; [#uses=0 type=%"class.std::basic_ostream.7"*]
@_ZSt5wclog = external global %"class.std::basic_ostream.7" ; [#uses=0 type=%"class.std::basic_ostream.7"*]
@llvm.global_ctors = appending global [2 x { i32, void ()* }] [{ i32, void ()* } { i32 65535, void ()* @_GLOBAL__I_a }, { i32, void ()* } { i32 65535, void ()* @_GLOBAL__I_a17 }] ; [#uses=0 type=[2 x { i32, void ()* }]*]
@_ZStL8__ioinit1 = internal global %"class.std::ios_base::Init" zeroinitializer, align 1 ; [#uses=2 type=%"class.std::ios_base::Init"*]
@.str7 = private unnamed_addr constant [1 x i8] zeroinitializer, align 1 ; [#uses=1 type=[1 x i8]*]
@_ZL8statekey = internal global [16 x i8] zeroinitializer, align 16 ; [#uses=19 type=[16 x i8]*]
@_ZL5state = internal global [16 x i8] zeroinitializer, align 16 ; [#uses=26 type=[16 x i8]*]
@_ZL6sboxes = internal constant [256 x i8] c"c|w{\F2ko\C50\01g+\FE\D7\ABv\CA\82\C9}\FAYG\F0\AD\D4\A2\AF\9C\A4r\C0\B7\FD\93&6?\F7\CC4\A5\E5\F1q\D81\15\04\C7#\C3\18\96\05\9A\07\12\80\E2\EB'\B2u\09\83,\1A\1BnZ\A0R;\D6\B3)\E3/\84S\D1\00\ED \FC\B1[j\CB\BE9JLX\CF\D0\EF\AA\FBCM3\85E\F9\02\7FP<\9F\A8Q\A3@\8F\92\9D8\F5\BC\B6\DA!\10\FF\F3\D2\CD\0C\13\EC_\97D\17\C4\A7~=d]\19s`\81O\DC\22*\90\88F\EE\B8\14\DE^\0B\DB\E02:\0AI\06$\5C\C2\D3\ACb\91\95\E4y\E7\C87m\8D\D5N\A9lV\F4\EAez\AE\08\BAx%.\1C\A6\B4\C6\E8\DDt\1FK\BD\8B\8Ap>\B5fH\03\F6\0Ea5W\B9\86\C1\1D\9E\E1\F8\98\11i\D9\8E\94\9B\1E\87\E9\CEU(\DF\8C\A1\89\0D\BF\E6BhA\99-\0F\B0T\BB\16", align 16 ; [#uses=6 type=[256 x i8]*]
@.str18 = private unnamed_addr constant [9 x i8] c"COMPLETE\00", align 1 ; [#uses=1 type=[9 x i8]*]
@.str29 = private unnamed_addr constant [9 x i8] c"INP_LOOP\00", align 1 ; [#uses=1 type=[9 x i8]*]
@_ZZ7aestestP7ap_uintILi128EES1_S1_E4rcon = internal constant [13 x i8] c"\01\02\04\08\10 @\80\1B6l\D8\AB", align 1 ; [#uses=3 type=[13 x i8]*]
@.str310 = private unnamed_addr constant [9 x i8] c"ENC_LOOP\00", align 1 ; [#uses=1 type=[9 x i8]*]
@.str411 = private unnamed_addr constant [9 x i8] c"OUT_LOOP\00", align 1 ; [#uses=1 type=[9 x i8]*]
@_ZL21ssdm_global_array_ins = internal global %class.ssdm_global_array_aespp0cppaplinecpp zeroinitializer, align 1 ; [#uses=1 type=%class.ssdm_global_array_aespp0cppaplinecpp*]

; [#uses=1]
define internal void @__cxx_global_var_init() nounwind section ".text.startup" {
  call void @_ZNSt8ios_base4InitC1Ev(%"class.std::ios_base::Init"* @_ZStL8__ioinit)
  %1 = call i32 @atexit(void ()* @__dtor__ZStL8__ioinit) ; [#uses=0 type=i32]
  ret void
}

; [#uses=2]
declare void @_ZNSt8ios_base4InitC1Ev(%"class.std::ios_base::Init"*)

; [#uses=2]
declare void @_ZNSt8ios_base4InitD1Ev(%"class.std::ios_base::Init"*)

; [#uses=1]
define internal void @__dtor__ZStL8__ioinit() nounwind section ".text.startup" {
  call void @_ZNSt8ios_base4InitD1Ev(%"class.std::ios_base::Init"* @_ZStL8__ioinit)
  ret void
}

; [#uses=2]
declare i32 @atexit(void ()*) nounwind

; [#uses=0]
define void @_Z18filesystem_encryptP7ap_uintILi128EES0_S0_j(%struct.ap_uint* %buffer, %struct.ap_uint* byval align 16 %iv, %struct.ap_uint* byval align 16 %key, i32 %length) nounwind uwtable {
  %1 = alloca %struct.ap_uint*, align 8           ; [#uses=7 type=%struct.ap_uint**]
  %2 = alloca i32, align 4                        ; [#uses=4 type=i32*]
  %i = alloca i32, align 4                        ; [#uses=9 type=i32*]
  %j = alloca i32, align 4                        ; [#uses=8 type=i32*]
  %buffer_temp = alloca [32 x %struct.ap_uint], align 16 ; [#uses=4 type=[32 x %struct.ap_uint]*]
  %buffer_temp_out = alloca [32 x %struct.ap_uint], align 16 ; [#uses=4 type=[32 x %struct.ap_uint]*]
  %counter = alloca %struct.ap_uint, align 16     ; [#uses=2 type=%struct.ap_uint*]
  %3 = alloca %struct.ap_int_base.0, align 8      ; [#uses=2 type=%struct.ap_int_base.0*]
  %4 = alloca %struct.ap_int_base.2, align 8      ; [#uses=2 type=%struct.ap_int_base.2*]
  %temp = alloca %struct.ap_uint, align 16        ; [#uses=3 type=%struct.ap_uint*]
  %temp1 = alloca %struct.ap_uint, align 16       ; [#uses=1 type=%struct.ap_uint*]
  %5 = alloca %struct.ap_uint, align 16           ; [#uses=2 type=%struct.ap_uint*]
  %6 = alloca %struct.ap_int_base, align 16       ; [#uses=2 type=%struct.ap_int_base*]
  store %struct.ap_uint* %buffer, %struct.ap_uint** %1, align 8
  call void @llvm.dbg.declare(metadata !{%struct.ap_uint** %1}, metadata !6939), !dbg !6940 ; [debug line = 10:15] [debug variable = buffer]
  call void @llvm.dbg.declare(metadata !{%struct.ap_uint* %iv}, metadata !6941), !dbg !6942 ; [debug line = 11:15] [debug variable = iv]
  call void @llvm.dbg.declare(metadata !{%struct.ap_uint* %key}, metadata !6943), !dbg !6944 ; [debug line = 12:15] [debug variable = key]
  store i32 %length, i32* %2, align 4
  call void @llvm.dbg.declare(metadata !{i32* %2}, metadata !6945), !dbg !6946 ; [debug line = 13:15] [debug variable = length]
  %7 = load %struct.ap_uint** %1, align 8, !dbg !6947 ; [#uses=1 type=%struct.ap_uint*] [debug line = 14:3]
  call void (...)* @_ssdm_SpecArrayDimSize(%struct.ap_uint* %7, i32 32768) nounwind, !dbg !6947 ; [debug line = 14:3]
  %8 = load i32* %2, align 4, !dbg !6949          ; [#uses=1 type=i32] [debug line = 15:1]
  call void (...)* @_ssdm_op_SpecInterface(i32 %8, i8* getelementptr inbounds ([7 x i8]* @.str, i32 0, i32 0), i32 0, i32 0, i8* getelementptr inbounds ([1 x i8]* @.str1, i32 0, i32 0), i32 0, i32 0, i8* getelementptr inbounds ([1 x i8]* @.str1, i32 0, i32 0), i8* getelementptr inbounds ([1 x i8]* @.str1, i32 0, i32 0), i8* getelementptr inbounds ([1 x i8]* @.str1, i32 0, i32 0), i32 0, i32 0, i32 0, i32 0, i8* getelementptr inbounds ([1 x i8]* @.str1, i32 0, i32 0), i8* getelementptr inbounds ([1 x i8]* @.str1, i32 0, i32 0)) nounwind, !dbg !6949 ; [debug line = 15:1]
  %9 = load i32* %2, align 4, !dbg !6950          ; [#uses=1 type=i32] [debug line = 16:1]
  call void (...)* @_ssdm_op_SpecInterface(i32 %9, i8* getelementptr inbounds ([10 x i8]* @.str2, i32 0, i32 0), i32 0, i32 0, i8* getelementptr inbounds ([1 x i8]* @.str1, i32 0, i32 0), i32 0, i32 0, i8* getelementptr inbounds ([1 x i8]* @.str1, i32 0, i32 0), i8* getelementptr inbounds ([1 x i8]* @.str1, i32 0, i32 0), i8* getelementptr inbounds ([1 x i8]* @.str1, i32 0, i32 0), i32 0, i32 0, i32 0, i32 0, i8* getelementptr inbounds ([1 x i8]* @.str1, i32 0, i32 0), i8* getelementptr inbounds ([1 x i8]* @.str1, i32 0, i32 0)) nounwind, !dbg !6950 ; [debug line = 16:1]
  call void (...)* @_ssdm_op_SpecInterface(%struct.ap_uint* %key, i8* getelementptr inbounds ([8 x i8]* @.str3, i32 0, i32 0), i32 0, i32 0, i8* getelementptr inbounds ([1 x i8]* @.str1, i32 0, i32 0), i32 0, i32 0, i8* getelementptr inbounds ([1 x i8]* @.str1, i32 0, i32 0), i8* getelementptr inbounds ([1 x i8]* @.str1, i32 0, i32 0), i8* getelementptr inbounds ([1 x i8]* @.str1, i32 0, i32 0), i32 0, i32 0, i32 0, i32 0, i8* getelementptr inbounds ([1 x i8]* @.str1, i32 0, i32 0), i8* getelementptr inbounds ([1 x i8]* @.str1, i32 0, i32 0)) nounwind, !dbg !6951 ; [debug line = 17:1]
  call void (...)* @_ssdm_op_SpecInterface(%struct.ap_uint* %iv, i8* getelementptr inbounds ([8 x i8]* @.str3, i32 0, i32 0), i32 0, i32 0, i8* getelementptr inbounds ([1 x i8]* @.str1, i32 0, i32 0), i32 0, i32 0, i8* getelementptr inbounds ([1 x i8]* @.str1, i32 0, i32 0), i8* getelementptr inbounds ([1 x i8]* @.str1, i32 0, i32 0), i8* getelementptr inbounds ([1 x i8]* @.str1, i32 0, i32 0), i32 0, i32 0, i32 0, i32 0, i8* getelementptr inbounds ([1 x i8]* @.str1, i32 0, i32 0), i8* getelementptr inbounds ([1 x i8]* @.str1, i32 0, i32 0)) nounwind, !dbg !6952 ; [debug line = 18:1]
  call void (...)* @_ssdm_op_SpecInterface(%struct.ap_uint* %iv, i8* getelementptr inbounds ([10 x i8]* @.str2, i32 0, i32 0), i32 0, i32 0, i8* getelementptr inbounds ([1 x i8]* @.str1, i32 0, i32 0), i32 0, i32 0, i8* getelementptr inbounds ([1 x i8]* @.str1, i32 0, i32 0), i8* getelementptr inbounds ([1 x i8]* @.str1, i32 0, i32 0), i8* getelementptr inbounds ([1 x i8]* @.str1, i32 0, i32 0), i32 0, i32 0, i32 0, i32 0, i8* getelementptr inbounds ([1 x i8]* @.str1, i32 0, i32 0), i8* getelementptr inbounds ([1 x i8]* @.str1, i32 0, i32 0)) nounwind, !dbg !6953 ; [debug line = 19:1]
  %10 = load %struct.ap_uint** %1, align 8, !dbg !6954 ; [#uses=1 type=%struct.ap_uint*] [debug line = 20:1]
  call void (...)* @_ssdm_op_SpecInterface(%struct.ap_uint* %10, i8* getelementptr inbounds ([6 x i8]* @.str4, i32 0, i32 0), i32 0, i32 0, i8* getelementptr inbounds ([1 x i8]* @.str1, i32 0, i32 0), i32 0, i32 2048, i8* getelementptr inbounds ([1 x i8]* @.str1, i32 0, i32 0), i8* getelementptr inbounds ([1 x i8]* @.str1, i32 0, i32 0), i8* getelementptr inbounds ([1 x i8]* @.str1, i32 0, i32 0), i32 16, i32 16, i32 16, i32 16, i8* getelementptr inbounds ([1 x i8]* @.str1, i32 0, i32 0), i8* getelementptr inbounds ([1 x i8]* @.str1, i32 0, i32 0)) nounwind, !dbg !6954 ; [debug line = 20:1]
  call void @llvm.dbg.declare(metadata !{i32* %i}, metadata !6955), !dbg !6956 ; [debug line = 21:6] [debug variable = i]
  call void @llvm.dbg.declare(metadata !{i32* %j}, metadata !6957), !dbg !6958 ; [debug line = 21:9] [debug variable = j]
  call void @llvm.dbg.declare(metadata !{[32 x %struct.ap_uint]* %buffer_temp}, metadata !6959), !dbg !6963 ; [debug line = 22:15] [debug variable = buffer_temp]
  %11 = getelementptr inbounds [32 x %struct.ap_uint]* %buffer_temp, i32 0, i32 0, !dbg !6964 ; [#uses=0 type=%struct.ap_uint*] [debug line = 22:30]
  br label %arrayctor.loop

arrayctor.loop:                                   ; preds = %arrayctor.loop, %0
  %12 = phi i32 [ 0, %0 ], [ %13, %arrayctor.loop ], !dbg !6964 ; [#uses=3 type=i32] [debug line = 22:30]
  %13 = add i32 %12, 1, !dbg !6964                ; [#uses=1 type=i32] [debug line = 22:30]
  %14 = getelementptr inbounds [32 x %struct.ap_uint]* %buffer_temp, i32 0, i32 %12, !dbg !6964 ; [#uses=1 type=%struct.ap_uint*] [debug line = 22:30]
  call void @_ZN7ap_uintILi128EEC1Ev(%struct.ap_uint* %14), !dbg !6964 ; [debug line = 22:30]
  %15 = icmp eq i32 %12, 31, !dbg !6964           ; [#uses=1 type=i1] [debug line = 22:30]
  br i1 %15, label %16, label %arrayctor.loop, !dbg !6964 ; [debug line = 22:30]

; <label>:16                                      ; preds = %arrayctor.loop
  br label %17, !dbg !6964                        ; [debug line = 22:30]

; <label>:17                                      ; preds = %16
  call void @llvm.dbg.declare(metadata !{[32 x %struct.ap_uint]* %buffer_temp_out}, metadata !6965), !dbg !6966 ; [debug line = 23:15] [debug variable = buffer_temp_out]
  %18 = getelementptr inbounds [32 x %struct.ap_uint]* %buffer_temp_out, i32 0, i32 0, !dbg !6967 ; [#uses=0 type=%struct.ap_uint*] [debug line = 23:34]
  br label %arrayctor.loop1

arrayctor.loop1:                                  ; preds = %arrayctor.loop1, %17
  %19 = phi i32 [ 0, %17 ], [ %20, %arrayctor.loop1 ], !dbg !6967 ; [#uses=3 type=i32] [debug line = 23:34]
  %20 = add i32 %19, 1, !dbg !6967                ; [#uses=1 type=i32] [debug line = 23:34]
  %21 = getelementptr inbounds [32 x %struct.ap_uint]* %buffer_temp_out, i32 0, i32 %19, !dbg !6967 ; [#uses=1 type=%struct.ap_uint*] [debug line = 23:34]
  call void @_ZN7ap_uintILi128EEC1Ev(%struct.ap_uint* %21), !dbg !6967 ; [debug line = 23:34]
  %22 = icmp eq i32 %19, 31, !dbg !6967           ; [#uses=1 type=i1] [debug line = 23:34]
  br i1 %22, label %23, label %arrayctor.loop1, !dbg !6967 ; [debug line = 23:34]

; <label>:23                                      ; preds = %arrayctor.loop1
  br label %24, !dbg !6967                        ; [debug line = 23:34]

; <label>:24                                      ; preds = %23
  store i32 0, i32* %i, align 4, !dbg !6968       ; [debug line = 24:6]
  br label %25, !dbg !6968                        ; [debug line = 24:6]

; <label>:25                                      ; preds = %75, %24
  %26 = load i32* %i, align 4, !dbg !6968         ; [#uses=1 type=i32] [debug line = 24:6]
  %27 = icmp slt i32 %26, 32768, !dbg !6968       ; [#uses=1 type=i1] [debug line = 24:6]
  br i1 %27, label %28, label %78, !dbg !6968     ; [debug line = 24:6]

; <label>:28                                      ; preds = %25
  call void (...)* @_ssdm_RegionBegin(i8* getelementptr inbounds ([12 x i8]* @.str5, i32 0, i32 0)) nounwind, !dbg !6970 ; [debug line = 24:28]
  call void (...)* @_ssdm_op_SpecPipeline(i32 -1, i32 1, i32 1, i32 0, i8* getelementptr inbounds ([1 x i8]* @.str1, i32 0, i32 0)) nounwind, !dbg !6972 ; [debug line = 25:1]
  %29 = load %struct.ap_uint** %1, align 8, !dbg !6973 ; [#uses=1 type=%struct.ap_uint*] [debug line = 26:1]
  call void (...)* @_ssdm_SpecDependence(%struct.ap_uint* %29, i32 0, i32 0, i32 -1, i32 0, i32 1) nounwind, !dbg !6973 ; [debug line = 26:1]
  %30 = getelementptr inbounds [32 x %struct.ap_uint]* %buffer_temp, i32 0, i32 0, !dbg !6974 ; [#uses=1 type=%struct.ap_uint*] [debug line = 28:2]
  %31 = bitcast %struct.ap_uint* %30 to i8*, !dbg !6974 ; [#uses=1 type=i8*] [debug line = 28:2]
  %32 = load %struct.ap_uint** %1, align 8, !dbg !6974 ; [#uses=1 type=%struct.ap_uint*] [debug line = 28:2]
  %33 = load i32* %i, align 4, !dbg !6974         ; [#uses=1 type=i32] [debug line = 28:2]
  %34 = sext i32 %33 to i64, !dbg !6974           ; [#uses=1 type=i64] [debug line = 28:2]
  %35 = getelementptr inbounds %struct.ap_uint* %32, i64 %34, !dbg !6974 ; [#uses=1 type=%struct.ap_uint*] [debug line = 28:2]
  %36 = bitcast %struct.ap_uint* %35 to i8*, !dbg !6974 ; [#uses=1 type=i8*] [debug line = 28:2]
  call void @llvm.memcpy.p0i8.p0i8.i64(i8* %31, i8* %36, i64 512, i32 16, i1 false), !dbg !6974 ; [debug line = 28:2]
  store i32 0, i32* %j, align 4, !dbg !6975       ; [debug line = 30:7]
  br label %37, !dbg !6975                        ; [debug line = 30:7]

; <label>:37                                      ; preds = %64, %28
  %38 = load i32* %j, align 4, !dbg !6975         ; [#uses=1 type=i32] [debug line = 30:7]
  %39 = icmp slt i32 %38, 32, !dbg !6975          ; [#uses=1 type=i1] [debug line = 30:7]
  br i1 %39, label %40, label %67, !dbg !6975     ; [debug line = 30:7]

; <label>:40                                      ; preds = %37
  call void (...)* @_ssdm_RegionBegin(i8* getelementptr inbounds ([12 x i8]* @.str6, i32 0, i32 0)) nounwind, !dbg !6977 ; [debug line = 30:23]
  call void (...)* @_ssdm_Unroll(i32 0, i32 0, i32 0, i8* getelementptr inbounds ([1 x i8]* @.str1, i32 0, i32 0)) nounwind, !dbg !6979 ; [debug line = 31:1]
  %41 = load %struct.ap_uint** %1, align 8, !dbg !6980 ; [#uses=1 type=%struct.ap_uint*] [debug line = 32:1]
  call void (...)* @_ssdm_SpecDependence(%struct.ap_uint* %41, i32 0, i32 0, i32 -1, i32 0, i32 1) nounwind, !dbg !6980 ; [debug line = 32:1]
  %42 = load i32* %i, align 4, !dbg !6981         ; [#uses=1 type=i32] [debug line = 34:2]
  %43 = load i32* %j, align 4, !dbg !6981         ; [#uses=1 type=i32] [debug line = 34:2]
  %44 = add nsw i32 %42, %43, !dbg !6981          ; [#uses=1 type=i32] [debug line = 34:2]
  %45 = load i32* %2, align 4, !dbg !6981         ; [#uses=1 type=i32] [debug line = 34:2]
  %46 = icmp ult i32 %44, %45, !dbg !6981         ; [#uses=1 type=i1] [debug line = 34:2]
  br i1 %46, label %47, label %62, !dbg !6981     ; [debug line = 34:2]

; <label>:47                                      ; preds = %40
  call void @llvm.dbg.declare(metadata !{%struct.ap_uint* %counter}, metadata !6982), !dbg !6984 ; [debug line = 35:18] [debug variable = counter]
  %48 = bitcast %struct.ap_uint* %iv to %struct.ap_int_base*, !dbg !6985 ; [#uses=1 type=%struct.ap_int_base*] [debug line = 35:28]
  %49 = load i32* %i, align 4, !dbg !6985         ; [#uses=1 type=i32] [debug line = 35:28]
  call void @_ZplILi128ELb0EEN11ap_int_baseIXT_EXT0_EXleT_Li64EEE5RTypeIXLi32EEXLb1EEE4plusERKS1_i(%struct.ap_int_base.2* sret %4, %struct.ap_int_base* %48, i32 %49), !dbg !6985 ; [debug line = 35:28]
  %50 = load i32* %j, align 4, !dbg !6985         ; [#uses=1 type=i32] [debug line = 35:28]
  call void @_ZplILi130ELb1EEN11ap_int_baseIXT_EXT0_EXleT_Li64EEE5RTypeIXLi32EEXLb1EEE4plusERKS1_i(%struct.ap_int_base.0* sret %3, %struct.ap_int_base.2* %4, i32 %50), !dbg !6985 ; [debug line = 35:28]
  call void @_ZN7ap_uintILi128EEC1ILi131ELb1EEERK11ap_int_baseIXT_EXT0_EXleT_Li64EEE(%struct.ap_uint* %counter, %struct.ap_int_base.0* %3), !dbg !6985 ; [debug line = 35:28]
  call void @llvm.dbg.declare(metadata !{%struct.ap_uint* %temp}, metadata !6986), !dbg !6987 ; [debug line = 36:18] [debug variable = temp]
  call void @_ZN7ap_uintILi128EEC1Ev(%struct.ap_uint* %temp), !dbg !6988 ; [debug line = 36:29]
  call void @llvm.dbg.declare(metadata !{%struct.ap_uint* %temp1}, metadata !6989), !dbg !6990 ; [debug line = 36:24] [debug variable = temp1]
  call void @_ZN7ap_uintILi128EEC1Ev(%struct.ap_uint* %temp1), !dbg !6988 ; [debug line = 36:29]
  call void @_Z7aestestP7ap_uintILi128EES1_S1_(%struct.ap_uint* %counter, %struct.ap_uint* %key, %struct.ap_uint* %temp), !dbg !6991 ; [debug line = 39:5]
  %51 = load i32* %i, align 4, !dbg !6992         ; [#uses=1 type=i32] [debug line = 41:5]
  %52 = load i32* %j, align 4, !dbg !6992         ; [#uses=1 type=i32] [debug line = 41:5]
  %53 = add nsw i32 %51, %52, !dbg !6992          ; [#uses=1 type=i32] [debug line = 41:5]
  %54 = sext i32 %53 to i64, !dbg !6992           ; [#uses=1 type=i64] [debug line = 41:5]
  %55 = getelementptr inbounds [32 x %struct.ap_uint]* %buffer_temp_out, i32 0, i64 %54, !dbg !6992 ; [#uses=1 type=%struct.ap_uint*] [debug line = 41:5]
  %56 = load i32* %j, align 4, !dbg !6993         ; [#uses=1 type=i32] [debug line = 41:30]
  %57 = sext i32 %56 to i64, !dbg !6993           ; [#uses=1 type=i64] [debug line = 41:30]
  %58 = getelementptr inbounds [32 x %struct.ap_uint]* %buffer_temp, i32 0, i64 %57, !dbg !6993 ; [#uses=1 type=%struct.ap_uint*] [debug line = 41:30]
  %59 = bitcast %struct.ap_uint* %58 to %struct.ap_int_base*, !dbg !6993 ; [#uses=1 type=%struct.ap_int_base*] [debug line = 41:30]
  %60 = bitcast %struct.ap_uint* %temp to %struct.ap_int_base*, !dbg !6993 ; [#uses=1 type=%struct.ap_int_base*] [debug line = 41:30]
  call void @_ZeoILi128ELb0ELi128ELb0EEN11ap_int_baseIXT_EXT0_EXleT_Li64EEE5RTypeIXT1_EXT2_EE5logicERKS1_RKS0_IXT1_EXT2_EXleT1_Li64EEE(%struct.ap_int_base* sret %6, %struct.ap_int_base* %59, %struct.ap_int_base* %60), !dbg !6993 ; [debug line = 41:30]
  call void @_ZN7ap_uintILi128EEC1ILi128ELb0EEERK11ap_int_baseIXT_EXT0_EXleT_Li64EEE(%struct.ap_uint* %5, %struct.ap_int_base* %6), !dbg !6993 ; [debug line = 41:30]
  %61 = call %struct.ap_uint* @_ZN7ap_uintILi128EEaSERKS0_(%struct.ap_uint* %55, %struct.ap_uint* %5), !dbg !6993 ; [#uses=0 type=%struct.ap_uint*] [debug line = 41:30]
  br label %63, !dbg !6994                        ; [debug line = 42:4]

; <label>:62                                      ; preds = %40
  br label %67, !dbg !6995                        ; [debug line = 43:5]

; <label>:63                                      ; preds = %47
  call void (...)* @_ssdm_RegionEnd(i8* getelementptr inbounds ([12 x i8]* @.str6, i32 0, i32 0)) nounwind, !dbg !6997 ; [debug line = 45:3]
  br label %64, !dbg !6997                        ; [debug line = 45:3]

; <label>:64                                      ; preds = %63
  %65 = load i32* %j, align 4, !dbg !6998         ; [#uses=1 type=i32] [debug line = 30:18]
  %66 = add nsw i32 %65, 1, !dbg !6998            ; [#uses=1 type=i32] [debug line = 30:18]
  store i32 %66, i32* %j, align 4, !dbg !6998     ; [debug line = 30:18]
  br label %37, !dbg !6998                        ; [debug line = 30:18]

; <label>:67                                      ; preds = %62, %37
  %68 = load %struct.ap_uint** %1, align 8, !dbg !6999 ; [#uses=1 type=%struct.ap_uint*] [debug line = 46:3]
  %69 = load i32* %i, align 4, !dbg !6999         ; [#uses=1 type=i32] [debug line = 46:3]
  %70 = sext i32 %69 to i64, !dbg !6999           ; [#uses=1 type=i64] [debug line = 46:3]
  %71 = getelementptr inbounds %struct.ap_uint* %68, i64 %70, !dbg !6999 ; [#uses=1 type=%struct.ap_uint*] [debug line = 46:3]
  %72 = bitcast %struct.ap_uint* %71 to i8*, !dbg !6999 ; [#uses=1 type=i8*] [debug line = 46:3]
  %73 = getelementptr inbounds [32 x %struct.ap_uint]* %buffer_temp_out, i32 0, i32 0, !dbg !6999 ; [#uses=1 type=%struct.ap_uint*] [debug line = 46:3]
  %74 = bitcast %struct.ap_uint* %73 to i8*, !dbg !6999 ; [#uses=1 type=i8*] [debug line = 46:3]
  call void @llvm.memcpy.p0i8.p0i8.i64(i8* %72, i8* %74, i64 512, i32 16, i1 false), !dbg !6999 ; [debug line = 46:3]
  call void (...)* @_ssdm_RegionEnd(i8* getelementptr inbounds ([12 x i8]* @.str5, i32 0, i32 0)) nounwind, !dbg !7000 ; [debug line = 47:2]
  br label %75, !dbg !7000                        ; [debug line = 47:2]

; <label>:75                                      ; preds = %67
  %76 = load i32* %i, align 4, !dbg !7001         ; [#uses=1 type=i32] [debug line = 24:21]
  %77 = add nsw i32 %76, 32, !dbg !7001           ; [#uses=1 type=i32] [debug line = 24:21]
  store i32 %77, i32* %i, align 4, !dbg !7001     ; [debug line = 24:21]
  br label %25, !dbg !7001                        ; [debug line = 24:21]

; <label>:78                                      ; preds = %25
  ret void, !dbg !7002                            ; [debug line = 48:1]
}

; [#uses=120]
declare void @llvm.dbg.declare(metadata, metadata) nounwind readnone

; [#uses=1]
declare void @_ssdm_SpecArrayDimSize(...) nounwind

; [#uses=6]
declare void @_ssdm_op_SpecInterface(...) nounwind

; [#uses=5]
define linkonce_odr void @_ZN7ap_uintILi128EEC1Ev(%struct.ap_uint* %this) unnamed_addr nounwind uwtable inlinehint alwaysinline align 2 {
  %1 = alloca %struct.ap_uint*, align 8           ; [#uses=2 type=%struct.ap_uint**]
  store %struct.ap_uint* %this, %struct.ap_uint** %1, align 8
  call void @llvm.dbg.declare(metadata !{%struct.ap_uint** %1}, metadata !7003), !dbg !7004 ; [debug line = 185:43] [debug variable = this]
  %2 = load %struct.ap_uint** %1                  ; [#uses=1 type=%struct.ap_uint*]
  call void @_ZN7ap_uintILi128EEC2Ev(%struct.ap_uint* %2), !dbg !7005 ; [debug line = 185:62]
  ret void, !dbg !7005                            ; [debug line = 185:62]
}

; [#uses=5]
declare void @_ssdm_RegionBegin(...) nounwind

; [#uses=2]
declare void @_ssdm_op_SpecPipeline(...) nounwind

; [#uses=2]
declare void @_ssdm_SpecDependence(...) nounwind

; [#uses=2]
declare void @llvm.memcpy.p0i8.p0i8.i64(i8* nocapture, i8* nocapture, i64, i32, i1) nounwind

; [#uses=7]
declare void @_ssdm_Unroll(...) nounwind

; [#uses=1]
define linkonce_odr void @_ZN7ap_uintILi128EEC1ILi131ELb1EEERK11ap_int_baseIXT_EXT0_EXleT_Li64EEE(%struct.ap_uint* %this, %struct.ap_int_base.0* %op) unnamed_addr nounwind uwtable inlinehint alwaysinline align 2 {
  %1 = alloca %struct.ap_uint*, align 8           ; [#uses=2 type=%struct.ap_uint**]
  %2 = alloca %struct.ap_int_base.0*, align 8     ; [#uses=2 type=%struct.ap_int_base.0**]
  store %struct.ap_uint* %this, %struct.ap_uint** %1, align 8
  call void @llvm.dbg.declare(metadata !{%struct.ap_uint** %1}, metadata !7006), !dbg !7007 ; [debug line = 228:43] [debug variable = this]
  store %struct.ap_int_base.0* %op, %struct.ap_int_base.0** %2, align 8
  call void @llvm.dbg.declare(metadata !{%struct.ap_int_base.0** %2}, metadata !7008), !dbg !7009 ; [debug line = 228:86] [debug variable = op]
  %3 = load %struct.ap_uint** %1                  ; [#uses=1 type=%struct.ap_uint*]
  %4 = load %struct.ap_int_base.0** %2, !dbg !7010 ; [#uses=1 type=%struct.ap_int_base.0*] [debug line = 228:106]
  call void @_ZN7ap_uintILi128EEC2ILi131ELb1EEERK11ap_int_baseIXT_EXT0_EXleT_Li64EEE(%struct.ap_uint* %3, %struct.ap_int_base.0* %4), !dbg !7010 ; [debug line = 228:106]
  ret void, !dbg !7010                            ; [debug line = 228:106]
}

; [#uses=1]
define linkonce_odr void @_ZplILi130ELb1EEN11ap_int_baseIXT_EXT0_EXleT_Li64EEE5RTypeIXLi32EEXLb1EEE4plusERKS1_i(%struct.ap_int_base.0* noalias sret %agg.result, %struct.ap_int_base.2* %op, i32 %i_op) nounwind uwtable inlinehint alwaysinline {
  %1 = alloca %struct.ap_int_base.2*, align 8     ; [#uses=2 type=%struct.ap_int_base.2**]
  %2 = alloca i32, align 4                        ; [#uses=2 type=i32*]
  %3 = alloca %struct.ap_int_base.13, align 4     ; [#uses=2 type=%struct.ap_int_base.13*]
  store %struct.ap_int_base.2* %op, %struct.ap_int_base.2** %1, align 8
  call void @llvm.dbg.declare(metadata !{%struct.ap_int_base.2** %1}, metadata !7011), !dbg !7012 ; [debug line = 3468:0] [debug variable = op]
  store i32 %i_op, i32* %2, align 4
  call void @llvm.dbg.declare(metadata !{i32* %2}, metadata !7013), !dbg !7012 ; [debug line = 3468:0] [debug variable = i_op]
  %4 = load %struct.ap_int_base.2** %1, align 8, !dbg !7014 ; [#uses=1 type=%struct.ap_int_base.2*] [debug line = 3468:0]
  %5 = load i32* %2, align 4, !dbg !7014          ; [#uses=1 type=i32] [debug line = 3468:0]
  call void @_ZN11ap_int_baseILi32ELb1ELb1EEC1Ei(%struct.ap_int_base.13* %3, i32 %5), !dbg !7014 ; [debug line = 3468:0]
  call void @_ZplILi130ELb1ELi32ELb1EEN11ap_int_baseIXT_EXT0_EXleT_Li64EEE5RTypeIXT1_EXT2_EE4plusERKS1_RKS0_IXT1_EXT2_EXleT1_Li64EEE(%struct.ap_int_base.0* sret %agg.result, %struct.ap_int_base.2* %4, %struct.ap_int_base.13* %3), !dbg !7014 ; [debug line = 3468:0]
  ret void, !dbg !7014                            ; [debug line = 3468:0]
}

; [#uses=1]
define linkonce_odr void @_ZplILi128ELb0EEN11ap_int_baseIXT_EXT0_EXleT_Li64EEE5RTypeIXLi32EEXLb1EEE4plusERKS1_i(%struct.ap_int_base.2* noalias sret %agg.result, %struct.ap_int_base* %op, i32 %i_op) nounwind uwtable inlinehint alwaysinline {
  %1 = alloca %struct.ap_int_base*, align 8       ; [#uses=2 type=%struct.ap_int_base**]
  %2 = alloca i32, align 4                        ; [#uses=2 type=i32*]
  %3 = alloca %struct.ap_int_base.13, align 4     ; [#uses=2 type=%struct.ap_int_base.13*]
  store %struct.ap_int_base* %op, %struct.ap_int_base** %1, align 8
  call void @llvm.dbg.declare(metadata !{%struct.ap_int_base** %1}, metadata !7016), !dbg !7017 ; [debug line = 3468:0] [debug variable = op]
  store i32 %i_op, i32* %2, align 4
  call void @llvm.dbg.declare(metadata !{i32* %2}, metadata !7018), !dbg !7017 ; [debug line = 3468:0] [debug variable = i_op]
  %4 = load %struct.ap_int_base** %1, align 8, !dbg !7019 ; [#uses=1 type=%struct.ap_int_base*] [debug line = 3468:0]
  %5 = load i32* %2, align 4, !dbg !7019          ; [#uses=1 type=i32] [debug line = 3468:0]
  call void @_ZN11ap_int_baseILi32ELb1ELb1EEC1Ei(%struct.ap_int_base.13* %3, i32 %5), !dbg !7019 ; [debug line = 3468:0]
  call void @_ZplILi128ELb0ELi32ELb1EEN11ap_int_baseIXT_EXT0_EXleT_Li64EEE5RTypeIXT1_EXT2_EE4plusERKS1_RKS0_IXT1_EXT2_EXleT1_Li64EEE(%struct.ap_int_base.2* sret %agg.result, %struct.ap_int_base* %4, %struct.ap_int_base.13* %3), !dbg !7019 ; [debug line = 3468:0]
  ret void, !dbg !7019                            ; [debug line = 3468:0]
}

; [#uses=2]
define linkonce_odr %struct.ap_uint* @_ZN7ap_uintILi128EEaSERKS0_(%struct.ap_uint* %this, %struct.ap_uint* %op2) nounwind uwtable inlinehint alwaysinline align 2 {
  %1 = alloca %struct.ap_uint*, align 8           ; [#uses=2 type=%struct.ap_uint**]
  %2 = alloca %struct.ap_uint*, align 8           ; [#uses=2 type=%struct.ap_uint**]
  store %struct.ap_uint* %this, %struct.ap_uint** %1, align 8
  call void @llvm.dbg.declare(metadata !{%struct.ap_uint** %1}, metadata !7021), !dbg !7022 ; [debug line = 279:53] [debug variable = this]
  store %struct.ap_uint* %op2, %struct.ap_uint** %2, align 8
  call void @llvm.dbg.declare(metadata !{%struct.ap_uint** %2}, metadata !7023), !dbg !7024 ; [debug line = 279:87] [debug variable = op2]
  %3 = load %struct.ap_uint** %1                  ; [#uses=2 type=%struct.ap_uint*]
  %4 = load %struct.ap_uint** %2, align 8, !dbg !7025 ; [#uses=1 type=%struct.ap_uint*] [debug line = 280:10]
  %5 = bitcast %struct.ap_uint* %4 to %struct.ssdm_int*, !dbg !7025 ; [#uses=1 type=%struct.ssdm_int*] [debug line = 280:10]
  %6 = getelementptr inbounds %struct.ssdm_int* %5, i32 0, i32 0, !dbg !7025 ; [#uses=1 type=i128*] [debug line = 280:10]
  %7 = load i128* %6, align 16, !dbg !7025        ; [#uses=1 type=i128] [debug line = 280:10]
  %8 = bitcast %struct.ap_uint* %3 to %struct.ap_int_base*, !dbg !7025 ; [#uses=1 type=%struct.ap_int_base*] [debug line = 280:10]
  %9 = bitcast %struct.ap_int_base* %8 to %struct.ssdm_int*, !dbg !7025 ; [#uses=1 type=%struct.ssdm_int*] [debug line = 280:10]
  %10 = getelementptr inbounds %struct.ssdm_int* %9, i32 0, i32 0, !dbg !7025 ; [#uses=1 type=i128*] [debug line = 280:10]
  store i128 %7, i128* %10, align 16, !dbg !7025  ; [debug line = 280:10]
  ret %struct.ap_uint* %3, !dbg !7027             ; [debug line = 281:10]
}

; [#uses=1]
define linkonce_odr void @_ZN7ap_uintILi128EEC1ILi128ELb0EEERK11ap_int_baseIXT_EXT0_EXleT_Li64EEE(%struct.ap_uint* %this, %struct.ap_int_base* %op) unnamed_addr nounwind uwtable inlinehint alwaysinline align 2 {
  %1 = alloca %struct.ap_uint*, align 8           ; [#uses=2 type=%struct.ap_uint**]
  %2 = alloca %struct.ap_int_base*, align 8       ; [#uses=2 type=%struct.ap_int_base**]
  store %struct.ap_uint* %this, %struct.ap_uint** %1, align 8
  call void @llvm.dbg.declare(metadata !{%struct.ap_uint** %1}, metadata !7028), !dbg !7029 ; [debug line = 228:43] [debug variable = this]
  store %struct.ap_int_base* %op, %struct.ap_int_base** %2, align 8
  call void @llvm.dbg.declare(metadata !{%struct.ap_int_base** %2}, metadata !7030), !dbg !7031 ; [debug line = 228:86] [debug variable = op]
  %3 = load %struct.ap_uint** %1                  ; [#uses=1 type=%struct.ap_uint*]
  %4 = load %struct.ap_int_base** %2, !dbg !7032  ; [#uses=1 type=%struct.ap_int_base*] [debug line = 228:106]
  call void @_ZN7ap_uintILi128EEC2ILi128ELb0EEERK11ap_int_baseIXT_EXT0_EXleT_Li64EEE(%struct.ap_uint* %3, %struct.ap_int_base* %4), !dbg !7032 ; [debug line = 228:106]
  ret void, !dbg !7032                            ; [debug line = 228:106]
}

; [#uses=1]
define linkonce_odr void @_ZeoILi128ELb0ELi128ELb0EEN11ap_int_baseIXT_EXT0_EXleT_Li64EEE5RTypeIXT1_EXT2_EE5logicERKS1_RKS0_IXT1_EXT2_EXleT1_Li64EEE(%struct.ap_int_base* noalias sret %agg.result, %struct.ap_int_base* %op, %struct.ap_int_base* %op2) nounwind uwtable inlinehint alwaysinline {
  %1 = alloca %struct.ap_int_base*, align 8       ; [#uses=2 type=%struct.ap_int_base**]
  %2 = alloca %struct.ap_int_base*, align 8       ; [#uses=2 type=%struct.ap_int_base**]
  %lhs = alloca %struct.ap_int_base, align 16     ; [#uses=3 type=%struct.ap_int_base*]
  %rhs = alloca %struct.ap_int_base, align 16     ; [#uses=3 type=%struct.ap_int_base*]
  store %struct.ap_int_base* %op, %struct.ap_int_base** %1, align 8
  call void @llvm.dbg.declare(metadata !{%struct.ap_int_base** %1}, metadata !7033), !dbg !7034 ; [debug line = 3379:217] [debug variable = op]
  store %struct.ap_int_base* %op2, %struct.ap_int_base** %2, align 8
  call void @llvm.dbg.declare(metadata !{%struct.ap_int_base** %2}, metadata !7035), !dbg !7036 ; [debug line = 3379:255] [debug variable = op2]
  call void @llvm.dbg.declare(metadata !{%struct.ap_int_base* %lhs}, metadata !7037), !dbg !7039 ; [debug line = 3379:0] [debug variable = lhs]
  %3 = load %struct.ap_int_base** %1, align 8, !dbg !7039 ; [#uses=2 type=%struct.ap_int_base*] [debug line = 3379:0]
  %4 = bitcast %struct.ap_int_base* %lhs to i8*, !dbg !7039 ; [#uses=0 type=i8*] [debug line = 3379:0]
  %5 = bitcast %struct.ap_int_base* %3 to i8*, !dbg !7039 ; [#uses=0 type=i8*] [debug line = 3379:0]
  %6 = getelementptr inbounds %struct.ap_int_base* %lhs, i32 0, i32 0, !dbg !7039 ; [#uses=1 type=%struct.ssdm_int*] [debug line = 3379:0]
  %7 = getelementptr inbounds %struct.ap_int_base* %3, i32 0, i32 0, !dbg !7039 ; [#uses=1 type=%struct.ssdm_int*] [debug line = 3379:0]
  %8 = getelementptr inbounds %struct.ssdm_int* %6, i32 0, i32 0, !dbg !7039 ; [#uses=1 type=i128*] [debug line = 3379:0]
  %9 = getelementptr inbounds %struct.ssdm_int* %7, i32 0, i32 0, !dbg !7039 ; [#uses=1 type=i128*] [debug line = 3379:0]
  %10 = load i128* %9, !dbg !7039                 ; [#uses=1 type=i128] [debug line = 3379:0]
  store i128 %10, i128* %8, !dbg !7039            ; [debug line = 3379:0]
  call void @llvm.dbg.declare(metadata !{%struct.ap_int_base* %rhs}, metadata !7040), !dbg !7039 ; [debug line = 3379:0] [debug variable = rhs]
  %11 = load %struct.ap_int_base** %2, align 8, !dbg !7039 ; [#uses=2 type=%struct.ap_int_base*] [debug line = 3379:0]
  %12 = bitcast %struct.ap_int_base* %rhs to i8*, !dbg !7039 ; [#uses=0 type=i8*] [debug line = 3379:0]
  %13 = bitcast %struct.ap_int_base* %11 to i8*, !dbg !7039 ; [#uses=0 type=i8*] [debug line = 3379:0]
  %14 = getelementptr inbounds %struct.ap_int_base* %rhs, i32 0, i32 0, !dbg !7039 ; [#uses=1 type=%struct.ssdm_int*] [debug line = 3379:0]
  %15 = getelementptr inbounds %struct.ap_int_base* %11, i32 0, i32 0, !dbg !7039 ; [#uses=1 type=%struct.ssdm_int*] [debug line = 3379:0]
  %16 = getelementptr inbounds %struct.ssdm_int* %14, i32 0, i32 0, !dbg !7039 ; [#uses=1 type=i128*] [debug line = 3379:0]
  %17 = getelementptr inbounds %struct.ssdm_int* %15, i32 0, i32 0, !dbg !7039 ; [#uses=1 type=i128*] [debug line = 3379:0]
  %18 = load i128* %17, !dbg !7039                ; [#uses=1 type=i128] [debug line = 3379:0]
  store i128 %18, i128* %16, !dbg !7039           ; [debug line = 3379:0]
  call void @llvm.dbg.declare(metadata !{%struct.ap_int_base* %agg.result}, metadata !7041), !dbg !7039 ; [debug line = 3379:0] [debug variable = r]
  call void @_ZN11ap_int_baseILi128ELb0ELb0EEC1Ev(%struct.ap_int_base* %agg.result), !dbg !7039 ; [debug line = 3379:0]
  %19 = bitcast %struct.ap_int_base* %lhs to %struct.ssdm_int*, !dbg !7039 ; [#uses=1 type=%struct.ssdm_int*] [debug line = 3379:0]
  %20 = getelementptr inbounds %struct.ssdm_int* %19, i32 0, i32 0, !dbg !7039 ; [#uses=1 type=i128*] [debug line = 3379:0]
  %21 = load i128* %20, align 16, !dbg !7039      ; [#uses=1 type=i128] [debug line = 3379:0]
  %22 = bitcast %struct.ap_int_base* %rhs to %struct.ssdm_int*, !dbg !7039 ; [#uses=1 type=%struct.ssdm_int*] [debug line = 3379:0]
  %23 = getelementptr inbounds %struct.ssdm_int* %22, i32 0, i32 0, !dbg !7039 ; [#uses=1 type=i128*] [debug line = 3379:0]
  %24 = load i128* %23, align 16, !dbg !7039      ; [#uses=1 type=i128] [debug line = 3379:0]
  %25 = xor i128 %21, %24, !dbg !7039             ; [#uses=1 type=i128] [debug line = 3379:0]
  %26 = bitcast %struct.ap_int_base* %agg.result to %struct.ssdm_int*, !dbg !7039 ; [#uses=1 type=%struct.ssdm_int*] [debug line = 3379:0]
  %27 = getelementptr inbounds %struct.ssdm_int* %26, i32 0, i32 0, !dbg !7039 ; [#uses=1 type=i128*] [debug line = 3379:0]
  store i128 %25, i128* %27, align 16, !dbg !7039 ; [debug line = 3379:0]
  ret void, !dbg !7039                            ; [debug line = 3379:0]
}

; [#uses=5]
declare void @_ssdm_RegionEnd(...) nounwind

; [#uses=1]
define linkonce_odr void @_ZN7ap_uintILi128EEC2ILi128ELb0EEERK11ap_int_baseIXT_EXT0_EXleT_Li64EEE(%struct.ap_uint* %this, %struct.ap_int_base* %op) unnamed_addr nounwind uwtable inlinehint alwaysinline align 2 {
  %1 = alloca %struct.ap_uint*, align 8           ; [#uses=2 type=%struct.ap_uint**]
  %2 = alloca %struct.ap_int_base*, align 8       ; [#uses=2 type=%struct.ap_int_base**]
  store %struct.ap_uint* %this, %struct.ap_uint** %1, align 8
  call void @llvm.dbg.declare(metadata !{%struct.ap_uint** %1}, metadata !7043), !dbg !7044 ; [debug line = 228:43] [debug variable = this]
  store %struct.ap_int_base* %op, %struct.ap_int_base** %2, align 8
  call void @llvm.dbg.declare(metadata !{%struct.ap_int_base** %2}, metadata !7045), !dbg !7046 ; [debug line = 228:86] [debug variable = op]
  %3 = load %struct.ap_uint** %1                  ; [#uses=2 type=%struct.ap_uint*]
  %4 = bitcast %struct.ap_uint* %3 to %struct.ap_int_base*, !dbg !7047 ; [#uses=1 type=%struct.ap_int_base*] [debug line = 228:89]
  call void @_ZN11ap_int_baseILi128ELb0ELb0EEC2Ev(%struct.ap_int_base* %4), !dbg !7047 ; [debug line = 228:89]
  %5 = load %struct.ap_int_base** %2, align 8, !dbg !7048 ; [#uses=1 type=%struct.ap_int_base*] [debug line = 228:91]
  %6 = bitcast %struct.ap_int_base* %5 to %struct.ssdm_int*, !dbg !7048 ; [#uses=1 type=%struct.ssdm_int*] [debug line = 228:91]
  %7 = getelementptr inbounds %struct.ssdm_int* %6, i32 0, i32 0, !dbg !7048 ; [#uses=1 type=i128*] [debug line = 228:91]
  %8 = load i128* %7, align 16, !dbg !7048        ; [#uses=1 type=i128] [debug line = 228:91]
  %9 = bitcast %struct.ap_uint* %3 to %struct.ap_int_base*, !dbg !7048 ; [#uses=1 type=%struct.ap_int_base*] [debug line = 228:91]
  %10 = bitcast %struct.ap_int_base* %9 to %struct.ssdm_int*, !dbg !7048 ; [#uses=1 type=%struct.ssdm_int*] [debug line = 228:91]
  %11 = getelementptr inbounds %struct.ssdm_int* %10, i32 0, i32 0, !dbg !7048 ; [#uses=1 type=i128*] [debug line = 228:91]
  store i128 %8, i128* %11, align 16, !dbg !7048  ; [debug line = 228:91]
  ret void, !dbg !7050                            ; [debug line = 228:106]
}

; [#uses=4]
define linkonce_odr void @_ZN11ap_int_baseILi128ELb0ELb0EEC2Ev(%struct.ap_int_base* %this) unnamed_addr nounwind uwtable inlinehint alwaysinline align 2 {
  %1 = alloca %struct.ap_int_base*, align 8       ; [#uses=2 type=%struct.ap_int_base**]
  store %struct.ap_int_base* %this, %struct.ap_int_base** %1, align 8
  call void @llvm.dbg.declare(metadata !{%struct.ap_int_base** %1}, metadata !7051), !dbg !7053 ; [debug line = 2381:42] [debug variable = this]
  %2 = load %struct.ap_int_base** %1              ; [#uses=1 type=%struct.ap_int_base*]
  %3 = bitcast %struct.ap_int_base* %2 to %struct.ssdm_int*, !dbg !7054 ; [#uses=1 type=%struct.ssdm_int*] [debug line = 2381:56]
  call void @_ZN8ssdm_intILi128ELb0EEC2Ev(%struct.ssdm_int* %3), !dbg !7054 ; [debug line = 2381:56]
  ret void, !dbg !7055                            ; [debug line = 2387:4]
}

; [#uses=2]
define linkonce_odr void @_ZN8ssdm_intILi128ELb0EEC2Ev(%struct.ssdm_int* %this) unnamed_addr nounwind uwtable inlinehint alwaysinline align 2 {
  %1 = alloca %struct.ssdm_int*, align 8          ; [#uses=2 type=%struct.ssdm_int**]
  store %struct.ssdm_int* %this, %struct.ssdm_int** %1, align 8
  call void @llvm.dbg.declare(metadata !{%struct.ssdm_int** %1}, metadata !7057), !dbg !7059 ; [debug line = 136:0] [debug variable = this]
  %2 = load %struct.ssdm_int** %1                 ; [#uses=0 type=%struct.ssdm_int*]
  ret void, !dbg !7060                            ; [debug line = 136:0]
}

; [#uses=1]
define linkonce_odr void @_ZN11ap_int_baseILi128ELb0ELb0EEC1Ev(%struct.ap_int_base* %this) unnamed_addr nounwind uwtable inlinehint alwaysinline align 2 {
  %1 = alloca %struct.ap_int_base*, align 8       ; [#uses=2 type=%struct.ap_int_base**]
  store %struct.ap_int_base* %this, %struct.ap_int_base** %1, align 8
  call void @llvm.dbg.declare(metadata !{%struct.ap_int_base** %1}, metadata !7062), !dbg !7063 ; [debug line = 2381:42] [debug variable = this]
  %2 = load %struct.ap_int_base** %1              ; [#uses=1 type=%struct.ap_int_base*]
  call void @_ZN11ap_int_baseILi128ELb0ELb0EEC2Ev(%struct.ap_int_base* %2), !dbg !7064 ; [debug line = 2387:4]
  ret void, !dbg !7064                            ; [debug line = 2387:4]
}

; [#uses=1]
define linkonce_odr void @_ZN7ap_uintILi128EEC2ILi131ELb1EEERK11ap_int_baseIXT_EXT0_EXleT_Li64EEE(%struct.ap_uint* %this, %struct.ap_int_base.0* %op) unnamed_addr nounwind uwtable inlinehint alwaysinline align 2 {
  %1 = alloca %struct.ap_uint*, align 8           ; [#uses=2 type=%struct.ap_uint**]
  %2 = alloca %struct.ap_int_base.0*, align 8     ; [#uses=2 type=%struct.ap_int_base.0**]
  store %struct.ap_uint* %this, %struct.ap_uint** %1, align 8
  call void @llvm.dbg.declare(metadata !{%struct.ap_uint** %1}, metadata !7065), !dbg !7066 ; [debug line = 228:43] [debug variable = this]
  store %struct.ap_int_base.0* %op, %struct.ap_int_base.0** %2, align 8
  call void @llvm.dbg.declare(metadata !{%struct.ap_int_base.0** %2}, metadata !7067), !dbg !7068 ; [debug line = 228:86] [debug variable = op]
  %3 = load %struct.ap_uint** %1                  ; [#uses=2 type=%struct.ap_uint*]
  %4 = bitcast %struct.ap_uint* %3 to %struct.ap_int_base*, !dbg !7069 ; [#uses=1 type=%struct.ap_int_base*] [debug line = 228:89]
  call void @_ZN11ap_int_baseILi128ELb0ELb0EEC2Ev(%struct.ap_int_base* %4), !dbg !7069 ; [debug line = 228:89]
  %5 = load %struct.ap_int_base.0** %2, align 8, !dbg !7070 ; [#uses=1 type=%struct.ap_int_base.0*] [debug line = 228:91]
  %6 = bitcast %struct.ap_int_base.0* %5 to %struct.ssdm_int.1*, !dbg !7070 ; [#uses=1 type=%struct.ssdm_int.1*] [debug line = 228:91]
  %7 = getelementptr inbounds %struct.ssdm_int.1* %6, i32 0, i32 0, !dbg !7070 ; [#uses=1 type=i131*] [debug line = 228:91]
  %8 = load i131* %7, align 8, !dbg !7070         ; [#uses=1 type=i131] [debug line = 228:91]
  %9 = trunc i131 %8 to i128, !dbg !7070          ; [#uses=1 type=i128] [debug line = 228:91]
  %10 = bitcast %struct.ap_uint* %3 to %struct.ap_int_base*, !dbg !7070 ; [#uses=1 type=%struct.ap_int_base*] [debug line = 228:91]
  %11 = bitcast %struct.ap_int_base* %10 to %struct.ssdm_int*, !dbg !7070 ; [#uses=1 type=%struct.ssdm_int*] [debug line = 228:91]
  %12 = getelementptr inbounds %struct.ssdm_int* %11, i32 0, i32 0, !dbg !7070 ; [#uses=1 type=i128*] [debug line = 228:91]
  store i128 %9, i128* %12, align 16, !dbg !7070  ; [debug line = 228:91]
  ret void, !dbg !7072                            ; [debug line = 228:106]
}

; [#uses=1]
define linkonce_odr void @_ZplILi130ELb1ELi32ELb1EEN11ap_int_baseIXT_EXT0_EXleT_Li64EEE5RTypeIXT1_EXT2_EE4plusERKS1_RKS0_IXT1_EXT2_EXleT1_Li64EEE(%struct.ap_int_base.0* noalias sret %agg.result, %struct.ap_int_base.2* %op, %struct.ap_int_base.13* %op2) nounwind uwtable inlinehint alwaysinline {
  %1 = alloca %struct.ap_int_base.2*, align 8     ; [#uses=2 type=%struct.ap_int_base.2**]
  %2 = alloca %struct.ap_int_base.13*, align 8    ; [#uses=2 type=%struct.ap_int_base.13**]
  %lhs = alloca %struct.ap_int_base.0, align 8    ; [#uses=2 type=%struct.ap_int_base.0*]
  %rhs = alloca %struct.ap_int_base.0, align 8    ; [#uses=2 type=%struct.ap_int_base.0*]
  store %struct.ap_int_base.2* %op, %struct.ap_int_base.2** %1, align 8
  call void @llvm.dbg.declare(metadata !{%struct.ap_int_base.2** %1}, metadata !7073), !dbg !7074 ; [debug line = 3369:216] [debug variable = op]
  store %struct.ap_int_base.13* %op2, %struct.ap_int_base.13** %2, align 8
  call void @llvm.dbg.declare(metadata !{%struct.ap_int_base.13** %2}, metadata !7075), !dbg !7076 ; [debug line = 3369:254] [debug variable = op2]
  call void @llvm.dbg.declare(metadata !{%struct.ap_int_base.0* %lhs}, metadata !7077), !dbg !7079 ; [debug line = 3369:0] [debug variable = lhs]
  %3 = load %struct.ap_int_base.2** %1, align 8, !dbg !7079 ; [#uses=1 type=%struct.ap_int_base.2*] [debug line = 3369:0]
  call void @_ZN11ap_int_baseILi131ELb1ELb0EEC1ILi130ELb1EEERKS_IXT_EXT0_EXleT_Li64EEE(%struct.ap_int_base.0* %lhs, %struct.ap_int_base.2* %3), !dbg !7079 ; [debug line = 3369:0]
  call void @llvm.dbg.declare(metadata !{%struct.ap_int_base.0* %rhs}, metadata !7080), !dbg !7079 ; [debug line = 3369:0] [debug variable = rhs]
  %4 = load %struct.ap_int_base.13** %2, align 8, !dbg !7079 ; [#uses=1 type=%struct.ap_int_base.13*] [debug line = 3369:0]
  call void @_ZN11ap_int_baseILi131ELb1ELb0EEC1ILi32ELb1EEERKS_IXT_EXT0_EXleT_Li64EEE(%struct.ap_int_base.0* %rhs, %struct.ap_int_base.13* %4), !dbg !7079 ; [debug line = 3369:0]
  call void @llvm.dbg.declare(metadata !{%struct.ap_int_base.0* %agg.result}, metadata !7081), !dbg !7079 ; [debug line = 3369:0] [debug variable = r]
  call void @_ZN11ap_int_baseILi131ELb1ELb0EEC1Ev(%struct.ap_int_base.0* %agg.result), !dbg !7079 ; [debug line = 3369:0]
  %5 = bitcast %struct.ap_int_base.0* %lhs to %struct.ssdm_int.1*, !dbg !7079 ; [#uses=1 type=%struct.ssdm_int.1*] [debug line = 3369:0]
  %6 = getelementptr inbounds %struct.ssdm_int.1* %5, i32 0, i32 0, !dbg !7079 ; [#uses=1 type=i131*] [debug line = 3369:0]
  %7 = load i131* %6, align 8, !dbg !7079         ; [#uses=1 type=i131] [debug line = 3369:0]
  %8 = bitcast %struct.ap_int_base.0* %rhs to %struct.ssdm_int.1*, !dbg !7079 ; [#uses=1 type=%struct.ssdm_int.1*] [debug line = 3369:0]
  %9 = getelementptr inbounds %struct.ssdm_int.1* %8, i32 0, i32 0, !dbg !7079 ; [#uses=1 type=i131*] [debug line = 3369:0]
  %10 = load i131* %9, align 8, !dbg !7079        ; [#uses=1 type=i131] [debug line = 3369:0]
  %11 = add nsw i131 %7, %10, !dbg !7079          ; [#uses=1 type=i131] [debug line = 3369:0]
  %12 = bitcast %struct.ap_int_base.0* %agg.result to %struct.ssdm_int.1*, !dbg !7079 ; [#uses=1 type=%struct.ssdm_int.1*] [debug line = 3369:0]
  %13 = getelementptr inbounds %struct.ssdm_int.1* %12, i32 0, i32 0, !dbg !7079 ; [#uses=1 type=i131*] [debug line = 3369:0]
  store i131 %11, i131* %13, align 8, !dbg !7079  ; [debug line = 3369:0]
  ret void, !dbg !7079                            ; [debug line = 3369:0]
}

; [#uses=2]
define linkonce_odr void @_ZN11ap_int_baseILi32ELb1ELb1EEC1Ei(%struct.ap_int_base.13* %this, i32 %op) unnamed_addr nounwind uwtable inlinehint alwaysinline align 2 {
  %1 = alloca %struct.ap_int_base.13*, align 8    ; [#uses=2 type=%struct.ap_int_base.13**]
  %2 = alloca i32, align 4                        ; [#uses=2 type=i32*]
  store %struct.ap_int_base.13* %this, %struct.ap_int_base.13** %1, align 8
  call void @llvm.dbg.declare(metadata !{%struct.ap_int_base.13** %1}, metadata !7083), !dbg !7085 ; [debug line = 1466:52] [debug variable = this]
  store i32 %op, i32* %2, align 4
  call void @llvm.dbg.declare(metadata !{i32* %2}, metadata !7086), !dbg !7087 ; [debug line = 1466:68] [debug variable = op]
  %3 = load %struct.ap_int_base.13** %1           ; [#uses=1 type=%struct.ap_int_base.13*]
  %4 = load i32* %2, align 4, !dbg !7088          ; [#uses=1 type=i32] [debug line = 1466:88]
  call void @_ZN11ap_int_baseILi32ELb1ELb1EEC2Ei(%struct.ap_int_base.13* %3, i32 %4), !dbg !7088 ; [debug line = 1466:88]
  ret void, !dbg !7088                            ; [debug line = 1466:88]
}

; [#uses=1]
define linkonce_odr void @_ZN11ap_int_baseILi32ELb1ELb1EEC2Ei(%struct.ap_int_base.13* %this, i32 %op) unnamed_addr nounwind uwtable inlinehint alwaysinline align 2 {
  %1 = alloca %struct.ap_int_base.13*, align 8    ; [#uses=2 type=%struct.ap_int_base.13**]
  %2 = alloca i32, align 4                        ; [#uses=2 type=i32*]
  store %struct.ap_int_base.13* %this, %struct.ap_int_base.13** %1, align 8
  call void @llvm.dbg.declare(metadata !{%struct.ap_int_base.13** %1}, metadata !7089), !dbg !7090 ; [debug line = 1466:52] [debug variable = this]
  store i32 %op, i32* %2, align 4
  call void @llvm.dbg.declare(metadata !{i32* %2}, metadata !7091), !dbg !7092 ; [debug line = 1466:68] [debug variable = op]
  %3 = load %struct.ap_int_base.13** %1           ; [#uses=2 type=%struct.ap_int_base.13*]
  %4 = bitcast %struct.ap_int_base.13* %3 to %struct.ssdm_int.14*, !dbg !7093 ; [#uses=1 type=%struct.ssdm_int.14*] [debug line = 1466:72]
  call void @_ZN8ssdm_intILi32ELb1EEC2Ev(%struct.ssdm_int.14* %4), !dbg !7093 ; [debug line = 1466:72]
  %5 = load i32* %2, align 4, !dbg !7094          ; [#uses=1 type=i32] [debug line = 1466:74]
  %6 = bitcast %struct.ap_int_base.13* %3 to %struct.ssdm_int.14*, !dbg !7094 ; [#uses=1 type=%struct.ssdm_int.14*] [debug line = 1466:74]
  %7 = getelementptr inbounds %struct.ssdm_int.14* %6, i32 0, i32 0, !dbg !7094 ; [#uses=1 type=i32*] [debug line = 1466:74]
  store i32 %5, i32* %7, align 4, !dbg !7094      ; [debug line = 1466:74]
  ret void, !dbg !7096                            ; [debug line = 1466:88]
}

; [#uses=1]
define linkonce_odr void @_ZN8ssdm_intILi32ELb1EEC2Ev(%struct.ssdm_int.14* %this) unnamed_addr nounwind uwtable inlinehint alwaysinline align 2 {
  %1 = alloca %struct.ssdm_int.14*, align 8       ; [#uses=2 type=%struct.ssdm_int.14**]
  store %struct.ssdm_int.14* %this, %struct.ssdm_int.14** %1, align 8
  call void @llvm.dbg.declare(metadata !{%struct.ssdm_int.14** %1}, metadata !7097), !dbg !7099 ; [debug line = 34:137] [debug variable = this]
  %2 = load %struct.ssdm_int.14** %1              ; [#uses=0 type=%struct.ssdm_int.14*]
  ret void, !dbg !7100                            ; [debug line = 34:171]
}

; [#uses=1]
define linkonce_odr void @_ZN11ap_int_baseILi131ELb1ELb0EEC1ILi130ELb1EEERKS_IXT_EXT0_EXleT_Li64EEE(%struct.ap_int_base.0* %this, %struct.ap_int_base.2* %op) unnamed_addr nounwind uwtable inlinehint alwaysinline align 2 {
  %1 = alloca %struct.ap_int_base.0*, align 8     ; [#uses=2 type=%struct.ap_int_base.0**]
  %2 = alloca %struct.ap_int_base.2*, align 8     ; [#uses=2 type=%struct.ap_int_base.2**]
  store %struct.ap_int_base.0* %this, %struct.ap_int_base.0** %1, align 8
  call void @llvm.dbg.declare(metadata !{%struct.ap_int_base.0** %1}, metadata !7102), !dbg !7104 ; [debug line = 2393:43] [debug variable = this]
  store %struct.ap_int_base.2* %op, %struct.ap_int_base.2** %2, align 8
  call void @llvm.dbg.declare(metadata !{%struct.ap_int_base.2** %2}, metadata !7105), !dbg !7106 ; [debug line = 2393:89] [debug variable = op]
  %3 = load %struct.ap_int_base.0** %1            ; [#uses=1 type=%struct.ap_int_base.0*]
  %4 = load %struct.ap_int_base.2** %2, !dbg !7107 ; [#uses=1 type=%struct.ap_int_base.2*] [debug line = 2393:111]
  call void @_ZN11ap_int_baseILi131ELb1ELb0EEC2ILi130ELb1EEERKS_IXT_EXT0_EXleT_Li64EEE(%struct.ap_int_base.0* %3, %struct.ap_int_base.2* %4), !dbg !7107 ; [debug line = 2393:111]
  ret void, !dbg !7107                            ; [debug line = 2393:111]
}

; [#uses=1]
define linkonce_odr void @_ZN11ap_int_baseILi131ELb1ELb0EEC1ILi32ELb1EEERKS_IXT_EXT0_EXleT_Li64EEE(%struct.ap_int_base.0* %this, %struct.ap_int_base.13* %op) unnamed_addr nounwind uwtable inlinehint alwaysinline align 2 {
  %1 = alloca %struct.ap_int_base.0*, align 8     ; [#uses=2 type=%struct.ap_int_base.0**]
  %2 = alloca %struct.ap_int_base.13*, align 8    ; [#uses=2 type=%struct.ap_int_base.13**]
  store %struct.ap_int_base.0* %this, %struct.ap_int_base.0** %1, align 8
  call void @llvm.dbg.declare(metadata !{%struct.ap_int_base.0** %1}, metadata !7108), !dbg !7109 ; [debug line = 2393:43] [debug variable = this]
  store %struct.ap_int_base.13* %op, %struct.ap_int_base.13** %2, align 8
  call void @llvm.dbg.declare(metadata !{%struct.ap_int_base.13** %2}, metadata !7110), !dbg !7111 ; [debug line = 2393:89] [debug variable = op]
  %3 = load %struct.ap_int_base.0** %1            ; [#uses=1 type=%struct.ap_int_base.0*]
  %4 = load %struct.ap_int_base.13** %2, !dbg !7112 ; [#uses=1 type=%struct.ap_int_base.13*] [debug line = 2393:111]
  call void @_ZN11ap_int_baseILi131ELb1ELb0EEC2ILi32ELb1EEERKS_IXT_EXT0_EXleT_Li64EEE(%struct.ap_int_base.0* %3, %struct.ap_int_base.13* %4), !dbg !7112 ; [debug line = 2393:111]
  ret void, !dbg !7112                            ; [debug line = 2393:111]
}

; [#uses=1]
define linkonce_odr void @_ZN11ap_int_baseILi131ELb1ELb0EEC1Ev(%struct.ap_int_base.0* %this) unnamed_addr nounwind uwtable inlinehint alwaysinline align 2 {
  %1 = alloca %struct.ap_int_base.0*, align 8     ; [#uses=2 type=%struct.ap_int_base.0**]
  store %struct.ap_int_base.0* %this, %struct.ap_int_base.0** %1, align 8
  call void @llvm.dbg.declare(metadata !{%struct.ap_int_base.0** %1}, metadata !7113), !dbg !7114 ; [debug line = 2381:42] [debug variable = this]
  %2 = load %struct.ap_int_base.0** %1            ; [#uses=1 type=%struct.ap_int_base.0*]
  call void @_ZN11ap_int_baseILi131ELb1ELb0EEC2Ev(%struct.ap_int_base.0* %2), !dbg !7115 ; [debug line = 2387:4]
  ret void, !dbg !7115                            ; [debug line = 2387:4]
}

; [#uses=1]
define linkonce_odr void @_ZN11ap_int_baseILi131ELb1ELb0EEC2Ev(%struct.ap_int_base.0* %this) unnamed_addr nounwind uwtable inlinehint alwaysinline align 2 {
  %1 = alloca %struct.ap_int_base.0*, align 8     ; [#uses=2 type=%struct.ap_int_base.0**]
  store %struct.ap_int_base.0* %this, %struct.ap_int_base.0** %1, align 8
  call void @llvm.dbg.declare(metadata !{%struct.ap_int_base.0** %1}, metadata !7116), !dbg !7117 ; [debug line = 2381:42] [debug variable = this]
  %2 = load %struct.ap_int_base.0** %1            ; [#uses=1 type=%struct.ap_int_base.0*]
  %3 = bitcast %struct.ap_int_base.0* %2 to %struct.ssdm_int.1*, !dbg !7118 ; [#uses=1 type=%struct.ssdm_int.1*] [debug line = 2381:56]
  call void @_ZN8ssdm_intILi131ELb1EEC2Ev(%struct.ssdm_int.1* %3), !dbg !7118 ; [debug line = 2381:56]
  ret void, !dbg !7119                            ; [debug line = 2387:4]
}

; [#uses=3]
define linkonce_odr void @_ZN8ssdm_intILi131ELb1EEC2Ev(%struct.ssdm_int.1* %this) unnamed_addr nounwind uwtable inlinehint alwaysinline align 2 {
  %1 = alloca %struct.ssdm_int.1*, align 8        ; [#uses=2 type=%struct.ssdm_int.1**]
  store %struct.ssdm_int.1* %this, %struct.ssdm_int.1** %1, align 8
  call void @llvm.dbg.declare(metadata !{%struct.ssdm_int.1** %1}, metadata !7121), !dbg !7123 ; [debug line = 145:139] [debug variable = this]
  %2 = load %struct.ssdm_int.1** %1               ; [#uses=0 type=%struct.ssdm_int.1*]
  ret void, !dbg !7124                            ; [debug line = 145:174]
}

; [#uses=1]
define linkonce_odr void @_ZN11ap_int_baseILi131ELb1ELb0EEC2ILi32ELb1EEERKS_IXT_EXT0_EXleT_Li64EEE(%struct.ap_int_base.0* %this, %struct.ap_int_base.13* %op) unnamed_addr nounwind uwtable inlinehint alwaysinline align 2 {
  %1 = alloca %struct.ap_int_base.0*, align 8     ; [#uses=2 type=%struct.ap_int_base.0**]
  %2 = alloca %struct.ap_int_base.13*, align 8    ; [#uses=2 type=%struct.ap_int_base.13**]
  store %struct.ap_int_base.0* %this, %struct.ap_int_base.0** %1, align 8
  call void @llvm.dbg.declare(metadata !{%struct.ap_int_base.0** %1}, metadata !7126), !dbg !7127 ; [debug line = 2393:43] [debug variable = this]
  store %struct.ap_int_base.13* %op, %struct.ap_int_base.13** %2, align 8
  call void @llvm.dbg.declare(metadata !{%struct.ap_int_base.13** %2}, metadata !7128), !dbg !7129 ; [debug line = 2393:89] [debug variable = op]
  %3 = load %struct.ap_int_base.0** %1            ; [#uses=2 type=%struct.ap_int_base.0*]
  %4 = bitcast %struct.ap_int_base.0* %3 to %struct.ssdm_int.1*, !dbg !7130 ; [#uses=1 type=%struct.ssdm_int.1*] [debug line = 2393:93]
  call void @_ZN8ssdm_intILi131ELb1EEC2Ev(%struct.ssdm_int.1* %4), !dbg !7130 ; [debug line = 2393:93]
  %5 = load %struct.ap_int_base.13** %2, align 8, !dbg !7131 ; [#uses=1 type=%struct.ap_int_base.13*] [debug line = 2393:95]
  %6 = bitcast %struct.ap_int_base.13* %5 to %struct.ssdm_int.14*, !dbg !7131 ; [#uses=1 type=%struct.ssdm_int.14*] [debug line = 2393:95]
  %7 = getelementptr inbounds %struct.ssdm_int.14* %6, i32 0, i32 0, !dbg !7131 ; [#uses=1 type=i32*] [debug line = 2393:95]
  %8 = load i32* %7, align 4, !dbg !7131          ; [#uses=1 type=i32] [debug line = 2393:95]
  %9 = sext i32 %8 to i131, !dbg !7131            ; [#uses=1 type=i131] [debug line = 2393:95]
  %10 = bitcast %struct.ap_int_base.0* %3 to %struct.ssdm_int.1*, !dbg !7131 ; [#uses=1 type=%struct.ssdm_int.1*] [debug line = 2393:95]
  %11 = getelementptr inbounds %struct.ssdm_int.1* %10, i32 0, i32 0, !dbg !7131 ; [#uses=1 type=i131*] [debug line = 2393:95]
  store i131 %9, i131* %11, align 8, !dbg !7131   ; [debug line = 2393:95]
  ret void, !dbg !7133                            ; [debug line = 2393:111]
}

; [#uses=1]
define linkonce_odr void @_ZN11ap_int_baseILi131ELb1ELb0EEC2ILi130ELb1EEERKS_IXT_EXT0_EXleT_Li64EEE(%struct.ap_int_base.0* %this, %struct.ap_int_base.2* %op) unnamed_addr nounwind uwtable inlinehint alwaysinline align 2 {
  %1 = alloca %struct.ap_int_base.0*, align 8     ; [#uses=2 type=%struct.ap_int_base.0**]
  %2 = alloca %struct.ap_int_base.2*, align 8     ; [#uses=2 type=%struct.ap_int_base.2**]
  store %struct.ap_int_base.0* %this, %struct.ap_int_base.0** %1, align 8
  call void @llvm.dbg.declare(metadata !{%struct.ap_int_base.0** %1}, metadata !7134), !dbg !7135 ; [debug line = 2393:43] [debug variable = this]
  store %struct.ap_int_base.2* %op, %struct.ap_int_base.2** %2, align 8
  call void @llvm.dbg.declare(metadata !{%struct.ap_int_base.2** %2}, metadata !7136), !dbg !7137 ; [debug line = 2393:89] [debug variable = op]
  %3 = load %struct.ap_int_base.0** %1            ; [#uses=2 type=%struct.ap_int_base.0*]
  %4 = bitcast %struct.ap_int_base.0* %3 to %struct.ssdm_int.1*, !dbg !7138 ; [#uses=1 type=%struct.ssdm_int.1*] [debug line = 2393:93]
  call void @_ZN8ssdm_intILi131ELb1EEC2Ev(%struct.ssdm_int.1* %4), !dbg !7138 ; [debug line = 2393:93]
  %5 = load %struct.ap_int_base.2** %2, align 8, !dbg !7139 ; [#uses=1 type=%struct.ap_int_base.2*] [debug line = 2393:95]
  %6 = bitcast %struct.ap_int_base.2* %5 to %struct.ssdm_int.3*, !dbg !7139 ; [#uses=1 type=%struct.ssdm_int.3*] [debug line = 2393:95]
  %7 = getelementptr inbounds %struct.ssdm_int.3* %6, i32 0, i32 0, !dbg !7139 ; [#uses=1 type=i130*] [debug line = 2393:95]
  %8 = load i130* %7, align 8, !dbg !7139         ; [#uses=1 type=i130] [debug line = 2393:95]
  %9 = sext i130 %8 to i131, !dbg !7139           ; [#uses=1 type=i131] [debug line = 2393:95]
  %10 = bitcast %struct.ap_int_base.0* %3 to %struct.ssdm_int.1*, !dbg !7139 ; [#uses=1 type=%struct.ssdm_int.1*] [debug line = 2393:95]
  %11 = getelementptr inbounds %struct.ssdm_int.1* %10, i32 0, i32 0, !dbg !7139 ; [#uses=1 type=i131*] [debug line = 2393:95]
  store i131 %9, i131* %11, align 8, !dbg !7139   ; [debug line = 2393:95]
  ret void, !dbg !7141                            ; [debug line = 2393:111]
}

; [#uses=1]
define linkonce_odr void @_ZplILi128ELb0ELi32ELb1EEN11ap_int_baseIXT_EXT0_EXleT_Li64EEE5RTypeIXT1_EXT2_EE4plusERKS1_RKS0_IXT1_EXT2_EXleT1_Li64EEE(%struct.ap_int_base.2* noalias sret %agg.result, %struct.ap_int_base* %op, %struct.ap_int_base.13* %op2) nounwind uwtable inlinehint alwaysinline {
  %1 = alloca %struct.ap_int_base*, align 8       ; [#uses=2 type=%struct.ap_int_base**]
  %2 = alloca %struct.ap_int_base.13*, align 8    ; [#uses=2 type=%struct.ap_int_base.13**]
  %lhs = alloca %struct.ap_int_base.2, align 8    ; [#uses=2 type=%struct.ap_int_base.2*]
  %rhs = alloca %struct.ap_int_base.2, align 8    ; [#uses=2 type=%struct.ap_int_base.2*]
  store %struct.ap_int_base* %op, %struct.ap_int_base** %1, align 8
  call void @llvm.dbg.declare(metadata !{%struct.ap_int_base** %1}, metadata !7142), !dbg !7143 ; [debug line = 3369:216] [debug variable = op]
  store %struct.ap_int_base.13* %op2, %struct.ap_int_base.13** %2, align 8
  call void @llvm.dbg.declare(metadata !{%struct.ap_int_base.13** %2}, metadata !7144), !dbg !7145 ; [debug line = 3369:254] [debug variable = op2]
  call void @llvm.dbg.declare(metadata !{%struct.ap_int_base.2* %lhs}, metadata !7146), !dbg !7148 ; [debug line = 3369:0] [debug variable = lhs]
  %3 = load %struct.ap_int_base** %1, align 8, !dbg !7148 ; [#uses=1 type=%struct.ap_int_base*] [debug line = 3369:0]
  call void @_ZN11ap_int_baseILi130ELb1ELb0EEC1ILi128ELb0EEERKS_IXT_EXT0_EXleT_Li64EEE(%struct.ap_int_base.2* %lhs, %struct.ap_int_base* %3), !dbg !7148 ; [debug line = 3369:0]
  call void @llvm.dbg.declare(metadata !{%struct.ap_int_base.2* %rhs}, metadata !7149), !dbg !7148 ; [debug line = 3369:0] [debug variable = rhs]
  %4 = load %struct.ap_int_base.13** %2, align 8, !dbg !7148 ; [#uses=1 type=%struct.ap_int_base.13*] [debug line = 3369:0]
  call void @_ZN11ap_int_baseILi130ELb1ELb0EEC1ILi32ELb1EEERKS_IXT_EXT0_EXleT_Li64EEE(%struct.ap_int_base.2* %rhs, %struct.ap_int_base.13* %4), !dbg !7148 ; [debug line = 3369:0]
  call void @llvm.dbg.declare(metadata !{%struct.ap_int_base.2* %agg.result}, metadata !7150), !dbg !7148 ; [debug line = 3369:0] [debug variable = r]
  call void @_ZN11ap_int_baseILi130ELb1ELb0EEC1Ev(%struct.ap_int_base.2* %agg.result), !dbg !7148 ; [debug line = 3369:0]
  %5 = bitcast %struct.ap_int_base.2* %lhs to %struct.ssdm_int.3*, !dbg !7148 ; [#uses=1 type=%struct.ssdm_int.3*] [debug line = 3369:0]
  %6 = getelementptr inbounds %struct.ssdm_int.3* %5, i32 0, i32 0, !dbg !7148 ; [#uses=1 type=i130*] [debug line = 3369:0]
  %7 = load i130* %6, align 8, !dbg !7148         ; [#uses=1 type=i130] [debug line = 3369:0]
  %8 = bitcast %struct.ap_int_base.2* %rhs to %struct.ssdm_int.3*, !dbg !7148 ; [#uses=1 type=%struct.ssdm_int.3*] [debug line = 3369:0]
  %9 = getelementptr inbounds %struct.ssdm_int.3* %8, i32 0, i32 0, !dbg !7148 ; [#uses=1 type=i130*] [debug line = 3369:0]
  %10 = load i130* %9, align 8, !dbg !7148        ; [#uses=1 type=i130] [debug line = 3369:0]
  %11 = add nsw i130 %7, %10, !dbg !7148          ; [#uses=1 type=i130] [debug line = 3369:0]
  %12 = bitcast %struct.ap_int_base.2* %agg.result to %struct.ssdm_int.3*, !dbg !7148 ; [#uses=1 type=%struct.ssdm_int.3*] [debug line = 3369:0]
  %13 = getelementptr inbounds %struct.ssdm_int.3* %12, i32 0, i32 0, !dbg !7148 ; [#uses=1 type=i130*] [debug line = 3369:0]
  store i130 %11, i130* %13, align 8, !dbg !7148  ; [debug line = 3369:0]
  ret void, !dbg !7148                            ; [debug line = 3369:0]
}

; [#uses=1]
define linkonce_odr void @_ZN11ap_int_baseILi130ELb1ELb0EEC1ILi128ELb0EEERKS_IXT_EXT0_EXleT_Li64EEE(%struct.ap_int_base.2* %this, %struct.ap_int_base* %op) unnamed_addr nounwind uwtable inlinehint alwaysinline align 2 {
  %1 = alloca %struct.ap_int_base.2*, align 8     ; [#uses=2 type=%struct.ap_int_base.2**]
  %2 = alloca %struct.ap_int_base*, align 8       ; [#uses=2 type=%struct.ap_int_base**]
  store %struct.ap_int_base.2* %this, %struct.ap_int_base.2** %1, align 8
  call void @llvm.dbg.declare(metadata !{%struct.ap_int_base.2** %1}, metadata !7152), !dbg !7154 ; [debug line = 2393:43] [debug variable = this]
  store %struct.ap_int_base* %op, %struct.ap_int_base** %2, align 8
  call void @llvm.dbg.declare(metadata !{%struct.ap_int_base** %2}, metadata !7155), !dbg !7156 ; [debug line = 2393:89] [debug variable = op]
  %3 = load %struct.ap_int_base.2** %1            ; [#uses=1 type=%struct.ap_int_base.2*]
  %4 = load %struct.ap_int_base** %2, !dbg !7157  ; [#uses=1 type=%struct.ap_int_base*] [debug line = 2393:111]
  call void @_ZN11ap_int_baseILi130ELb1ELb0EEC2ILi128ELb0EEERKS_IXT_EXT0_EXleT_Li64EEE(%struct.ap_int_base.2* %3, %struct.ap_int_base* %4), !dbg !7157 ; [debug line = 2393:111]
  ret void, !dbg !7157                            ; [debug line = 2393:111]
}

; [#uses=1]
define linkonce_odr void @_ZN11ap_int_baseILi130ELb1ELb0EEC1ILi32ELb1EEERKS_IXT_EXT0_EXleT_Li64EEE(%struct.ap_int_base.2* %this, %struct.ap_int_base.13* %op) unnamed_addr nounwind uwtable inlinehint alwaysinline align 2 {
  %1 = alloca %struct.ap_int_base.2*, align 8     ; [#uses=2 type=%struct.ap_int_base.2**]
  %2 = alloca %struct.ap_int_base.13*, align 8    ; [#uses=2 type=%struct.ap_int_base.13**]
  store %struct.ap_int_base.2* %this, %struct.ap_int_base.2** %1, align 8
  call void @llvm.dbg.declare(metadata !{%struct.ap_int_base.2** %1}, metadata !7158), !dbg !7159 ; [debug line = 2393:43] [debug variable = this]
  store %struct.ap_int_base.13* %op, %struct.ap_int_base.13** %2, align 8
  call void @llvm.dbg.declare(metadata !{%struct.ap_int_base.13** %2}, metadata !7160), !dbg !7161 ; [debug line = 2393:89] [debug variable = op]
  %3 = load %struct.ap_int_base.2** %1            ; [#uses=1 type=%struct.ap_int_base.2*]
  %4 = load %struct.ap_int_base.13** %2, !dbg !7162 ; [#uses=1 type=%struct.ap_int_base.13*] [debug line = 2393:111]
  call void @_ZN11ap_int_baseILi130ELb1ELb0EEC2ILi32ELb1EEERKS_IXT_EXT0_EXleT_Li64EEE(%struct.ap_int_base.2* %3, %struct.ap_int_base.13* %4), !dbg !7162 ; [debug line = 2393:111]
  ret void, !dbg !7162                            ; [debug line = 2393:111]
}

; [#uses=1]
define linkonce_odr void @_ZN11ap_int_baseILi130ELb1ELb0EEC1Ev(%struct.ap_int_base.2* %this) unnamed_addr nounwind uwtable inlinehint alwaysinline align 2 {
  %1 = alloca %struct.ap_int_base.2*, align 8     ; [#uses=2 type=%struct.ap_int_base.2**]
  store %struct.ap_int_base.2* %this, %struct.ap_int_base.2** %1, align 8
  call void @llvm.dbg.declare(metadata !{%struct.ap_int_base.2** %1}, metadata !7163), !dbg !7164 ; [debug line = 2381:42] [debug variable = this]
  %2 = load %struct.ap_int_base.2** %1            ; [#uses=1 type=%struct.ap_int_base.2*]
  call void @_ZN11ap_int_baseILi130ELb1ELb0EEC2Ev(%struct.ap_int_base.2* %2), !dbg !7165 ; [debug line = 2387:4]
  ret void, !dbg !7165                            ; [debug line = 2387:4]
}

; [#uses=1]
define linkonce_odr void @_ZN11ap_int_baseILi130ELb1ELb0EEC2Ev(%struct.ap_int_base.2* %this) unnamed_addr nounwind uwtable inlinehint alwaysinline align 2 {
  %1 = alloca %struct.ap_int_base.2*, align 8     ; [#uses=2 type=%struct.ap_int_base.2**]
  store %struct.ap_int_base.2* %this, %struct.ap_int_base.2** %1, align 8
  call void @llvm.dbg.declare(metadata !{%struct.ap_int_base.2** %1}, metadata !7166), !dbg !7167 ; [debug line = 2381:42] [debug variable = this]
  %2 = load %struct.ap_int_base.2** %1            ; [#uses=1 type=%struct.ap_int_base.2*]
  %3 = bitcast %struct.ap_int_base.2* %2 to %struct.ssdm_int.3*, !dbg !7168 ; [#uses=1 type=%struct.ssdm_int.3*] [debug line = 2381:56]
  call void @_ZN8ssdm_intILi130ELb1EEC2Ev(%struct.ssdm_int.3* %3), !dbg !7168 ; [debug line = 2381:56]
  ret void, !dbg !7169                            ; [debug line = 2387:4]
}

; [#uses=3]
define linkonce_odr void @_ZN8ssdm_intILi130ELb1EEC2Ev(%struct.ssdm_int.3* %this) unnamed_addr nounwind uwtable inlinehint alwaysinline align 2 {
  %1 = alloca %struct.ssdm_int.3*, align 8        ; [#uses=2 type=%struct.ssdm_int.3**]
  store %struct.ssdm_int.3* %this, %struct.ssdm_int.3** %1, align 8
  call void @llvm.dbg.declare(metadata !{%struct.ssdm_int.3** %1}, metadata !7171), !dbg !7173 ; [debug line = 144:139] [debug variable = this]
  %2 = load %struct.ssdm_int.3** %1               ; [#uses=0 type=%struct.ssdm_int.3*]
  ret void, !dbg !7174                            ; [debug line = 144:174]
}

; [#uses=1]
define linkonce_odr void @_ZN11ap_int_baseILi130ELb1ELb0EEC2ILi32ELb1EEERKS_IXT_EXT0_EXleT_Li64EEE(%struct.ap_int_base.2* %this, %struct.ap_int_base.13* %op) unnamed_addr nounwind uwtable inlinehint alwaysinline align 2 {
  %1 = alloca %struct.ap_int_base.2*, align 8     ; [#uses=2 type=%struct.ap_int_base.2**]
  %2 = alloca %struct.ap_int_base.13*, align 8    ; [#uses=2 type=%struct.ap_int_base.13**]
  store %struct.ap_int_base.2* %this, %struct.ap_int_base.2** %1, align 8
  call void @llvm.dbg.declare(metadata !{%struct.ap_int_base.2** %1}, metadata !7176), !dbg !7177 ; [debug line = 2393:43] [debug variable = this]
  store %struct.ap_int_base.13* %op, %struct.ap_int_base.13** %2, align 8
  call void @llvm.dbg.declare(metadata !{%struct.ap_int_base.13** %2}, metadata !7178), !dbg !7179 ; [debug line = 2393:89] [debug variable = op]
  %3 = load %struct.ap_int_base.2** %1            ; [#uses=2 type=%struct.ap_int_base.2*]
  %4 = bitcast %struct.ap_int_base.2* %3 to %struct.ssdm_int.3*, !dbg !7180 ; [#uses=1 type=%struct.ssdm_int.3*] [debug line = 2393:93]
  call void @_ZN8ssdm_intILi130ELb1EEC2Ev(%struct.ssdm_int.3* %4), !dbg !7180 ; [debug line = 2393:93]
  %5 = load %struct.ap_int_base.13** %2, align 8, !dbg !7181 ; [#uses=1 type=%struct.ap_int_base.13*] [debug line = 2393:95]
  %6 = bitcast %struct.ap_int_base.13* %5 to %struct.ssdm_int.14*, !dbg !7181 ; [#uses=1 type=%struct.ssdm_int.14*] [debug line = 2393:95]
  %7 = getelementptr inbounds %struct.ssdm_int.14* %6, i32 0, i32 0, !dbg !7181 ; [#uses=1 type=i32*] [debug line = 2393:95]
  %8 = load i32* %7, align 4, !dbg !7181          ; [#uses=1 type=i32] [debug line = 2393:95]
  %9 = sext i32 %8 to i130, !dbg !7181            ; [#uses=1 type=i130] [debug line = 2393:95]
  %10 = bitcast %struct.ap_int_base.2* %3 to %struct.ssdm_int.3*, !dbg !7181 ; [#uses=1 type=%struct.ssdm_int.3*] [debug line = 2393:95]
  %11 = getelementptr inbounds %struct.ssdm_int.3* %10, i32 0, i32 0, !dbg !7181 ; [#uses=1 type=i130*] [debug line = 2393:95]
  store i130 %9, i130* %11, align 8, !dbg !7181   ; [debug line = 2393:95]
  ret void, !dbg !7183                            ; [debug line = 2393:111]
}

; [#uses=1]
define linkonce_odr void @_ZN11ap_int_baseILi130ELb1ELb0EEC2ILi128ELb0EEERKS_IXT_EXT0_EXleT_Li64EEE(%struct.ap_int_base.2* %this, %struct.ap_int_base* %op) unnamed_addr nounwind uwtable inlinehint alwaysinline align 2 {
  %1 = alloca %struct.ap_int_base.2*, align 8     ; [#uses=2 type=%struct.ap_int_base.2**]
  %2 = alloca %struct.ap_int_base*, align 8       ; [#uses=2 type=%struct.ap_int_base**]
  store %struct.ap_int_base.2* %this, %struct.ap_int_base.2** %1, align 8
  call void @llvm.dbg.declare(metadata !{%struct.ap_int_base.2** %1}, metadata !7184), !dbg !7185 ; [debug line = 2393:43] [debug variable = this]
  store %struct.ap_int_base* %op, %struct.ap_int_base** %2, align 8
  call void @llvm.dbg.declare(metadata !{%struct.ap_int_base** %2}, metadata !7186), !dbg !7187 ; [debug line = 2393:89] [debug variable = op]
  %3 = load %struct.ap_int_base.2** %1            ; [#uses=2 type=%struct.ap_int_base.2*]
  %4 = bitcast %struct.ap_int_base.2* %3 to %struct.ssdm_int.3*, !dbg !7188 ; [#uses=1 type=%struct.ssdm_int.3*] [debug line = 2393:93]
  call void @_ZN8ssdm_intILi130ELb1EEC2Ev(%struct.ssdm_int.3* %4), !dbg !7188 ; [debug line = 2393:93]
  %5 = load %struct.ap_int_base** %2, align 8, !dbg !7189 ; [#uses=1 type=%struct.ap_int_base*] [debug line = 2393:95]
  %6 = bitcast %struct.ap_int_base* %5 to %struct.ssdm_int*, !dbg !7189 ; [#uses=1 type=%struct.ssdm_int*] [debug line = 2393:95]
  %7 = getelementptr inbounds %struct.ssdm_int* %6, i32 0, i32 0, !dbg !7189 ; [#uses=1 type=i128*] [debug line = 2393:95]
  %8 = load i128* %7, align 16, !dbg !7189        ; [#uses=1 type=i128] [debug line = 2393:95]
  %9 = zext i128 %8 to i130, !dbg !7189           ; [#uses=1 type=i130] [debug line = 2393:95]
  %10 = bitcast %struct.ap_int_base.2* %3 to %struct.ssdm_int.3*, !dbg !7189 ; [#uses=1 type=%struct.ssdm_int.3*] [debug line = 2393:95]
  %11 = getelementptr inbounds %struct.ssdm_int.3* %10, i32 0, i32 0, !dbg !7189 ; [#uses=1 type=i130*] [debug line = 2393:95]
  store i130 %9, i130* %11, align 8, !dbg !7189   ; [debug line = 2393:95]
  ret void, !dbg !7191                            ; [debug line = 2393:111]
}

; [#uses=1]
define linkonce_odr void @_ZN7ap_uintILi128EEC2Ev(%struct.ap_uint* %this) unnamed_addr nounwind uwtable inlinehint alwaysinline align 2 {
  %1 = alloca %struct.ap_uint*, align 8           ; [#uses=2 type=%struct.ap_uint**]
  store %struct.ap_uint* %this, %struct.ap_uint** %1, align 8
  call void @llvm.dbg.declare(metadata !{%struct.ap_uint** %1}, metadata !7192), !dbg !7193 ; [debug line = 185:43] [debug variable = this]
  %2 = load %struct.ap_uint** %1                  ; [#uses=1 type=%struct.ap_uint*]
  %3 = bitcast %struct.ap_uint* %2 to %struct.ap_int_base*, !dbg !7194 ; [#uses=1 type=%struct.ap_int_base*] [debug line = 185:61]
  call void @_ZN11ap_int_baseILi128ELb0ELb0EEC2Ev(%struct.ap_int_base* %3), !dbg !7194 ; [debug line = 185:61]
  ret void, !dbg !7195                            ; [debug line = 185:62]
}

; [#uses=1]
define internal void @_GLOBAL__I_a() nounwind section ".text.startup" {
  call void @__cxx_global_var_init()
  ret void
}

; [#uses=1]
define internal void @__cxx_global_var_init13() nounwind section ".text.startup" {
  call void @_ZNSt8ios_base4InitC1Ev(%"class.std::ios_base::Init"* @_ZStL8__ioinit1)
  %1 = call i32 @atexit(void ()* @__dtor__ZStL8__ioinit14) ; [#uses=0 type=i32]
  ret void
}

; [#uses=1]
define internal void @__dtor__ZStL8__ioinit14() nounwind section ".text.startup" {
  call void @_ZNSt8ios_base4InitD1Ev(%"class.std::ios_base::Init"* @_ZStL8__ioinit1)
  ret void
}

; [#uses=3]
define void @_Z11addRoundKeyv() nounwind uwtable {
  %i = alloca i32, align 4                        ; [#uses=6 type=i32*]
  call void (...)* @_ssdm_Unroll(i32 0, i32 0, i32 0, i8* getelementptr inbounds ([1 x i8]* @.str7, i32 0, i32 0)) nounwind, !dbg !7197 ; [debug line = 63:1]
  call void @llvm.dbg.declare(metadata !{i32* %i}, metadata !7199), !dbg !7200 ; [debug line = 65:5] [debug variable = i]
  store i32 0, i32* %i, align 4, !dbg !7201       ; [debug line = 67:5]
  br label %1, !dbg !7201                         ; [debug line = 67:5]

; <label>:1                                       ; preds = %17, %0
  %2 = load i32* %i, align 4, !dbg !7201          ; [#uses=1 type=i32] [debug line = 67:5]
  %3 = icmp slt i32 %2, 16, !dbg !7201            ; [#uses=1 type=i1] [debug line = 67:5]
  br i1 %3, label %4, label %20, !dbg !7201       ; [debug line = 67:5]

; <label>:4                                       ; preds = %1
  %5 = load i32* %i, align 4, !dbg !7203          ; [#uses=1 type=i32] [debug line = 69:1]
  %6 = sext i32 %5 to i64, !dbg !7203             ; [#uses=1 type=i64] [debug line = 69:1]
  %7 = getelementptr inbounds [16 x i8]* @_ZL8statekey, i32 0, i64 %6, !dbg !7203 ; [#uses=1 type=i8*] [debug line = 69:1]
  %8 = load i8* %7, align 1, !dbg !7203           ; [#uses=1 type=i8] [debug line = 69:1]
  %9 = zext i8 %8 to i32, !dbg !7203              ; [#uses=1 type=i32] [debug line = 69:1]
  %10 = load i32* %i, align 4, !dbg !7203         ; [#uses=1 type=i32] [debug line = 69:1]
  %11 = sext i32 %10 to i64, !dbg !7203           ; [#uses=1 type=i64] [debug line = 69:1]
  %12 = getelementptr inbounds [16 x i8]* @_ZL5state, i32 0, i64 %11, !dbg !7203 ; [#uses=2 type=i8*] [debug line = 69:1]
  %13 = load i8* %12, align 1, !dbg !7203         ; [#uses=1 type=i8] [debug line = 69:1]
  %14 = zext i8 %13 to i32, !dbg !7203            ; [#uses=1 type=i32] [debug line = 69:1]
  %15 = xor i32 %14, %9, !dbg !7203               ; [#uses=1 type=i32] [debug line = 69:1]
  %16 = trunc i32 %15 to i8, !dbg !7203           ; [#uses=1 type=i8] [debug line = 69:1]
  store i8 %16, i8* %12, align 1, !dbg !7203      ; [debug line = 69:1]
  br label %17, !dbg !7205                        ; [debug line = 70:1]

; <label>:17                                      ; preds = %4
  %18 = load i32* %i, align 4, !dbg !7206         ; [#uses=1 type=i32] [debug line = 67:18]
  %19 = add nsw i32 %18, 1, !dbg !7206            ; [#uses=1 type=i32] [debug line = 67:18]
  store i32 %19, i32* %i, align 4, !dbg !7206     ; [debug line = 67:18]
  br label %1, !dbg !7206                         ; [debug line = 67:18]

; <label>:20                                      ; preds = %1
  ret void, !dbg !7207                            ; [debug line = 71:1]
}

; [#uses=2]
define void @_Z8subBytesv() nounwind uwtable {
  %i = alloca i32, align 4                        ; [#uses=6 type=i32*]
  call void (...)* @_ssdm_Unroll(i32 0, i32 0, i32 0, i8* getelementptr inbounds ([1 x i8]* @.str7, i32 0, i32 0)) nounwind, !dbg !7208 ; [debug line = 78:1]
  call void @llvm.dbg.declare(metadata !{i32* %i}, metadata !7210), !dbg !7211 ; [debug line = 80:5] [debug variable = i]
  store i32 0, i32* %i, align 4, !dbg !7212       ; [debug line = 82:5]
  br label %1, !dbg !7212                         ; [debug line = 82:5]

; <label>:1                                       ; preds = %15, %0
  %2 = load i32* %i, align 4, !dbg !7212          ; [#uses=1 type=i32] [debug line = 82:5]
  %3 = icmp slt i32 %2, 16, !dbg !7212            ; [#uses=1 type=i1] [debug line = 82:5]
  br i1 %3, label %4, label %18, !dbg !7212       ; [debug line = 82:5]

; <label>:4                                       ; preds = %1
  %5 = load i32* %i, align 4, !dbg !7214          ; [#uses=1 type=i32] [debug line = 84:1]
  %6 = sext i32 %5 to i64, !dbg !7214             ; [#uses=1 type=i64] [debug line = 84:1]
  %7 = getelementptr inbounds [16 x i8]* @_ZL5state, i32 0, i64 %6, !dbg !7214 ; [#uses=1 type=i8*] [debug line = 84:1]
  %8 = load i8* %7, align 1, !dbg !7214           ; [#uses=1 type=i8] [debug line = 84:1]
  %9 = zext i8 %8 to i64, !dbg !7214              ; [#uses=1 type=i64] [debug line = 84:1]
  %10 = getelementptr inbounds [256 x i8]* @_ZL6sboxes, i32 0, i64 %9, !dbg !7214 ; [#uses=1 type=i8*] [debug line = 84:1]
  %11 = load i8* %10, align 1, !dbg !7214         ; [#uses=1 type=i8] [debug line = 84:1]
  %12 = load i32* %i, align 4, !dbg !7214         ; [#uses=1 type=i32] [debug line = 84:1]
  %13 = sext i32 %12 to i64, !dbg !7214           ; [#uses=1 type=i64] [debug line = 84:1]
  %14 = getelementptr inbounds [16 x i8]* @_ZL5state, i32 0, i64 %13, !dbg !7214 ; [#uses=1 type=i8*] [debug line = 84:1]
  store i8 %11, i8* %14, align 1, !dbg !7214      ; [debug line = 84:1]
  br label %15, !dbg !7216                        ; [debug line = 85:1]

; <label>:15                                      ; preds = %4
  %16 = load i32* %i, align 4, !dbg !7217         ; [#uses=1 type=i32] [debug line = 82:20]
  %17 = add nsw i32 %16, 1, !dbg !7217            ; [#uses=1 type=i32] [debug line = 82:20]
  store i32 %17, i32* %i, align 4, !dbg !7217     ; [debug line = 82:20]
  br label %1, !dbg !7217                         ; [debug line = 82:20]

; <label>:18                                      ; preds = %1
  ret void, !dbg !7218                            ; [debug line = 86:1]
}

; [#uses=2]
define void @_Z9shiftRowsv() nounwind uwtable {
  %temp = alloca i8, align 1                      ; [#uses=8 type=i8*]
  call void (...)* @_ssdm_Unroll(i32 0, i32 0, i32 0, i8* getelementptr inbounds ([1 x i8]* @.str7, i32 0, i32 0)) nounwind, !dbg !7219 ; [debug line = 92:1]
  call void @llvm.dbg.declare(metadata !{i8* %temp}, metadata !7221), !dbg !7222 ; [debug line = 94:6] [debug variable = temp]
  %1 = load i8* getelementptr inbounds ([16 x i8]* @_ZL5state, i32 0, i64 1), align 1, !dbg !7223 ; [#uses=1 type=i8] [debug line = 97:1]
  store i8 %1, i8* %temp, align 1, !dbg !7223     ; [debug line = 97:1]
  %2 = load i8* getelementptr inbounds ([16 x i8]* @_ZL5state, i32 0, i64 5), align 1, !dbg !7224 ; [#uses=1 type=i8] [debug line = 97:18]
  store i8 %2, i8* getelementptr inbounds ([16 x i8]* @_ZL5state, i32 0, i64 1), align 1, !dbg !7224 ; [debug line = 97:18]
  %3 = load i8* getelementptr inbounds ([16 x i8]* @_ZL5state, i32 0, i64 9), align 1, !dbg !7225 ; [#uses=1 type=i8] [debug line = 97:39]
  store i8 %3, i8* getelementptr inbounds ([16 x i8]* @_ZL5state, i32 0, i64 5), align 1, !dbg !7225 ; [debug line = 97:39]
  %4 = load i8* getelementptr inbounds ([16 x i8]* @_ZL5state, i32 0, i64 13), align 1, !dbg !7226 ; [#uses=1 type=i8] [debug line = 98:1]
  store i8 %4, i8* getelementptr inbounds ([16 x i8]* @_ZL5state, i32 0, i64 9), align 1, !dbg !7226 ; [debug line = 98:1]
  %5 = load i8* %temp, align 1, !dbg !7227        ; [#uses=1 type=i8] [debug line = 98:23]
  store i8 %5, i8* getelementptr inbounds ([16 x i8]* @_ZL5state, i32 0, i64 13), align 1, !dbg !7227 ; [debug line = 98:23]
  %6 = load i8* getelementptr inbounds ([16 x i8]* @_ZL5state, i32 0, i64 10), align 1, !dbg !7228 ; [#uses=1 type=i8] [debug line = 100:1]
  store i8 %6, i8* %temp, align 1, !dbg !7228     ; [debug line = 100:1]
  %7 = load i8* getelementptr inbounds ([16 x i8]* @_ZL5state, i32 0, i64 2), align 1, !dbg !7229 ; [#uses=1 type=i8] [debug line = 100:19]
  store i8 %7, i8* getelementptr inbounds ([16 x i8]* @_ZL5state, i32 0, i64 10), align 1, !dbg !7229 ; [debug line = 100:19]
  %8 = load i8* %temp, align 1, !dbg !7230        ; [#uses=1 type=i8] [debug line = 100:41]
  store i8 %8, i8* getelementptr inbounds ([16 x i8]* @_ZL5state, i32 0, i64 2), align 1, !dbg !7230 ; [debug line = 100:41]
  %9 = load i8* getelementptr inbounds ([16 x i8]* @_ZL5state, i32 0, i64 14), align 1, !dbg !7231 ; [#uses=1 type=i8] [debug line = 101:1]
  store i8 %9, i8* %temp, align 1, !dbg !7231     ; [debug line = 101:1]
  %10 = load i8* getelementptr inbounds ([16 x i8]* @_ZL5state, i32 0, i64 6), align 1, !dbg !7232 ; [#uses=1 type=i8] [debug line = 101:19]
  store i8 %10, i8* getelementptr inbounds ([16 x i8]* @_ZL5state, i32 0, i64 14), align 1, !dbg !7232 ; [debug line = 101:19]
  %11 = load i8* %temp, align 1, !dbg !7233       ; [#uses=1 type=i8] [debug line = 101:41]
  store i8 %11, i8* getelementptr inbounds ([16 x i8]* @_ZL5state, i32 0, i64 6), align 1, !dbg !7233 ; [debug line = 101:41]
  %12 = load i8* getelementptr inbounds ([16 x i8]* @_ZL5state, i32 0, i64 3), align 1, !dbg !7234 ; [#uses=1 type=i8] [debug line = 103:1]
  store i8 %12, i8* %temp, align 1, !dbg !7234    ; [debug line = 103:1]
  %13 = load i8* getelementptr inbounds ([16 x i8]* @_ZL5state, i32 0, i64 15), align 1, !dbg !7235 ; [#uses=1 type=i8] [debug line = 103:18]
  store i8 %13, i8* getelementptr inbounds ([16 x i8]* @_ZL5state, i32 0, i64 3), align 1, !dbg !7235 ; [debug line = 103:18]
  %14 = load i8* getelementptr inbounds ([16 x i8]* @_ZL5state, i32 0, i64 11), align 1, !dbg !7236 ; [#uses=1 type=i8] [debug line = 103:40]
  store i8 %14, i8* getelementptr inbounds ([16 x i8]* @_ZL5state, i32 0, i64 15), align 1, !dbg !7236 ; [debug line = 103:40]
  %15 = load i8* getelementptr inbounds ([16 x i8]* @_ZL5state, i32 0, i64 7), align 1, !dbg !7237 ; [#uses=1 type=i8] [debug line = 104:1]
  store i8 %15, i8* getelementptr inbounds ([16 x i8]* @_ZL5state, i32 0, i64 11), align 1, !dbg !7237 ; [debug line = 104:1]
  %16 = load i8* %temp, align 1, !dbg !7238       ; [#uses=1 type=i8] [debug line = 104:23]
  store i8 %16, i8* getelementptr inbounds ([16 x i8]* @_ZL5state, i32 0, i64 7), align 1, !dbg !7238 ; [debug line = 104:23]
  ret void, !dbg !7239                            ; [debug line = 105:1]
}

; [#uses=4]
define zeroext i8 @_Z5xtimeh(i8 zeroext %x) nounwind uwtable {
  %1 = alloca i8, align 1                         ; [#uses=3 type=i8*]
  %rv = alloca i8, align 1                        ; [#uses=4 type=i8*]
  store i8 %x, i8* %1, align 1
  call void @llvm.dbg.declare(metadata !{i8* %1}, metadata !7240), !dbg !7241 ; [debug line = 108:17] [debug variable = x]
  call void @llvm.dbg.declare(metadata !{i8* %rv}, metadata !7242), !dbg !7244 ; [debug line = 110:6] [debug variable = rv]
  %2 = load i8* %1, align 1, !dbg !7245           ; [#uses=1 type=i8] [debug line = 110:17]
  %3 = zext i8 %2 to i32, !dbg !7245              ; [#uses=1 type=i32] [debug line = 110:17]
  %4 = shl i32 %3, 1, !dbg !7245                  ; [#uses=1 type=i32] [debug line = 110:17]
  %5 = trunc i32 %4 to i8, !dbg !7245             ; [#uses=1 type=i8] [debug line = 110:17]
  store i8 %5, i8* %rv, align 1, !dbg !7245       ; [debug line = 110:17]
  %6 = load i8* %1, align 1, !dbg !7246           ; [#uses=1 type=i8] [debug line = 111:1]
  %7 = zext i8 %6 to i32, !dbg !7246              ; [#uses=1 type=i32] [debug line = 111:1]
  %8 = and i32 %7, 128, !dbg !7246                ; [#uses=1 type=i32] [debug line = 111:1]
  %9 = icmp ne i32 %8, 0, !dbg !7246              ; [#uses=1 type=i1] [debug line = 111:1]
  br i1 %9, label %10, label %15, !dbg !7246      ; [debug line = 111:1]

; <label>:10                                      ; preds = %0
  %11 = load i8* %rv, align 1, !dbg !7247         ; [#uses=1 type=i8] [debug line = 112:1]
  %12 = zext i8 %11 to i32, !dbg !7247            ; [#uses=1 type=i32] [debug line = 112:1]
  %13 = xor i32 %12, 27, !dbg !7247               ; [#uses=1 type=i32] [debug line = 112:1]
  %14 = trunc i32 %13 to i8, !dbg !7247           ; [#uses=1 type=i8] [debug line = 112:1]
  store i8 %14, i8* %rv, align 1, !dbg !7247      ; [debug line = 112:1]
  br label %15, !dbg !7249                        ; [debug line = 113:1]

; <label>:15                                      ; preds = %10, %0
  %16 = load i8* %rv, align 1, !dbg !7250         ; [#uses=1 type=i8] [debug line = 114:1]
  ret i8 %16, !dbg !7250                          ; [debug line = 114:1]
}

; [#uses=1]
define void @_Z10mixColumnsv() nounwind uwtable {
  %i = alloca i8, align 1                         ; [#uses=12 type=i8*]
  %a = alloca i8, align 1                         ; [#uses=4 type=i8*]
  %b = alloca i8, align 1                         ; [#uses=4 type=i8*]
  %c = alloca i8, align 1                         ; [#uses=4 type=i8*]
  %d = alloca i8, align 1                         ; [#uses=4 type=i8*]
  %e = alloca i8, align 1                         ; [#uses=5 type=i8*]
  call void (...)* @_ssdm_Unroll(i32 0, i32 0, i32 0, i8* getelementptr inbounds ([1 x i8]* @.str7, i32 0, i32 0)) nounwind, !dbg !7251 ; [debug line = 120:1]
  call void @llvm.dbg.declare(metadata !{i8* %i}, metadata !7253), !dbg !7254 ; [debug line = 122:6] [debug variable = i]
  call void @llvm.dbg.declare(metadata !{i8* %a}, metadata !7255), !dbg !7256 ; [debug line = 122:9] [debug variable = a]
  call void @llvm.dbg.declare(metadata !{i8* %b}, metadata !7257), !dbg !7258 ; [debug line = 122:12] [debug variable = b]
  call void @llvm.dbg.declare(metadata !{i8* %c}, metadata !7259), !dbg !7260 ; [debug line = 122:15] [debug variable = c]
  call void @llvm.dbg.declare(metadata !{i8* %d}, metadata !7261), !dbg !7262 ; [debug line = 122:18] [debug variable = d]
  call void @llvm.dbg.declare(metadata !{i8* %e}, metadata !7263), !dbg !7264 ; [debug line = 122:21] [debug variable = e]
  store i8 0, i8* %i, align 1, !dbg !7265         ; [debug line = 125:5]
  br label %1, !dbg !7265                         ; [debug line = 125:5]

; <label>:1                                       ; preds = %118, %0
  %2 = load i8* %i, align 1, !dbg !7265           ; [#uses=1 type=i8] [debug line = 125:5]
  %3 = zext i8 %2 to i32, !dbg !7265              ; [#uses=1 type=i32] [debug line = 125:5]
  %4 = icmp slt i32 %3, 16, !dbg !7265            ; [#uses=1 type=i1] [debug line = 125:5]
  br i1 %4, label %5, label %123, !dbg !7265      ; [debug line = 125:5]

; <label>:5                                       ; preds = %1
  %6 = load i8* %i, align 1, !dbg !7267           ; [#uses=1 type=i8] [debug line = 127:1]
  %7 = zext i8 %6 to i64, !dbg !7267              ; [#uses=1 type=i64] [debug line = 127:1]
  %8 = getelementptr inbounds [16 x i8]* @_ZL5state, i32 0, i64 %7, !dbg !7267 ; [#uses=1 type=i8*] [debug line = 127:1]
  %9 = load i8* %8, align 1, !dbg !7267           ; [#uses=1 type=i8] [debug line = 127:1]
  store i8 %9, i8* %a, align 1, !dbg !7267        ; [debug line = 127:1]
  %10 = load i8* %i, align 1, !dbg !7269          ; [#uses=1 type=i8] [debug line = 128:1]
  %11 = zext i8 %10 to i32, !dbg !7269            ; [#uses=1 type=i32] [debug line = 128:1]
  %12 = add nsw i32 %11, 1, !dbg !7269            ; [#uses=1 type=i32] [debug line = 128:1]
  %13 = sext i32 %12 to i64, !dbg !7269           ; [#uses=1 type=i64] [debug line = 128:1]
  %14 = getelementptr inbounds [16 x i8]* @_ZL5state, i32 0, i64 %13, !dbg !7269 ; [#uses=1 type=i8*] [debug line = 128:1]
  %15 = load i8* %14, align 1, !dbg !7269         ; [#uses=1 type=i8] [debug line = 128:1]
  store i8 %15, i8* %b, align 1, !dbg !7269       ; [debug line = 128:1]
  %16 = load i8* %i, align 1, !dbg !7270          ; [#uses=1 type=i8] [debug line = 129:1]
  %17 = zext i8 %16 to i32, !dbg !7270            ; [#uses=1 type=i32] [debug line = 129:1]
  %18 = add nsw i32 %17, 2, !dbg !7270            ; [#uses=1 type=i32] [debug line = 129:1]
  %19 = sext i32 %18 to i64, !dbg !7270           ; [#uses=1 type=i64] [debug line = 129:1]
  %20 = getelementptr inbounds [16 x i8]* @_ZL5state, i32 0, i64 %19, !dbg !7270 ; [#uses=1 type=i8*] [debug line = 129:1]
  %21 = load i8* %20, align 1, !dbg !7270         ; [#uses=1 type=i8] [debug line = 129:1]
  store i8 %21, i8* %c, align 1, !dbg !7270       ; [debug line = 129:1]
  %22 = load i8* %i, align 1, !dbg !7271          ; [#uses=1 type=i8] [debug line = 130:1]
  %23 = zext i8 %22 to i32, !dbg !7271            ; [#uses=1 type=i32] [debug line = 130:1]
  %24 = add nsw i32 %23, 3, !dbg !7271            ; [#uses=1 type=i32] [debug line = 130:1]
  %25 = sext i32 %24 to i64, !dbg !7271           ; [#uses=1 type=i64] [debug line = 130:1]
  %26 = getelementptr inbounds [16 x i8]* @_ZL5state, i32 0, i64 %25, !dbg !7271 ; [#uses=1 type=i8*] [debug line = 130:1]
  %27 = load i8* %26, align 1, !dbg !7271         ; [#uses=1 type=i8] [debug line = 130:1]
  store i8 %27, i8* %d, align 1, !dbg !7271       ; [debug line = 130:1]
  %28 = load i8* %a, align 1, !dbg !7272          ; [#uses=1 type=i8] [debug line = 131:1]
  %29 = zext i8 %28 to i32, !dbg !7272            ; [#uses=1 type=i32] [debug line = 131:1]
  %30 = load i8* %b, align 1, !dbg !7272          ; [#uses=1 type=i8] [debug line = 131:1]
  %31 = zext i8 %30 to i32, !dbg !7272            ; [#uses=1 type=i32] [debug line = 131:1]
  %32 = xor i32 %29, %31, !dbg !7272              ; [#uses=1 type=i32] [debug line = 131:1]
  %33 = load i8* %c, align 1, !dbg !7272          ; [#uses=1 type=i8] [debug line = 131:1]
  %34 = zext i8 %33 to i32, !dbg !7272            ; [#uses=1 type=i32] [debug line = 131:1]
  %35 = xor i32 %32, %34, !dbg !7272              ; [#uses=1 type=i32] [debug line = 131:1]
  %36 = load i8* %d, align 1, !dbg !7272          ; [#uses=1 type=i8] [debug line = 131:1]
  %37 = zext i8 %36 to i32, !dbg !7272            ; [#uses=1 type=i32] [debug line = 131:1]
  %38 = xor i32 %35, %37, !dbg !7272              ; [#uses=1 type=i32] [debug line = 131:1]
  %39 = trunc i32 %38 to i8, !dbg !7272           ; [#uses=1 type=i8] [debug line = 131:1]
  store i8 %39, i8* %e, align 1, !dbg !7272       ; [debug line = 131:1]
  %40 = load i8* %e, align 1, !dbg !7273          ; [#uses=1 type=i8] [debug line = 132:1]
  %41 = zext i8 %40 to i32, !dbg !7273            ; [#uses=1 type=i32] [debug line = 132:1]
  %42 = load i8* %a, align 1, !dbg !7274          ; [#uses=1 type=i8] [debug line = 132:17]
  %43 = zext i8 %42 to i32, !dbg !7274            ; [#uses=1 type=i32] [debug line = 132:17]
  %44 = load i8* %b, align 1, !dbg !7274          ; [#uses=1 type=i8] [debug line = 132:17]
  %45 = zext i8 %44 to i32, !dbg !7274            ; [#uses=1 type=i32] [debug line = 132:17]
  %46 = xor i32 %43, %45, !dbg !7274              ; [#uses=1 type=i32] [debug line = 132:17]
  %47 = trunc i32 %46 to i8, !dbg !7274           ; [#uses=1 type=i8] [debug line = 132:17]
  %48 = call zeroext i8 @_Z5xtimeh(i8 zeroext %47), !dbg !7274 ; [#uses=1 type=i8] [debug line = 132:17]
  %49 = zext i8 %48 to i32, !dbg !7274            ; [#uses=1 type=i32] [debug line = 132:17]
  %50 = xor i32 %41, %49, !dbg !7274              ; [#uses=1 type=i32] [debug line = 132:17]
  %51 = load i8* %i, align 1, !dbg !7274          ; [#uses=1 type=i8] [debug line = 132:17]
  %52 = zext i8 %51 to i64, !dbg !7274            ; [#uses=1 type=i64] [debug line = 132:17]
  %53 = getelementptr inbounds [16 x i8]* @_ZL5state, i32 0, i64 %52, !dbg !7274 ; [#uses=2 type=i8*] [debug line = 132:17]
  %54 = load i8* %53, align 1, !dbg !7274         ; [#uses=1 type=i8] [debug line = 132:17]
  %55 = zext i8 %54 to i32, !dbg !7274            ; [#uses=1 type=i32] [debug line = 132:17]
  %56 = xor i32 %55, %50, !dbg !7274              ; [#uses=1 type=i32] [debug line = 132:17]
  %57 = trunc i32 %56 to i8, !dbg !7274           ; [#uses=1 type=i8] [debug line = 132:17]
  store i8 %57, i8* %53, align 1, !dbg !7274      ; [debug line = 132:17]
  %58 = load i8* %e, align 1, !dbg !7275          ; [#uses=1 type=i8] [debug line = 133:1]
  %59 = zext i8 %58 to i32, !dbg !7275            ; [#uses=1 type=i32] [debug line = 133:1]
  %60 = load i8* %b, align 1, !dbg !7276          ; [#uses=1 type=i8] [debug line = 133:19]
  %61 = zext i8 %60 to i32, !dbg !7276            ; [#uses=1 type=i32] [debug line = 133:19]
  %62 = load i8* %c, align 1, !dbg !7276          ; [#uses=1 type=i8] [debug line = 133:19]
  %63 = zext i8 %62 to i32, !dbg !7276            ; [#uses=1 type=i32] [debug line = 133:19]
  %64 = xor i32 %61, %63, !dbg !7276              ; [#uses=1 type=i32] [debug line = 133:19]
  %65 = trunc i32 %64 to i8, !dbg !7276           ; [#uses=1 type=i8] [debug line = 133:19]
  %66 = call zeroext i8 @_Z5xtimeh(i8 zeroext %65), !dbg !7276 ; [#uses=1 type=i8] [debug line = 133:19]
  %67 = zext i8 %66 to i32, !dbg !7276            ; [#uses=1 type=i32] [debug line = 133:19]
  %68 = xor i32 %59, %67, !dbg !7276              ; [#uses=1 type=i32] [debug line = 133:19]
  %69 = load i8* %i, align 1, !dbg !7276          ; [#uses=1 type=i8] [debug line = 133:19]
  %70 = zext i8 %69 to i32, !dbg !7276            ; [#uses=1 type=i32] [debug line = 133:19]
  %71 = add nsw i32 %70, 1, !dbg !7276            ; [#uses=1 type=i32] [debug line = 133:19]
  %72 = sext i32 %71 to i64, !dbg !7276           ; [#uses=1 type=i64] [debug line = 133:19]
  %73 = getelementptr inbounds [16 x i8]* @_ZL5state, i32 0, i64 %72, !dbg !7276 ; [#uses=2 type=i8*] [debug line = 133:19]
  %74 = load i8* %73, align 1, !dbg !7276         ; [#uses=1 type=i8] [debug line = 133:19]
  %75 = zext i8 %74 to i32, !dbg !7276            ; [#uses=1 type=i32] [debug line = 133:19]
  %76 = xor i32 %75, %68, !dbg !7276              ; [#uses=1 type=i32] [debug line = 133:19]
  %77 = trunc i32 %76 to i8, !dbg !7276           ; [#uses=1 type=i8] [debug line = 133:19]
  store i8 %77, i8* %73, align 1, !dbg !7276      ; [debug line = 133:19]
  %78 = load i8* %e, align 1, !dbg !7277          ; [#uses=1 type=i8] [debug line = 134:1]
  %79 = zext i8 %78 to i32, !dbg !7277            ; [#uses=1 type=i32] [debug line = 134:1]
  %80 = load i8* %c, align 1, !dbg !7278          ; [#uses=1 type=i8] [debug line = 134:19]
  %81 = zext i8 %80 to i32, !dbg !7278            ; [#uses=1 type=i32] [debug line = 134:19]
  %82 = load i8* %d, align 1, !dbg !7278          ; [#uses=1 type=i8] [debug line = 134:19]
  %83 = zext i8 %82 to i32, !dbg !7278            ; [#uses=1 type=i32] [debug line = 134:19]
  %84 = xor i32 %81, %83, !dbg !7278              ; [#uses=1 type=i32] [debug line = 134:19]
  %85 = trunc i32 %84 to i8, !dbg !7278           ; [#uses=1 type=i8] [debug line = 134:19]
  %86 = call zeroext i8 @_Z5xtimeh(i8 zeroext %85), !dbg !7278 ; [#uses=1 type=i8] [debug line = 134:19]
  %87 = zext i8 %86 to i32, !dbg !7278            ; [#uses=1 type=i32] [debug line = 134:19]
  %88 = xor i32 %79, %87, !dbg !7278              ; [#uses=1 type=i32] [debug line = 134:19]
  %89 = load i8* %i, align 1, !dbg !7278          ; [#uses=1 type=i8] [debug line = 134:19]
  %90 = zext i8 %89 to i32, !dbg !7278            ; [#uses=1 type=i32] [debug line = 134:19]
  %91 = add nsw i32 %90, 2, !dbg !7278            ; [#uses=1 type=i32] [debug line = 134:19]
  %92 = sext i32 %91 to i64, !dbg !7278           ; [#uses=1 type=i64] [debug line = 134:19]
  %93 = getelementptr inbounds [16 x i8]* @_ZL5state, i32 0, i64 %92, !dbg !7278 ; [#uses=2 type=i8*] [debug line = 134:19]
  %94 = load i8* %93, align 1, !dbg !7278         ; [#uses=1 type=i8] [debug line = 134:19]
  %95 = zext i8 %94 to i32, !dbg !7278            ; [#uses=1 type=i32] [debug line = 134:19]
  %96 = xor i32 %95, %88, !dbg !7278              ; [#uses=1 type=i32] [debug line = 134:19]
  %97 = trunc i32 %96 to i8, !dbg !7278           ; [#uses=1 type=i8] [debug line = 134:19]
  store i8 %97, i8* %93, align 1, !dbg !7278      ; [debug line = 134:19]
  %98 = load i8* %e, align 1, !dbg !7279          ; [#uses=1 type=i8] [debug line = 135:1]
  %99 = zext i8 %98 to i32, !dbg !7279            ; [#uses=1 type=i32] [debug line = 135:1]
  %100 = load i8* %d, align 1, !dbg !7280         ; [#uses=1 type=i8] [debug line = 135:19]
  %101 = zext i8 %100 to i32, !dbg !7280          ; [#uses=1 type=i32] [debug line = 135:19]
  %102 = load i8* %a, align 1, !dbg !7280         ; [#uses=1 type=i8] [debug line = 135:19]
  %103 = zext i8 %102 to i32, !dbg !7280          ; [#uses=1 type=i32] [debug line = 135:19]
  %104 = xor i32 %101, %103, !dbg !7280           ; [#uses=1 type=i32] [debug line = 135:19]
  %105 = trunc i32 %104 to i8, !dbg !7280         ; [#uses=1 type=i8] [debug line = 135:19]
  %106 = call zeroext i8 @_Z5xtimeh(i8 zeroext %105), !dbg !7280 ; [#uses=1 type=i8] [debug line = 135:19]
  %107 = zext i8 %106 to i32, !dbg !7280          ; [#uses=1 type=i32] [debug line = 135:19]
  %108 = xor i32 %99, %107, !dbg !7280            ; [#uses=1 type=i32] [debug line = 135:19]
  %109 = load i8* %i, align 1, !dbg !7280         ; [#uses=1 type=i8] [debug line = 135:19]
  %110 = zext i8 %109 to i32, !dbg !7280          ; [#uses=1 type=i32] [debug line = 135:19]
  %111 = add nsw i32 %110, 3, !dbg !7280          ; [#uses=1 type=i32] [debug line = 135:19]
  %112 = sext i32 %111 to i64, !dbg !7280         ; [#uses=1 type=i64] [debug line = 135:19]
  %113 = getelementptr inbounds [16 x i8]* @_ZL5state, i32 0, i64 %112, !dbg !7280 ; [#uses=2 type=i8*] [debug line = 135:19]
  %114 = load i8* %113, align 1, !dbg !7280       ; [#uses=1 type=i8] [debug line = 135:19]
  %115 = zext i8 %114 to i32, !dbg !7280          ; [#uses=1 type=i32] [debug line = 135:19]
  %116 = xor i32 %115, %108, !dbg !7280           ; [#uses=1 type=i32] [debug line = 135:19]
  %117 = trunc i32 %116 to i8, !dbg !7280         ; [#uses=1 type=i8] [debug line = 135:19]
  store i8 %117, i8* %113, align 1, !dbg !7280    ; [debug line = 135:19]
  br label %118, !dbg !7281                       ; [debug line = 136:1]

; <label>:118                                     ; preds = %5
  %119 = load i8* %i, align 1, !dbg !7282         ; [#uses=1 type=i8] [debug line = 125:20]
  %120 = zext i8 %119 to i32, !dbg !7282          ; [#uses=1 type=i32] [debug line = 125:20]
  %121 = add nsw i32 %120, 4, !dbg !7282          ; [#uses=1 type=i32] [debug line = 125:20]
  %122 = trunc i32 %121 to i8, !dbg !7282         ; [#uses=1 type=i8] [debug line = 125:20]
  store i8 %122, i8* %i, align 1, !dbg !7282      ; [debug line = 125:20]
  br label %1, !dbg !7282                         ; [debug line = 125:20]

; <label>:123                                     ; preds = %1
  ret void, !dbg !7283                            ; [debug line = 137:1]
}

; [#uses=2]
define void @_Z10computeKeyh(i8 zeroext %rcon) nounwind uwtable {
  %1 = alloca i8, align 1                         ; [#uses=2 type=i8*]
  %buf0 = alloca i8, align 1                      ; [#uses=2 type=i8*]
  %buf1 = alloca i8, align 1                      ; [#uses=2 type=i8*]
  %buf2 = alloca i8, align 1                      ; [#uses=2 type=i8*]
  %buf3 = alloca i8, align 1                      ; [#uses=2 type=i8*]
  store i8 %rcon, i8* %1, align 1
  call void @llvm.dbg.declare(metadata !{i8* %1}, metadata !7284), !dbg !7285 ; [debug line = 144:22] [debug variable = rcon]
  call void @llvm.dbg.declare(metadata !{i8* %buf0}, metadata !7286), !dbg !7288 ; [debug line = 146:6] [debug variable = buf0]
  call void @llvm.dbg.declare(metadata !{i8* %buf1}, metadata !7289), !dbg !7290 ; [debug line = 146:12] [debug variable = buf1]
  call void @llvm.dbg.declare(metadata !{i8* %buf2}, metadata !7291), !dbg !7292 ; [debug line = 146:18] [debug variable = buf2]
  call void @llvm.dbg.declare(metadata !{i8* %buf3}, metadata !7293), !dbg !7294 ; [debug line = 146:24] [debug variable = buf3]
  %2 = load i8* getelementptr inbounds ([16 x i8]* @_ZL8statekey, i32 0, i64 13), align 1, !dbg !7295 ; [#uses=1 type=i8] [debug line = 147:1]
  %3 = zext i8 %2 to i64, !dbg !7295              ; [#uses=1 type=i64] [debug line = 147:1]
  %4 = getelementptr inbounds [256 x i8]* @_ZL6sboxes, i32 0, i64 %3, !dbg !7295 ; [#uses=1 type=i8*] [debug line = 147:1]
  %5 = load i8* %4, align 1, !dbg !7295           ; [#uses=1 type=i8] [debug line = 147:1]
  store i8 %5, i8* %buf0, align 1, !dbg !7295     ; [debug line = 147:1]
  %6 = load i8* getelementptr inbounds ([16 x i8]* @_ZL8statekey, i32 0, i64 14), align 1, !dbg !7296 ; [#uses=1 type=i8] [debug line = 148:1]
  %7 = zext i8 %6 to i64, !dbg !7296              ; [#uses=1 type=i64] [debug line = 148:1]
  %8 = getelementptr inbounds [256 x i8]* @_ZL6sboxes, i32 0, i64 %7, !dbg !7296 ; [#uses=1 type=i8*] [debug line = 148:1]
  %9 = load i8* %8, align 1, !dbg !7296           ; [#uses=1 type=i8] [debug line = 148:1]
  store i8 %9, i8* %buf1, align 1, !dbg !7296     ; [debug line = 148:1]
  %10 = load i8* getelementptr inbounds ([16 x i8]* @_ZL8statekey, i32 0, i64 15), align 1, !dbg !7297 ; [#uses=1 type=i8] [debug line = 149:1]
  %11 = zext i8 %10 to i64, !dbg !7297            ; [#uses=1 type=i64] [debug line = 149:1]
  %12 = getelementptr inbounds [256 x i8]* @_ZL6sboxes, i32 0, i64 %11, !dbg !7297 ; [#uses=1 type=i8*] [debug line = 149:1]
  %13 = load i8* %12, align 1, !dbg !7297         ; [#uses=1 type=i8] [debug line = 149:1]
  store i8 %13, i8* %buf2, align 1, !dbg !7297    ; [debug line = 149:1]
  %14 = load i8* getelementptr inbounds ([16 x i8]* @_ZL8statekey, i32 0, i64 12), align 1, !dbg !7298 ; [#uses=1 type=i8] [debug line = 150:1]
  %15 = zext i8 %14 to i64, !dbg !7298            ; [#uses=1 type=i64] [debug line = 150:1]
  %16 = getelementptr inbounds [256 x i8]* @_ZL6sboxes, i32 0, i64 %15, !dbg !7298 ; [#uses=1 type=i8*] [debug line = 150:1]
  %17 = load i8* %16, align 1, !dbg !7298         ; [#uses=1 type=i8] [debug line = 150:1]
  store i8 %17, i8* %buf3, align 1, !dbg !7298    ; [debug line = 150:1]
  %18 = load i8* %buf0, align 1, !dbg !7299       ; [#uses=1 type=i8] [debug line = 152:1]
  %19 = zext i8 %18 to i32, !dbg !7299            ; [#uses=1 type=i32] [debug line = 152:1]
  %20 = load i8* %1, align 1, !dbg !7299          ; [#uses=1 type=i8] [debug line = 152:1]
  %21 = zext i8 %20 to i32, !dbg !7299            ; [#uses=1 type=i32] [debug line = 152:1]
  %22 = xor i32 %19, %21, !dbg !7299              ; [#uses=1 type=i32] [debug line = 152:1]
  %23 = load i8* getelementptr inbounds ([16 x i8]* @_ZL8statekey, i32 0, i64 0), align 1, !dbg !7299 ; [#uses=1 type=i8] [debug line = 152:1]
  %24 = zext i8 %23 to i32, !dbg !7299            ; [#uses=1 type=i32] [debug line = 152:1]
  %25 = xor i32 %24, %22, !dbg !7299              ; [#uses=1 type=i32] [debug line = 152:1]
  %26 = trunc i32 %25 to i8, !dbg !7299           ; [#uses=1 type=i8] [debug line = 152:1]
  store i8 %26, i8* getelementptr inbounds ([16 x i8]* @_ZL8statekey, i32 0, i64 0), align 1, !dbg !7299 ; [debug line = 152:1]
  %27 = load i8* %buf1, align 1, !dbg !7300       ; [#uses=1 type=i8] [debug line = 153:1]
  %28 = zext i8 %27 to i32, !dbg !7300            ; [#uses=1 type=i32] [debug line = 153:1]
  %29 = load i8* getelementptr inbounds ([16 x i8]* @_ZL8statekey, i32 0, i64 1), align 1, !dbg !7300 ; [#uses=1 type=i8] [debug line = 153:1]
  %30 = zext i8 %29 to i32, !dbg !7300            ; [#uses=1 type=i32] [debug line = 153:1]
  %31 = xor i32 %30, %28, !dbg !7300              ; [#uses=1 type=i32] [debug line = 153:1]
  %32 = trunc i32 %31 to i8, !dbg !7300           ; [#uses=1 type=i8] [debug line = 153:1]
  store i8 %32, i8* getelementptr inbounds ([16 x i8]* @_ZL8statekey, i32 0, i64 1), align 1, !dbg !7300 ; [debug line = 153:1]
  %33 = load i8* %buf2, align 1, !dbg !7301       ; [#uses=1 type=i8] [debug line = 154:1]
  %34 = zext i8 %33 to i32, !dbg !7301            ; [#uses=1 type=i32] [debug line = 154:1]
  %35 = load i8* getelementptr inbounds ([16 x i8]* @_ZL8statekey, i32 0, i64 2), align 1, !dbg !7301 ; [#uses=1 type=i8] [debug line = 154:1]
  %36 = zext i8 %35 to i32, !dbg !7301            ; [#uses=1 type=i32] [debug line = 154:1]
  %37 = xor i32 %36, %34, !dbg !7301              ; [#uses=1 type=i32] [debug line = 154:1]
  %38 = trunc i32 %37 to i8, !dbg !7301           ; [#uses=1 type=i8] [debug line = 154:1]
  store i8 %38, i8* getelementptr inbounds ([16 x i8]* @_ZL8statekey, i32 0, i64 2), align 1, !dbg !7301 ; [debug line = 154:1]
  %39 = load i8* %buf3, align 1, !dbg !7302       ; [#uses=1 type=i8] [debug line = 155:1]
  %40 = zext i8 %39 to i32, !dbg !7302            ; [#uses=1 type=i32] [debug line = 155:1]
  %41 = load i8* getelementptr inbounds ([16 x i8]* @_ZL8statekey, i32 0, i64 3), align 1, !dbg !7302 ; [#uses=1 type=i8] [debug line = 155:1]
  %42 = zext i8 %41 to i32, !dbg !7302            ; [#uses=1 type=i32] [debug line = 155:1]
  %43 = xor i32 %42, %40, !dbg !7302              ; [#uses=1 type=i32] [debug line = 155:1]
  %44 = trunc i32 %43 to i8, !dbg !7302           ; [#uses=1 type=i8] [debug line = 155:1]
  store i8 %44, i8* getelementptr inbounds ([16 x i8]* @_ZL8statekey, i32 0, i64 3), align 1, !dbg !7302 ; [debug line = 155:1]
  %45 = load i8* getelementptr inbounds ([16 x i8]* @_ZL8statekey, i32 0, i64 0), align 1, !dbg !7303 ; [#uses=1 type=i8] [debug line = 157:1]
  %46 = zext i8 %45 to i32, !dbg !7303            ; [#uses=1 type=i32] [debug line = 157:1]
  %47 = load i8* getelementptr inbounds ([16 x i8]* @_ZL8statekey, i32 0, i64 4), align 1, !dbg !7303 ; [#uses=1 type=i8] [debug line = 157:1]
  %48 = zext i8 %47 to i32, !dbg !7303            ; [#uses=1 type=i32] [debug line = 157:1]
  %49 = xor i32 %48, %46, !dbg !7303              ; [#uses=1 type=i32] [debug line = 157:1]
  %50 = trunc i32 %49 to i8, !dbg !7303           ; [#uses=1 type=i8] [debug line = 157:1]
  store i8 %50, i8* getelementptr inbounds ([16 x i8]* @_ZL8statekey, i32 0, i64 4), align 1, !dbg !7303 ; [debug line = 157:1]
  %51 = load i8* getelementptr inbounds ([16 x i8]* @_ZL8statekey, i32 0, i64 1), align 1, !dbg !7304 ; [#uses=1 type=i8] [debug line = 158:1]
  %52 = zext i8 %51 to i32, !dbg !7304            ; [#uses=1 type=i32] [debug line = 158:1]
  %53 = load i8* getelementptr inbounds ([16 x i8]* @_ZL8statekey, i32 0, i64 5), align 1, !dbg !7304 ; [#uses=1 type=i8] [debug line = 158:1]
  %54 = zext i8 %53 to i32, !dbg !7304            ; [#uses=1 type=i32] [debug line = 158:1]
  %55 = xor i32 %54, %52, !dbg !7304              ; [#uses=1 type=i32] [debug line = 158:1]
  %56 = trunc i32 %55 to i8, !dbg !7304           ; [#uses=1 type=i8] [debug line = 158:1]
  store i8 %56, i8* getelementptr inbounds ([16 x i8]* @_ZL8statekey, i32 0, i64 5), align 1, !dbg !7304 ; [debug line = 158:1]
  %57 = load i8* getelementptr inbounds ([16 x i8]* @_ZL8statekey, i32 0, i64 2), align 1, !dbg !7305 ; [#uses=1 type=i8] [debug line = 159:1]
  %58 = zext i8 %57 to i32, !dbg !7305            ; [#uses=1 type=i32] [debug line = 159:1]
  %59 = load i8* getelementptr inbounds ([16 x i8]* @_ZL8statekey, i32 0, i64 6), align 1, !dbg !7305 ; [#uses=1 type=i8] [debug line = 159:1]
  %60 = zext i8 %59 to i32, !dbg !7305            ; [#uses=1 type=i32] [debug line = 159:1]
  %61 = xor i32 %60, %58, !dbg !7305              ; [#uses=1 type=i32] [debug line = 159:1]
  %62 = trunc i32 %61 to i8, !dbg !7305           ; [#uses=1 type=i8] [debug line = 159:1]
  store i8 %62, i8* getelementptr inbounds ([16 x i8]* @_ZL8statekey, i32 0, i64 6), align 1, !dbg !7305 ; [debug line = 159:1]
  %63 = load i8* getelementptr inbounds ([16 x i8]* @_ZL8statekey, i32 0, i64 3), align 1, !dbg !7306 ; [#uses=1 type=i8] [debug line = 160:1]
  %64 = zext i8 %63 to i32, !dbg !7306            ; [#uses=1 type=i32] [debug line = 160:1]
  %65 = load i8* getelementptr inbounds ([16 x i8]* @_ZL8statekey, i32 0, i64 7), align 1, !dbg !7306 ; [#uses=1 type=i8] [debug line = 160:1]
  %66 = zext i8 %65 to i32, !dbg !7306            ; [#uses=1 type=i32] [debug line = 160:1]
  %67 = xor i32 %66, %64, !dbg !7306              ; [#uses=1 type=i32] [debug line = 160:1]
  %68 = trunc i32 %67 to i8, !dbg !7306           ; [#uses=1 type=i8] [debug line = 160:1]
  store i8 %68, i8* getelementptr inbounds ([16 x i8]* @_ZL8statekey, i32 0, i64 7), align 1, !dbg !7306 ; [debug line = 160:1]
  %69 = load i8* getelementptr inbounds ([16 x i8]* @_ZL8statekey, i32 0, i64 4), align 1, !dbg !7307 ; [#uses=1 type=i8] [debug line = 162:1]
  %70 = zext i8 %69 to i32, !dbg !7307            ; [#uses=1 type=i32] [debug line = 162:1]
  %71 = load i8* getelementptr inbounds ([16 x i8]* @_ZL8statekey, i32 0, i64 8), align 1, !dbg !7307 ; [#uses=1 type=i8] [debug line = 162:1]
  %72 = zext i8 %71 to i32, !dbg !7307            ; [#uses=1 type=i32] [debug line = 162:1]
  %73 = xor i32 %72, %70, !dbg !7307              ; [#uses=1 type=i32] [debug line = 162:1]
  %74 = trunc i32 %73 to i8, !dbg !7307           ; [#uses=1 type=i8] [debug line = 162:1]
  store i8 %74, i8* getelementptr inbounds ([16 x i8]* @_ZL8statekey, i32 0, i64 8), align 1, !dbg !7307 ; [debug line = 162:1]
  %75 = load i8* getelementptr inbounds ([16 x i8]* @_ZL8statekey, i32 0, i64 5), align 1, !dbg !7308 ; [#uses=1 type=i8] [debug line = 163:1]
  %76 = zext i8 %75 to i32, !dbg !7308            ; [#uses=1 type=i32] [debug line = 163:1]
  %77 = load i8* getelementptr inbounds ([16 x i8]* @_ZL8statekey, i32 0, i64 9), align 1, !dbg !7308 ; [#uses=1 type=i8] [debug line = 163:1]
  %78 = zext i8 %77 to i32, !dbg !7308            ; [#uses=1 type=i32] [debug line = 163:1]
  %79 = xor i32 %78, %76, !dbg !7308              ; [#uses=1 type=i32] [debug line = 163:1]
  %80 = trunc i32 %79 to i8, !dbg !7308           ; [#uses=1 type=i8] [debug line = 163:1]
  store i8 %80, i8* getelementptr inbounds ([16 x i8]* @_ZL8statekey, i32 0, i64 9), align 1, !dbg !7308 ; [debug line = 163:1]
  %81 = load i8* getelementptr inbounds ([16 x i8]* @_ZL8statekey, i32 0, i64 6), align 1, !dbg !7309 ; [#uses=1 type=i8] [debug line = 164:1]
  %82 = zext i8 %81 to i32, !dbg !7309            ; [#uses=1 type=i32] [debug line = 164:1]
  %83 = load i8* getelementptr inbounds ([16 x i8]* @_ZL8statekey, i32 0, i64 10), align 1, !dbg !7309 ; [#uses=1 type=i8] [debug line = 164:1]
  %84 = zext i8 %83 to i32, !dbg !7309            ; [#uses=1 type=i32] [debug line = 164:1]
  %85 = xor i32 %84, %82, !dbg !7309              ; [#uses=1 type=i32] [debug line = 164:1]
  %86 = trunc i32 %85 to i8, !dbg !7309           ; [#uses=1 type=i8] [debug line = 164:1]
  store i8 %86, i8* getelementptr inbounds ([16 x i8]* @_ZL8statekey, i32 0, i64 10), align 1, !dbg !7309 ; [debug line = 164:1]
  %87 = load i8* getelementptr inbounds ([16 x i8]* @_ZL8statekey, i32 0, i64 7), align 1, !dbg !7310 ; [#uses=1 type=i8] [debug line = 165:1]
  %88 = zext i8 %87 to i32, !dbg !7310            ; [#uses=1 type=i32] [debug line = 165:1]
  %89 = load i8* getelementptr inbounds ([16 x i8]* @_ZL8statekey, i32 0, i64 11), align 1, !dbg !7310 ; [#uses=1 type=i8] [debug line = 165:1]
  %90 = zext i8 %89 to i32, !dbg !7310            ; [#uses=1 type=i32] [debug line = 165:1]
  %91 = xor i32 %90, %88, !dbg !7310              ; [#uses=1 type=i32] [debug line = 165:1]
  %92 = trunc i32 %91 to i8, !dbg !7310           ; [#uses=1 type=i8] [debug line = 165:1]
  store i8 %92, i8* getelementptr inbounds ([16 x i8]* @_ZL8statekey, i32 0, i64 11), align 1, !dbg !7310 ; [debug line = 165:1]
  %93 = load i8* getelementptr inbounds ([16 x i8]* @_ZL8statekey, i32 0, i64 8), align 1, !dbg !7311 ; [#uses=1 type=i8] [debug line = 167:1]
  %94 = zext i8 %93 to i32, !dbg !7311            ; [#uses=1 type=i32] [debug line = 167:1]
  %95 = load i8* getelementptr inbounds ([16 x i8]* @_ZL8statekey, i32 0, i64 12), align 1, !dbg !7311 ; [#uses=1 type=i8] [debug line = 167:1]
  %96 = zext i8 %95 to i32, !dbg !7311            ; [#uses=1 type=i32] [debug line = 167:1]
  %97 = xor i32 %96, %94, !dbg !7311              ; [#uses=1 type=i32] [debug line = 167:1]
  %98 = trunc i32 %97 to i8, !dbg !7311           ; [#uses=1 type=i8] [debug line = 167:1]
  store i8 %98, i8* getelementptr inbounds ([16 x i8]* @_ZL8statekey, i32 0, i64 12), align 1, !dbg !7311 ; [debug line = 167:1]
  %99 = load i8* getelementptr inbounds ([16 x i8]* @_ZL8statekey, i32 0, i64 9), align 1, !dbg !7312 ; [#uses=1 type=i8] [debug line = 168:1]
  %100 = zext i8 %99 to i32, !dbg !7312           ; [#uses=1 type=i32] [debug line = 168:1]
  %101 = load i8* getelementptr inbounds ([16 x i8]* @_ZL8statekey, i32 0, i64 13), align 1, !dbg !7312 ; [#uses=1 type=i8] [debug line = 168:1]
  %102 = zext i8 %101 to i32, !dbg !7312          ; [#uses=1 type=i32] [debug line = 168:1]
  %103 = xor i32 %102, %100, !dbg !7312           ; [#uses=1 type=i32] [debug line = 168:1]
  %104 = trunc i32 %103 to i8, !dbg !7312         ; [#uses=1 type=i8] [debug line = 168:1]
  store i8 %104, i8* getelementptr inbounds ([16 x i8]* @_ZL8statekey, i32 0, i64 13), align 1, !dbg !7312 ; [debug line = 168:1]
  %105 = load i8* getelementptr inbounds ([16 x i8]* @_ZL8statekey, i32 0, i64 10), align 1, !dbg !7313 ; [#uses=1 type=i8] [debug line = 169:1]
  %106 = zext i8 %105 to i32, !dbg !7313          ; [#uses=1 type=i32] [debug line = 169:1]
  %107 = load i8* getelementptr inbounds ([16 x i8]* @_ZL8statekey, i32 0, i64 14), align 1, !dbg !7313 ; [#uses=1 type=i8] [debug line = 169:1]
  %108 = zext i8 %107 to i32, !dbg !7313          ; [#uses=1 type=i32] [debug line = 169:1]
  %109 = xor i32 %108, %106, !dbg !7313           ; [#uses=1 type=i32] [debug line = 169:1]
  %110 = trunc i32 %109 to i8, !dbg !7313         ; [#uses=1 type=i8] [debug line = 169:1]
  store i8 %110, i8* getelementptr inbounds ([16 x i8]* @_ZL8statekey, i32 0, i64 14), align 1, !dbg !7313 ; [debug line = 169:1]
  %111 = load i8* getelementptr inbounds ([16 x i8]* @_ZL8statekey, i32 0, i64 11), align 1, !dbg !7314 ; [#uses=1 type=i8] [debug line = 170:1]
  %112 = zext i8 %111 to i32, !dbg !7314          ; [#uses=1 type=i32] [debug line = 170:1]
  %113 = load i8* getelementptr inbounds ([16 x i8]* @_ZL8statekey, i32 0, i64 15), align 1, !dbg !7314 ; [#uses=1 type=i8] [debug line = 170:1]
  %114 = zext i8 %113 to i32, !dbg !7314          ; [#uses=1 type=i32] [debug line = 170:1]
  %115 = xor i32 %114, %112, !dbg !7314           ; [#uses=1 type=i32] [debug line = 170:1]
  %116 = trunc i32 %115 to i8, !dbg !7314         ; [#uses=1 type=i8] [debug line = 170:1]
  store i8 %116, i8* getelementptr inbounds ([16 x i8]* @_ZL8statekey, i32 0, i64 15), align 1, !dbg !7314 ; [debug line = 170:1]
  ret void, !dbg !7315                            ; [debug line = 171:1]
}

; [#uses=1]
define void @_Z7aestestP7ap_uintILi128EES1_S1_(%struct.ap_uint* %inptext, %struct.ap_uint* %key, %struct.ap_uint* %outtext) nounwind uwtable {
  %1 = alloca %struct.ap_uint*, align 8           ; [#uses=2 type=%struct.ap_uint**]
  %2 = alloca %struct.ap_uint*, align 8           ; [#uses=2 type=%struct.ap_uint**]
  %3 = alloca %struct.ap_uint*, align 8           ; [#uses=2 type=%struct.ap_uint**]
  %i = alloca i32, align 4                        ; [#uses=23 type=i32*]
  %4 = alloca %struct.ap_range_ref, align 8       ; [#uses=2 type=%struct.ap_range_ref*]
  %5 = alloca %struct.ap_range_ref, align 8       ; [#uses=2 type=%struct.ap_range_ref*]
  %out = alloca %struct.ap_uint, align 16         ; [#uses=3 type=%struct.ap_uint*]
  %6 = alloca %struct.ap_range_ref, align 8       ; [#uses=2 type=%struct.ap_range_ref*]
  store %struct.ap_uint* %inptext, %struct.ap_uint** %1, align 8
  call void @llvm.dbg.declare(metadata !{%struct.ap_uint** %1}, metadata !7316), !dbg !7317 ; [debug line = 173:28] [debug variable = inptext]
  store %struct.ap_uint* %key, %struct.ap_uint** %2, align 8
  call void @llvm.dbg.declare(metadata !{%struct.ap_uint** %2}, metadata !7318), !dbg !7319 ; [debug line = 173:51] [debug variable = key]
  store %struct.ap_uint* %outtext, %struct.ap_uint** %3, align 8
  call void @llvm.dbg.declare(metadata !{%struct.ap_uint** %3}, metadata !7320), !dbg !7321 ; [debug line = 173:70] [debug variable = outtext]
  call void (...)* @_ssdm_SpecArrayPartition(i8* getelementptr inbounds ([16 x i8]* @_ZL5state, i32 0, i32 0), i32 1, i8* getelementptr inbounds ([9 x i8]* @.str18, i32 0, i32 0), i32 0, i8* getelementptr inbounds ([1 x i8]* @.str7, i32 0, i32 0)) nounwind, !dbg !7322 ; [debug line = 182:1]
  call void (...)* @_ssdm_SpecArrayPartition(i8* getelementptr inbounds ([16 x i8]* @_ZL8statekey, i32 0, i32 0), i32 1, i8* getelementptr inbounds ([9 x i8]* @.str18, i32 0, i32 0), i32 0, i8* getelementptr inbounds ([1 x i8]* @.str7, i32 0, i32 0)) nounwind, !dbg !7324 ; [debug line = 183:1]
  call void (...)* @_ssdm_op_SpecPipeline(i32 -1, i32 1, i32 1, i32 0, i8* getelementptr inbounds ([1 x i8]* @.str7, i32 0, i32 0)) nounwind, !dbg !7325 ; [debug line = 184:1]
  call void (...)* @_ssdm_InlineAll(i32 1, i8* getelementptr inbounds ([1 x i8]* @.str7, i32 0, i32 0)) nounwind, !dbg !7326 ; [debug line = 185:1]
  call void @llvm.dbg.declare(metadata !{i32* %i}, metadata !7327), !dbg !7328 ; [debug line = 187:5] [debug variable = i]
  br label %7, !dbg !7329                         ; [debug line = 187:6]

; <label>:7                                       ; preds = %0
  store i32 0, i32* %i, align 4, !dbg !7330       ; [debug line = 188:15]
  br label %8, !dbg !7330                         ; [debug line = 188:15]

; <label>:8                                       ; preds = %38, %7
  %9 = load i32* %i, align 4, !dbg !7330          ; [#uses=1 type=i32] [debug line = 188:15]
  %10 = icmp slt i32 %9, 16, !dbg !7330           ; [#uses=1 type=i1] [debug line = 188:15]
  br i1 %10, label %11, label %41, !dbg !7330     ; [debug line = 188:15]

; <label>:11                                      ; preds = %8
  call void (...)* @_ssdm_op_SpecLoopName(i8* getelementptr inbounds ([9 x i8]* @.str29, i32 0, i32 0)) nounwind, !dbg !7332 ; [debug line = 189:2]
  call void (...)* @_ssdm_RegionBegin(i8* getelementptr inbounds ([9 x i8]* @.str29, i32 0, i32 0)) nounwind, !dbg !7332 ; [debug line = 189:2]
  call void (...)* @_ssdm_Unroll(i32 0, i32 0, i32 0, i8* getelementptr inbounds ([1 x i8]* @.str7, i32 0, i32 0)) nounwind, !dbg !7334 ; [debug line = 190:1]
  %12 = load %struct.ap_uint** %1, align 8, !dbg !7335 ; [#uses=1 type=%struct.ap_uint*] [debug line = 191:12]
  %13 = bitcast %struct.ap_uint* %12 to %struct.ap_int_base*, !dbg !7335 ; [#uses=1 type=%struct.ap_int_base*] [debug line = 191:12]
  %14 = load i32* %i, align 4, !dbg !7335         ; [#uses=1 type=i32] [debug line = 191:12]
  %15 = mul nsw i32 %14, 8, !dbg !7335            ; [#uses=1 type=i32] [debug line = 191:12]
  %16 = sub nsw i32 127, %15, !dbg !7335          ; [#uses=1 type=i32] [debug line = 191:12]
  %17 = load i32* %i, align 4, !dbg !7335         ; [#uses=1 type=i32] [debug line = 191:12]
  %18 = mul nsw i32 %17, 8, !dbg !7335            ; [#uses=1 type=i32] [debug line = 191:12]
  %19 = sub nsw i32 120, %18, !dbg !7335          ; [#uses=1 type=i32] [debug line = 191:12]
  call void @_ZN11ap_int_baseILi128ELb0ELb0EE5rangeEii(%struct.ap_range_ref* sret %4, %struct.ap_int_base* %13, i32 %16, i32 %19), !dbg !7335 ; [debug line = 191:12]
  %20 = call i64 @_ZNK12ap_range_refILi128ELb0EEcvyEv(%struct.ap_range_ref* %4), !dbg !7335 ; [#uses=1 type=i64] [debug line = 191:12]
  %21 = trunc i64 %20 to i8, !dbg !7335           ; [#uses=1 type=i8] [debug line = 191:12]
  %22 = load i32* %i, align 4, !dbg !7335         ; [#uses=1 type=i32] [debug line = 191:12]
  %23 = sext i32 %22 to i64, !dbg !7335           ; [#uses=1 type=i64] [debug line = 191:12]
  %24 = getelementptr inbounds [16 x i8]* @_ZL5state, i32 0, i64 %23, !dbg !7335 ; [#uses=1 type=i8*] [debug line = 191:12]
  store i8 %21, i8* %24, align 1, !dbg !7335      ; [debug line = 191:12]
  %25 = load %struct.ap_uint** %2, align 8, !dbg !7336 ; [#uses=1 type=%struct.ap_uint*] [debug line = 192:15]
  %26 = bitcast %struct.ap_uint* %25 to %struct.ap_int_base*, !dbg !7336 ; [#uses=1 type=%struct.ap_int_base*] [debug line = 192:15]
  %27 = load i32* %i, align 4, !dbg !7336         ; [#uses=1 type=i32] [debug line = 192:15]
  %28 = mul nsw i32 %27, 8, !dbg !7336            ; [#uses=1 type=i32] [debug line = 192:15]
  %29 = sub nsw i32 127, %28, !dbg !7336          ; [#uses=1 type=i32] [debug line = 192:15]
  %30 = load i32* %i, align 4, !dbg !7336         ; [#uses=1 type=i32] [debug line = 192:15]
  %31 = mul nsw i32 %30, 8, !dbg !7336            ; [#uses=1 type=i32] [debug line = 192:15]
  %32 = sub nsw i32 120, %31, !dbg !7336          ; [#uses=1 type=i32] [debug line = 192:15]
  call void @_ZN11ap_int_baseILi128ELb0ELb0EE5rangeEii(%struct.ap_range_ref* sret %5, %struct.ap_int_base* %26, i32 %29, i32 %32), !dbg !7336 ; [debug line = 192:15]
  %33 = call i64 @_ZNK12ap_range_refILi128ELb0EEcvyEv(%struct.ap_range_ref* %5), !dbg !7336 ; [#uses=1 type=i64] [debug line = 192:15]
  %34 = trunc i64 %33 to i8, !dbg !7336           ; [#uses=1 type=i8] [debug line = 192:15]
  %35 = load i32* %i, align 4, !dbg !7336         ; [#uses=1 type=i32] [debug line = 192:15]
  %36 = sext i32 %35 to i64, !dbg !7336           ; [#uses=1 type=i64] [debug line = 192:15]
  %37 = getelementptr inbounds [16 x i8]* @_ZL8statekey, i32 0, i64 %36, !dbg !7336 ; [#uses=1 type=i8*] [debug line = 192:15]
  store i8 %34, i8* %37, align 1, !dbg !7336      ; [debug line = 192:15]
  call void (...)* @_ssdm_RegionEnd(i8* getelementptr inbounds ([9 x i8]* @.str29, i32 0, i32 0)) nounwind, !dbg !7337 ; [debug line = 193:1]
  br label %38, !dbg !7337                        ; [debug line = 193:1]

; <label>:38                                      ; preds = %11
  %39 = load i32* %i, align 4, !dbg !7338         ; [#uses=1 type=i32] [debug line = 188:28]
  %40 = add nsw i32 %39, 1, !dbg !7338            ; [#uses=1 type=i32] [debug line = 188:28]
  store i32 %40, i32* %i, align 4, !dbg !7338     ; [debug line = 188:28]
  br label %8, !dbg !7338                         ; [debug line = 188:28]

; <label>:41                                      ; preds = %8
  call void @_Z11addRoundKeyv(), !dbg !7339       ; [debug line = 195:1]
  call void (...)* @_ssdm_SpecConstant(i8* getelementptr inbounds ([13 x i8]* @_ZZ7aestestP7ap_uintILi128EES1_S1_E4rcon, i32 0, i32 0)) nounwind, !dbg !7340 ; [debug line = 198:1]
  br label %42, !dbg !7340                        ; [debug line = 198:1]

; <label>:42                                      ; preds = %41
  store i32 0, i32* %i, align 4, !dbg !7341       ; [debug line = 199:15]
  br label %43, !dbg !7341                        ; [debug line = 199:15]

; <label>:43                                      ; preds = %51, %42
  %44 = load i32* %i, align 4, !dbg !7341         ; [#uses=1 type=i32] [debug line = 199:15]
  %45 = icmp slt i32 %44, 9, !dbg !7341           ; [#uses=1 type=i1] [debug line = 199:15]
  br i1 %45, label %46, label %54, !dbg !7341     ; [debug line = 199:15]

; <label>:46                                      ; preds = %43
  call void (...)* @_ssdm_op_SpecLoopName(i8* getelementptr inbounds ([9 x i8]* @.str310, i32 0, i32 0)) nounwind, !dbg !7343 ; [debug line = 200:2]
  call void (...)* @_ssdm_RegionBegin(i8* getelementptr inbounds ([9 x i8]* @.str310, i32 0, i32 0)) nounwind, !dbg !7343 ; [debug line = 200:2]
  call void @_Z8subBytesv(), !dbg !7345           ; [debug line = 201:1]
  call void @_Z9shiftRowsv(), !dbg !7346          ; [debug line = 202:1]
  call void @_Z10mixColumnsv(), !dbg !7347        ; [debug line = 203:1]
  %47 = load i32* %i, align 4, !dbg !7348         ; [#uses=1 type=i32] [debug line = 204:1]
  %48 = sext i32 %47 to i64, !dbg !7348           ; [#uses=1 type=i64] [debug line = 204:1]
  %49 = getelementptr inbounds [13 x i8]* @_ZZ7aestestP7ap_uintILi128EES1_S1_E4rcon, i32 0, i64 %48, !dbg !7348 ; [#uses=1 type=i8*] [debug line = 204:1]
  %50 = load i8* %49, align 1, !dbg !7348         ; [#uses=1 type=i8] [debug line = 204:1]
  call void @_Z10computeKeyh(i8 zeroext %50), !dbg !7348 ; [debug line = 204:1]
  call void @_Z11addRoundKeyv(), !dbg !7349       ; [debug line = 205:1]
  call void (...)* @_ssdm_RegionEnd(i8* getelementptr inbounds ([9 x i8]* @.str310, i32 0, i32 0)) nounwind, !dbg !7350 ; [debug line = 206:1]
  br label %51, !dbg !7350                        ; [debug line = 206:1]

; <label>:51                                      ; preds = %46
  %52 = load i32* %i, align 4, !dbg !7351         ; [#uses=1 type=i32] [debug line = 199:29]
  %53 = add nsw i32 %52, 1, !dbg !7351            ; [#uses=1 type=i32] [debug line = 199:29]
  store i32 %53, i32* %i, align 4, !dbg !7351     ; [debug line = 199:29]
  br label %43, !dbg !7351                        ; [debug line = 199:29]

; <label>:54                                      ; preds = %43
  call void @_Z8subBytesv(), !dbg !7352           ; [debug line = 208:1]
  call void @_Z9shiftRowsv(), !dbg !7353          ; [debug line = 209:1]
  %55 = load i32* %i, align 4, !dbg !7354         ; [#uses=1 type=i32] [debug line = 210:1]
  %56 = sext i32 %55 to i64, !dbg !7354           ; [#uses=1 type=i64] [debug line = 210:1]
  %57 = getelementptr inbounds [13 x i8]* @_ZZ7aestestP7ap_uintILi128EES1_S1_E4rcon, i32 0, i64 %56, !dbg !7354 ; [#uses=1 type=i8*] [debug line = 210:1]
  %58 = load i8* %57, align 1, !dbg !7354         ; [#uses=1 type=i8] [debug line = 210:1]
  call void @_Z10computeKeyh(i8 zeroext %58), !dbg !7354 ; [debug line = 210:1]
  call void @_Z11addRoundKeyv(), !dbg !7355       ; [debug line = 211:1]
  call void @llvm.dbg.declare(metadata !{%struct.ap_uint* %out}, metadata !7356), !dbg !7357 ; [debug line = 213:14] [debug variable = out]
  call void @_ZN7ap_uintILi128EEC1Ev(%struct.ap_uint* %out), !dbg !7358 ; [debug line = 213:17]
  br label %59, !dbg !7358                        ; [debug line = 213:17]

; <label>:59                                      ; preds = %54
  store i32 0, i32* %i, align 4, !dbg !7359       ; [debug line = 214:15]
  br label %60, !dbg !7359                        ; [debug line = 214:15]

; <label>:60                                      ; preds = %77, %59
  %61 = load i32* %i, align 4, !dbg !7359         ; [#uses=1 type=i32] [debug line = 214:15]
  %62 = icmp slt i32 %61, 16, !dbg !7359          ; [#uses=1 type=i1] [debug line = 214:15]
  br i1 %62, label %63, label %80, !dbg !7359     ; [debug line = 214:15]

; <label>:63                                      ; preds = %60
  call void (...)* @_ssdm_op_SpecLoopName(i8* getelementptr inbounds ([9 x i8]* @.str411, i32 0, i32 0)) nounwind, !dbg !7361 ; [debug line = 215:2]
  call void (...)* @_ssdm_RegionBegin(i8* getelementptr inbounds ([9 x i8]* @.str411, i32 0, i32 0)) nounwind, !dbg !7361 ; [debug line = 215:2]
  call void (...)* @_ssdm_Unroll(i32 0, i32 0, i32 0, i8* getelementptr inbounds ([1 x i8]* @.str7, i32 0, i32 0)) nounwind, !dbg !7363 ; [debug line = 216:1]
  %64 = bitcast %struct.ap_uint* %out to %struct.ap_int_base*, !dbg !7364 ; [#uses=1 type=%struct.ap_int_base*] [debug line = 217:1]
  %65 = load i32* %i, align 4, !dbg !7364         ; [#uses=1 type=i32] [debug line = 217:1]
  %66 = mul nsw i32 %65, 8, !dbg !7364            ; [#uses=1 type=i32] [debug line = 217:1]
  %67 = sub nsw i32 127, %66, !dbg !7364          ; [#uses=1 type=i32] [debug line = 217:1]
  %68 = load i32* %i, align 4, !dbg !7364         ; [#uses=1 type=i32] [debug line = 217:1]
  %69 = mul nsw i32 %68, 8, !dbg !7364            ; [#uses=1 type=i32] [debug line = 217:1]
  %70 = sub nsw i32 120, %69, !dbg !7364          ; [#uses=1 type=i32] [debug line = 217:1]
  call void @_ZN11ap_int_baseILi128ELb0ELb0EE5rangeEii(%struct.ap_range_ref* sret %6, %struct.ap_int_base* %64, i32 %67, i32 %70), !dbg !7364 ; [debug line = 217:1]
  %71 = load i32* %i, align 4, !dbg !7364         ; [#uses=1 type=i32] [debug line = 217:1]
  %72 = sext i32 %71 to i64, !dbg !7364           ; [#uses=1 type=i64] [debug line = 217:1]
  %73 = getelementptr inbounds [16 x i8]* @_ZL5state, i32 0, i64 %72, !dbg !7364 ; [#uses=1 type=i8*] [debug line = 217:1]
  %74 = load i8* %73, align 1, !dbg !7364         ; [#uses=1 type=i8] [debug line = 217:1]
  %75 = zext i8 %74 to i64, !dbg !7364            ; [#uses=1 type=i64] [debug line = 217:1]
  %76 = call %struct.ap_range_ref* @_ZN12ap_range_refILi128ELb0EEaSEy(%struct.ap_range_ref* %6, i64 %75), !dbg !7364 ; [#uses=0 type=%struct.ap_range_ref*] [debug line = 217:1]
  call void (...)* @_ssdm_RegionEnd(i8* getelementptr inbounds ([9 x i8]* @.str411, i32 0, i32 0)) nounwind, !dbg !7365 ; [debug line = 218:1]
  br label %77, !dbg !7365                        ; [debug line = 218:1]

; <label>:77                                      ; preds = %63
  %78 = load i32* %i, align 4, !dbg !7366         ; [#uses=1 type=i32] [debug line = 214:28]
  %79 = add nsw i32 %78, 1, !dbg !7366            ; [#uses=1 type=i32] [debug line = 214:28]
  store i32 %79, i32* %i, align 4, !dbg !7366     ; [debug line = 214:28]
  br label %60, !dbg !7366                        ; [debug line = 214:28]

; <label>:80                                      ; preds = %60
  %81 = load %struct.ap_uint** %3, align 8, !dbg !7367 ; [#uses=1 type=%struct.ap_uint*] [debug line = 220:1]
  %82 = call %struct.ap_uint* @_ZN7ap_uintILi128EEaSERKS0_(%struct.ap_uint* %81, %struct.ap_uint* %out), !dbg !7367 ; [#uses=0 type=%struct.ap_uint*] [debug line = 220:1]
  ret void, !dbg !7368                            ; [debug line = 222:1]
}

; [#uses=2]
declare void @_ssdm_SpecArrayPartition(...) nounwind

; [#uses=1]
declare void @_ssdm_InlineAll(...) nounwind

; [#uses=3]
declare void @_ssdm_op_SpecLoopName(...) nounwind

; [#uses=3]
define linkonce_odr void @_ZN11ap_int_baseILi128ELb0ELb0EE5rangeEii(%struct.ap_range_ref* noalias sret %agg.result, %struct.ap_int_base* %this, i32 %Hi, i32 %Lo) nounwind uwtable inlinehint alwaysinline align 2 {
  %1 = alloca %struct.ap_int_base*, align 8       ; [#uses=2 type=%struct.ap_int_base**]
  %2 = alloca i32, align 4                        ; [#uses=2 type=i32*]
  %3 = alloca i32, align 4                        ; [#uses=2 type=i32*]
  store %struct.ap_int_base* %this, %struct.ap_int_base** %1, align 8
  call void @llvm.dbg.declare(metadata !{%struct.ap_int_base** %1}, metadata !7369), !dbg !7370 ; [debug line = 2953:5] [debug variable = this]
  store i32 %Hi, i32* %2, align 4
  call void @llvm.dbg.declare(metadata !{i32* %2}, metadata !7371), !dbg !7372 ; [debug line = 2953:16] [debug variable = Hi]
  store i32 %Lo, i32* %3, align 4
  call void @llvm.dbg.declare(metadata !{i32* %3}, metadata !7373), !dbg !7374 ; [debug line = 2953:24] [debug variable = Lo]
  %4 = load %struct.ap_int_base** %1              ; [#uses=1 type=%struct.ap_int_base*]
  %5 = load i32* %2, align 4, !dbg !7375          ; [#uses=1 type=i32] [debug line = 2955:9]
  %6 = load i32* %3, align 4, !dbg !7375          ; [#uses=1 type=i32] [debug line = 2955:9]
  call void @_ZN12ap_range_refILi128ELb0EEC1EP11ap_int_baseILi128ELb0ELb0EEii(%struct.ap_range_ref* %agg.result, %struct.ap_int_base* %4, i32 %5, i32 %6), !dbg !7375 ; [debug line = 2955:9]
  ret void, !dbg !7375                            ; [debug line = 2955:9]
}

; [#uses=2]
define linkonce_odr i64 @_ZNK12ap_range_refILi128ELb0EEcvyEv(%struct.ap_range_ref* %this) nounwind uwtable inlinehint alwaysinline align 2 {
  %1 = alloca %struct.ap_range_ref*, align 8      ; [#uses=2 type=%struct.ap_range_ref**]
  store %struct.ap_range_ref* %this, %struct.ap_range_ref** %1, align 8
  call void @llvm.dbg.declare(metadata !{%struct.ap_range_ref** %1}, metadata !7377), !dbg !7379 ; [debug line = 944:43] [debug variable = this]
  %2 = load %struct.ap_range_ref** %1             ; [#uses=1 type=%struct.ap_range_ref*]
  %3 = call i64 @_ZNK12ap_range_refILi128ELb0EE9to_uint64Ev(%struct.ap_range_ref* %2), !dbg !7380 ; [#uses=1 type=i64] [debug line = 945:16]
  ret i64 %3, !dbg !7380                          ; [debug line = 945:16]
}

; [#uses=2]
declare void @_ssdm_SpecConstant(...) nounwind

; [#uses=1]
define linkonce_odr %struct.ap_range_ref* @_ZN12ap_range_refILi128ELb0EEaSEy(%struct.ap_range_ref* %this, i64 %val) nounwind uwtable inlinehint alwaysinline align 2 {
  %1 = alloca %struct.ap_range_ref*, align 8      ; [#uses=2 type=%struct.ap_range_ref**]
  %2 = alloca i64, align 8                        ; [#uses=2 type=i64*]
  %loc = alloca %struct.ap_int_base, align 16     ; [#uses=2 type=%struct.ap_int_base*]
  %__Result__ = alloca i128, align 16             ; [#uses=4 type=i128*]
  %__Val2__ = alloca i128, align 16               ; [#uses=3 type=i128*]
  %__Repl2__ = alloca i128, align 16              ; [#uses=3 type=i128*]
  store %struct.ap_range_ref* %this, %struct.ap_range_ref** %1, align 8
  call void @llvm.dbg.declare(metadata !{%struct.ap_range_ref** %1}, metadata !7382), !dbg !7384 ; [debug line = 948:57] [debug variable = this]
  store i64 %val, i64* %2, align 8
  call void @llvm.dbg.declare(metadata !{i64* %2}, metadata !7385), !dbg !7386 ; [debug line = 948:88] [debug variable = val]
  %3 = load %struct.ap_range_ref** %1             ; [#uses=5 type=%struct.ap_range_ref*]
  call void @llvm.dbg.declare(metadata !{%struct.ap_int_base* %loc}, metadata !7387), !dbg !7389 ; [debug line = 949:35] [debug variable = loc]
  %4 = load i64* %2, align 8, !dbg !7390          ; [#uses=1 type=i64] [debug line = 949:43]
  call void @_ZN11ap_int_baseILi128ELb0ELb0EEC1Ey(%struct.ap_int_base* %loc, i64 %4), !dbg !7390 ; [debug line = 949:43]
  call void @llvm.dbg.declare(metadata !{i128* %__Result__}, metadata !7391), !dbg !7393 ; [debug line = 950:36] [debug variable = __Result__]
  store i128 0, i128* %__Result__, align 16, !dbg !7394 ; [debug line = 950:50]
  call void @llvm.dbg.declare(metadata !{i128* %__Val2__}, metadata !7395), !dbg !7396 ; [debug line = 950:67] [debug variable = __Val2__]
  %5 = getelementptr inbounds %struct.ap_range_ref* %3, i32 0, i32 0, !dbg !7397 ; [#uses=1 type=%struct.ap_int_base**] [debug line = 950:84]
  %6 = load %struct.ap_int_base** %5, align 8, !dbg !7397 ; [#uses=1 type=%struct.ap_int_base*] [debug line = 950:84]
  %7 = bitcast %struct.ap_int_base* %6 to %struct.ssdm_int*, !dbg !7397 ; [#uses=1 type=%struct.ssdm_int*] [debug line = 950:84]
  %8 = getelementptr inbounds %struct.ssdm_int* %7, i32 0, i32 0, !dbg !7397 ; [#uses=1 type=i128*] [debug line = 950:84]
  %9 = load i128* %8, align 16, !dbg !7397        ; [#uses=1 type=i128] [debug line = 950:84]
  store i128 %9, i128* %__Val2__, align 16, !dbg !7397 ; [debug line = 950:84]
  call void @llvm.dbg.declare(metadata !{i128* %__Repl2__}, metadata !7398), !dbg !7399 ; [debug line = 950:100] [debug variable = __Repl2__]
  %10 = bitcast %struct.ap_int_base* %loc to %struct.ssdm_int*, !dbg !7400 ; [#uses=1 type=%struct.ssdm_int*] [debug line = 950:117]
  %11 = getelementptr inbounds %struct.ssdm_int* %10, i32 0, i32 0, !dbg !7400 ; [#uses=1 type=i128*] [debug line = 950:117]
  %12 = load i128* %11, align 16, !dbg !7400      ; [#uses=1 type=i128] [debug line = 950:117]
  store i128 %12, i128* %__Repl2__, align 16, !dbg !7400 ; [debug line = 950:117]
  %13 = bitcast i128* %__Result__ to i8*, !dbg !7401 ; [#uses=0 type=i8*] [debug line = 950:119]
  %14 = bitcast i128* %__Val2__ to i8*, !dbg !7401 ; [#uses=0 type=i8*] [debug line = 950:119]
  %15 = bitcast i128* %__Repl2__ to i8*, !dbg !7401 ; [#uses=0 type=i8*] [debug line = 950:119]
  %16 = getelementptr inbounds %struct.ap_range_ref* %3, i32 0, i32 1, !dbg !7401 ; [#uses=1 type=i32*] [debug line = 950:119]
  %17 = load i32* %16, align 4, !dbg !7401        ; [#uses=1 type=i32] [debug line = 950:119]
  %18 = getelementptr inbounds %struct.ap_range_ref* %3, i32 0, i32 2, !dbg !7401 ; [#uses=1 type=i32*] [debug line = 950:119]
  %19 = load i32* %18, align 4, !dbg !7401        ; [#uses=1 type=i32] [debug line = 950:119]
  %20 = load i128* %__Val2__, !dbg !7401          ; [#uses=1 type=i128] [debug line = 950:119]
  %21 = load i128* %__Repl2__, !dbg !7401         ; [#uses=1 type=i128] [debug line = 950:119]
  %22 = call i128 @llvm.part.set.i128.i128(i128 %20, i128 %21, i32 %17, i32 %19), !dbg !7401 ; [#uses=1 type=i128] [debug line = 950:119]
  store i128 %22, i128* %__Result__, !dbg !7401   ; [debug line = 950:119]
  %23 = load i128* %__Result__, align 16, !dbg !7401 ; [#uses=1 type=i128] [debug line = 950:119]
  %24 = getelementptr inbounds %struct.ap_range_ref* %3, i32 0, i32 0, !dbg !7402 ; [#uses=1 type=%struct.ap_int_base**] [debug line = 950:236]
  %25 = load %struct.ap_int_base** %24, align 8, !dbg !7402 ; [#uses=1 type=%struct.ap_int_base*] [debug line = 950:236]
  %26 = bitcast %struct.ap_int_base* %25 to %struct.ssdm_int*, !dbg !7402 ; [#uses=1 type=%struct.ssdm_int*] [debug line = 950:236]
  %27 = getelementptr inbounds %struct.ssdm_int* %26, i32 0, i32 0, !dbg !7402 ; [#uses=1 type=i128*] [debug line = 950:236]
  store i128 %23, i128* %27, align 16, !dbg !7402 ; [debug line = 950:236]
  ret %struct.ap_range_ref* %3, !dbg !7403        ; [debug line = 951:9]
}

; [#uses=1]
define internal void @__cxx_global_var_init5() nounwind section ".text.startup" {
  call void @_ZN36ssdm_global_array_aespp0cppaplinecppC1Ev(%class.ssdm_global_array_aespp0cppaplinecpp* @_ZL21ssdm_global_array_ins)
  ret void
}

; [#uses=1]
define linkonce_odr void @_ZN36ssdm_global_array_aespp0cppaplinecppC1Ev(%class.ssdm_global_array_aespp0cppaplinecpp* %this) unnamed_addr nounwind uwtable inlinehint alwaysinline align 2 {
  %1 = alloca %class.ssdm_global_array_aespp0cppaplinecpp*, align 8 ; [#uses=2 type=%class.ssdm_global_array_aespp0cppaplinecpp**]
  store %class.ssdm_global_array_aespp0cppaplinecpp* %this, %class.ssdm_global_array_aespp0cppaplinecpp** %1, align 8
  call void @llvm.dbg.declare(metadata !{%class.ssdm_global_array_aespp0cppaplinecpp** %1}, metadata !7404), !dbg !7406 ; [debug line = 226:42] [debug variable = this]
  %2 = load %class.ssdm_global_array_aespp0cppaplinecpp** %1 ; [#uses=1 type=%class.ssdm_global_array_aespp0cppaplinecpp*]
  call void @_ZN36ssdm_global_array_aespp0cppaplinecppC2Ev(%class.ssdm_global_array_aespp0cppaplinecpp* %2), !dbg !7407 ; [debug line = 228:3]
  ret void, !dbg !7407                            ; [debug line = 228:3]
}

; [#uses=1]
define linkonce_odr void @_ZN11ap_int_baseILi128ELb0ELb0EEC1Ey(%struct.ap_int_base* %this, i64 %op) unnamed_addr nounwind uwtable inlinehint alwaysinline align 2 {
  %1 = alloca %struct.ap_int_base*, align 8       ; [#uses=2 type=%struct.ap_int_base**]
  %2 = alloca i64, align 8                        ; [#uses=2 type=i64*]
  store %struct.ap_int_base* %this, %struct.ap_int_base** %1, align 8
  call void @llvm.dbg.declare(metadata !{%struct.ap_int_base** %1}, metadata !7408), !dbg !7409 ; [debug line = 2413:52] [debug variable = this]
  store i64 %op, i64* %2, align 8
  call void @llvm.dbg.declare(metadata !{i64* %2}, metadata !7410), !dbg !7411 ; [debug line = 2413:73] [debug variable = op]
  %3 = load %struct.ap_int_base** %1              ; [#uses=1 type=%struct.ap_int_base*]
  %4 = load i64* %2, align 8, !dbg !7412          ; [#uses=1 type=i64] [debug line = 2413:93]
  call void @_ZN11ap_int_baseILi128ELb0ELb0EEC2Ey(%struct.ap_int_base* %3, i64 %4), !dbg !7412 ; [debug line = 2413:93]
  ret void, !dbg !7412                            ; [debug line = 2413:93]
}

; [#uses=1]
declare i128 @llvm.part.set.i128.i128(i128, i128, i32, i32) nounwind readnone

; [#uses=1]
define linkonce_odr void @_ZN11ap_int_baseILi128ELb0ELb0EEC2Ey(%struct.ap_int_base* %this, i64 %op) unnamed_addr nounwind uwtable inlinehint alwaysinline align 2 {
  %1 = alloca %struct.ap_int_base*, align 8       ; [#uses=2 type=%struct.ap_int_base**]
  %2 = alloca i64, align 8                        ; [#uses=2 type=i64*]
  store %struct.ap_int_base* %this, %struct.ap_int_base** %1, align 8
  call void @llvm.dbg.declare(metadata !{%struct.ap_int_base** %1}, metadata !7413), !dbg !7414 ; [debug line = 2413:52] [debug variable = this]
  store i64 %op, i64* %2, align 8
  call void @llvm.dbg.declare(metadata !{i64* %2}, metadata !7415), !dbg !7416 ; [debug line = 2413:73] [debug variable = op]
  %3 = load %struct.ap_int_base** %1              ; [#uses=2 type=%struct.ap_int_base*]
  %4 = bitcast %struct.ap_int_base* %3 to %struct.ssdm_int*, !dbg !7417 ; [#uses=1 type=%struct.ssdm_int*] [debug line = 2413:77]
  call void @_ZN8ssdm_intILi128ELb0EEC2Ev(%struct.ssdm_int* %4), !dbg !7417 ; [debug line = 2413:77]
  %5 = load i64* %2, align 8, !dbg !7418          ; [#uses=1 type=i64] [debug line = 2413:79]
  %6 = zext i64 %5 to i128, !dbg !7418            ; [#uses=1 type=i128] [debug line = 2413:79]
  %7 = bitcast %struct.ap_int_base* %3 to %struct.ssdm_int*, !dbg !7418 ; [#uses=1 type=%struct.ssdm_int*] [debug line = 2413:79]
  %8 = getelementptr inbounds %struct.ssdm_int* %7, i32 0, i32 0, !dbg !7418 ; [#uses=1 type=i128*] [debug line = 2413:79]
  store i128 %6, i128* %8, align 16, !dbg !7418   ; [debug line = 2413:79]
  ret void, !dbg !7420                            ; [debug line = 2413:93]
}

; [#uses=1]
define linkonce_odr i64 @_ZNK12ap_range_refILi128ELb0EE9to_uint64Ev(%struct.ap_range_ref* %this) nounwind uwtable inlinehint alwaysinline align 2 {
  %1 = alloca %struct.ap_range_ref*, align 8      ; [#uses=2 type=%struct.ap_range_ref**]
  %__Result__ = alloca i128, align 16             ; [#uses=4 type=i128*]
  %__Val2__ = alloca i128, align 16               ; [#uses=3 type=i128*]
  store %struct.ap_range_ref* %this, %struct.ap_range_ref** %1, align 8
  call void @llvm.dbg.declare(metadata !{%struct.ap_range_ref** %1}, metadata !7421), !dbg !7422 ; [debug line = 1151:52] [debug variable = this]
  %2 = load %struct.ap_range_ref** %1             ; [#uses=3 type=%struct.ap_range_ref*]
  call void @llvm.dbg.declare(metadata !{i128* %__Result__}, metadata !7423), !dbg !7426 ; [debug line = 1152:45] [debug variable = __Result__]
  store i128 0, i128* %__Result__, align 16, !dbg !7427 ; [debug line = 1152:59]
  call void @llvm.dbg.declare(metadata !{i128* %__Val2__}, metadata !7428), !dbg !7429 ; [debug line = 1152:76] [debug variable = __Val2__]
  %3 = getelementptr inbounds %struct.ap_range_ref* %2, i32 0, i32 0, !dbg !7430 ; [#uses=1 type=%struct.ap_int_base**] [debug line = 1152:93]
  %4 = load %struct.ap_int_base** %3, align 8, !dbg !7430 ; [#uses=1 type=%struct.ap_int_base*] [debug line = 1152:93]
  %5 = bitcast %struct.ap_int_base* %4 to %struct.ssdm_int*, !dbg !7430 ; [#uses=1 type=%struct.ssdm_int*] [debug line = 1152:93]
  %6 = getelementptr inbounds %struct.ssdm_int* %5, i32 0, i32 0, !dbg !7430 ; [#uses=1 type=i128*] [debug line = 1152:93]
  %7 = load i128* %6, align 16, !dbg !7430        ; [#uses=1 type=i128] [debug line = 1152:93]
  store i128 %7, i128* %__Val2__, align 16, !dbg !7430 ; [debug line = 1152:93]
  %8 = bitcast i128* %__Result__ to i8*, !dbg !7431 ; [#uses=0 type=i8*] [debug line = 1152:95]
  %9 = bitcast i128* %__Val2__ to i8*, !dbg !7431 ; [#uses=0 type=i8*] [debug line = 1152:95]
  %10 = getelementptr inbounds %struct.ap_range_ref* %2, i32 0, i32 1, !dbg !7431 ; [#uses=1 type=i32*] [debug line = 1152:95]
  %11 = load i32* %10, align 4, !dbg !7431        ; [#uses=1 type=i32] [debug line = 1152:95]
  %12 = getelementptr inbounds %struct.ap_range_ref* %2, i32 0, i32 2, !dbg !7431 ; [#uses=1 type=i32*] [debug line = 1152:95]
  %13 = load i32* %12, align 4, !dbg !7431        ; [#uses=1 type=i32] [debug line = 1152:95]
  %14 = load i128* %__Val2__, !dbg !7431          ; [#uses=1 type=i128] [debug line = 1152:95]
  %15 = call i128 @llvm.part.select.i128(i128 %14, i32 %11, i32 %13), !dbg !7431 ; [#uses=1 type=i128] [debug line = 1152:95]
  store i128 %15, i128* %__Result__, !dbg !7431   ; [debug line = 1152:95]
  %16 = load i128* %__Result__, align 16, !dbg !7431 ; [#uses=1 type=i128] [debug line = 1152:95]
  %17 = trunc i128 %16 to i64, !dbg !7432         ; [#uses=1 type=i64] [debug line = 1152:194]
  ret i64 %17, !dbg !7432                         ; [debug line = 1152:194]
}

; [#uses=1]
declare i128 @llvm.part.select.i128(i128, i32, i32) nounwind readnone

; [#uses=1]
define linkonce_odr void @_ZN12ap_range_refILi128ELb0EEC1EP11ap_int_baseILi128ELb0ELb0EEii(%struct.ap_range_ref* %this, %struct.ap_int_base* %bv, i32 %h, i32 %l) unnamed_addr nounwind uwtable inlinehint alwaysinline align 2 {
  %1 = alloca %struct.ap_range_ref*, align 8      ; [#uses=2 type=%struct.ap_range_ref**]
  %2 = alloca %struct.ap_int_base*, align 8       ; [#uses=2 type=%struct.ap_int_base**]
  %3 = alloca i32, align 4                        ; [#uses=2 type=i32*]
  %4 = alloca i32, align 4                        ; [#uses=2 type=i32*]
  store %struct.ap_range_ref* %this, %struct.ap_range_ref** %1, align 8
  call void @llvm.dbg.declare(metadata !{%struct.ap_range_ref** %1}, metadata !7433), !dbg !7434 ; [debug line = 933:43] [debug variable = this]
  store %struct.ap_int_base* %bv, %struct.ap_int_base** %2, align 8
  call void @llvm.dbg.declare(metadata !{%struct.ap_int_base** %2}, metadata !7435), !dbg !7436 ; [debug line = 933:82] [debug variable = bv]
  store i32 %h, i32* %3, align 4
  call void @llvm.dbg.declare(metadata !{i32* %3}, metadata !7437), !dbg !7438 ; [debug line = 933:90] [debug variable = h]
  store i32 %l, i32* %4, align 4
  call void @llvm.dbg.declare(metadata !{i32* %4}, metadata !7439), !dbg !7440 ; [debug line = 933:97] [debug variable = l]
  %5 = load %struct.ap_range_ref** %1             ; [#uses=1 type=%struct.ap_range_ref*]
  %6 = load %struct.ap_int_base** %2, align 8, !dbg !7441 ; [#uses=1 type=%struct.ap_int_base*] [debug line = 936:5]
  %7 = load i32* %3, align 4, !dbg !7441          ; [#uses=1 type=i32] [debug line = 936:5]
  %8 = load i32* %4, align 4, !dbg !7441          ; [#uses=1 type=i32] [debug line = 936:5]
  call void @_ZN12ap_range_refILi128ELb0EEC2EP11ap_int_baseILi128ELb0ELb0EEii(%struct.ap_range_ref* %5, %struct.ap_int_base* %6, i32 %7, i32 %8), !dbg !7441 ; [debug line = 936:5]
  ret void, !dbg !7441                            ; [debug line = 936:5]
}

; [#uses=1]
define linkonce_odr void @_ZN12ap_range_refILi128ELb0EEC2EP11ap_int_baseILi128ELb0ELb0EEii(%struct.ap_range_ref* %this, %struct.ap_int_base* %bv, i32 %h, i32 %l) unnamed_addr nounwind uwtable inlinehint alwaysinline align 2 {
  %1 = alloca %struct.ap_range_ref*, align 8      ; [#uses=2 type=%struct.ap_range_ref**]
  %2 = alloca %struct.ap_int_base*, align 8       ; [#uses=2 type=%struct.ap_int_base**]
  %3 = alloca i32, align 4                        ; [#uses=2 type=i32*]
  %4 = alloca i32, align 4                        ; [#uses=2 type=i32*]
  store %struct.ap_range_ref* %this, %struct.ap_range_ref** %1, align 8
  call void @llvm.dbg.declare(metadata !{%struct.ap_range_ref** %1}, metadata !7442), !dbg !7443 ; [debug line = 933:43] [debug variable = this]
  store %struct.ap_int_base* %bv, %struct.ap_int_base** %2, align 8
  call void @llvm.dbg.declare(metadata !{%struct.ap_int_base** %2}, metadata !7444), !dbg !7445 ; [debug line = 933:82] [debug variable = bv]
  store i32 %h, i32* %3, align 4
  call void @llvm.dbg.declare(metadata !{i32* %3}, metadata !7446), !dbg !7447 ; [debug line = 933:90] [debug variable = h]
  store i32 %l, i32* %4, align 4
  call void @llvm.dbg.declare(metadata !{i32* %4}, metadata !7448), !dbg !7449 ; [debug line = 933:97] [debug variable = l]
  %5 = load %struct.ap_range_ref** %1             ; [#uses=3 type=%struct.ap_range_ref*]
  %6 = getelementptr inbounds %struct.ap_range_ref* %5, i32 0, i32 0, !dbg !7450 ; [#uses=1 type=%struct.ap_int_base**] [debug line = 934:43]
  %7 = load %struct.ap_int_base** %2, align 8, !dbg !7450 ; [#uses=1 type=%struct.ap_int_base*] [debug line = 934:43]
  store %struct.ap_int_base* %7, %struct.ap_int_base** %6, align 8, !dbg !7450 ; [debug line = 934:43]
  %8 = getelementptr inbounds %struct.ap_range_ref* %5, i32 0, i32 1, !dbg !7450 ; [#uses=1 type=i32*] [debug line = 934:43]
  %9 = load i32* %4, align 4, !dbg !7450          ; [#uses=1 type=i32] [debug line = 934:43]
  store i32 %9, i32* %8, align 4, !dbg !7450      ; [debug line = 934:43]
  %10 = getelementptr inbounds %struct.ap_range_ref* %5, i32 0, i32 2, !dbg !7450 ; [#uses=1 type=i32*] [debug line = 934:43]
  %11 = load i32* %3, align 4, !dbg !7450         ; [#uses=1 type=i32] [debug line = 934:43]
  store i32 %11, i32* %10, align 4, !dbg !7450    ; [debug line = 934:43]
  ret void, !dbg !7451                            ; [debug line = 936:5]
}

; [#uses=1]
define linkonce_odr void @_ZN36ssdm_global_array_aespp0cppaplinecppC2Ev(%class.ssdm_global_array_aespp0cppaplinecpp* %this) unnamed_addr nounwind uwtable inlinehint alwaysinline align 2 {
  %1 = alloca %class.ssdm_global_array_aespp0cppaplinecpp*, align 8 ; [#uses=2 type=%class.ssdm_global_array_aespp0cppaplinecpp**]
  store %class.ssdm_global_array_aespp0cppaplinecpp* %this, %class.ssdm_global_array_aespp0cppaplinecpp** %1, align 8
  call void @llvm.dbg.declare(metadata !{%class.ssdm_global_array_aespp0cppaplinecpp** %1}, metadata !7453), !dbg !7454 ; [debug line = 226:42] [debug variable = this]
  %2 = load %class.ssdm_global_array_aespp0cppaplinecpp** %1 ; [#uses=0 type=%class.ssdm_global_array_aespp0cppaplinecpp*]
  call void (...)* @_ssdm_SpecConstant(i8* getelementptr inbounds ([256 x i8]* @_ZL6sboxes, i32 0, i32 0)) nounwind, !dbg !7455 ; [debug line = 227:4]
  ret void, !dbg !7457                            ; [debug line = 228:3]
}

; [#uses=1]
define internal void @_GLOBAL__I_a17() nounwind section ".text.startup" {
  call void @__cxx_global_var_init13()
  call void @__cxx_global_var_init5()
  ret void
}

!llvm.dbg.cu = !{!0, !4092}
!opencl.kernels = !{!6841, !6848, !6854, !6855, !6861, !6862, !6865, !6871, !6872, !6874, !6875, !6878, !6880, !6881, !6882, !6884, !6885, !6886, !6887, !6889, !6890, !6892, !6893, !6895, !6897, !6898, !6899, !6900, !6901, !6902, !6903, !6904, !6905, !6906, !6907, !6908, !6909, !6912, !6913, !6915, !6862, !6921, !6924, !6926, !6861, !6904, !6905, !6855, !6927, !6928, !6929, !6932, !6936, !6937, !6938}
!hls.encrypted.func = !{}

!0 = metadata !{i32 786449, i32 0, i32 4, metadata !"/home/aimee/root_of_trust/experiments/secure_filesystem/secure_filesystem_hls/solution1/.autopilot/db/filesystem.pragma.2.cpp", metadata !"/home/aimee/root_of_trust/experiments/secure_filesystem", metadata !"clang version 3.1 ", i1 true, i1 false, metadata !"", i32 0, metadata !1, metadata !897, metadata !899, metadata !2387} ; [ DW_TAG_compile_unit ]
!1 = metadata !{metadata !2}
!2 = metadata !{metadata !3, metadata !26, metadata !33, metadata !42, metadata !48, metadata !890}
!3 = metadata !{i32 786436, metadata !4, metadata !"_Ios_Fmtflags", metadata !5, i32 52, i64 17, i64 32, i32 0, i32 0, null, metadata !6, i32 0, i32 0} ; [ DW_TAG_enumeration_type ]
!4 = metadata !{i32 786489, null, metadata !"std", metadata !5, i32 44} ; [ DW_TAG_namespace ]
!5 = metadata !{i32 786473, metadata !"/Xilinx/Vivado_HLS/2017.1/lnx64/tools/gcc/lib/gcc/x86_64-unknown-linux-gnu/4.6.3/../../../../include/c++/4.6.3/bits/ios_base.h", metadata !"/home/aimee/root_of_trust/experiments/secure_filesystem", null} ; [ DW_TAG_file_type ]
!6 = metadata !{metadata !7, metadata !8, metadata !9, metadata !10, metadata !11, metadata !12, metadata !13, metadata !14, metadata !15, metadata !16, metadata !17, metadata !18, metadata !19, metadata !20, metadata !21, metadata !22, metadata !23, metadata !24, metadata !25}
!7 = metadata !{i32 786472, metadata !"_S_boolalpha", i64 1} ; [ DW_TAG_enumerator ]
!8 = metadata !{i32 786472, metadata !"_S_dec", i64 2} ; [ DW_TAG_enumerator ]
!9 = metadata !{i32 786472, metadata !"_S_fixed", i64 4} ; [ DW_TAG_enumerator ]
!10 = metadata !{i32 786472, metadata !"_S_hex", i64 8} ; [ DW_TAG_enumerator ]
!11 = metadata !{i32 786472, metadata !"_S_internal", i64 16} ; [ DW_TAG_enumerator ]
!12 = metadata !{i32 786472, metadata !"_S_left", i64 32} ; [ DW_TAG_enumerator ]
!13 = metadata !{i32 786472, metadata !"_S_oct", i64 64} ; [ DW_TAG_enumerator ]
!14 = metadata !{i32 786472, metadata !"_S_right", i64 128} ; [ DW_TAG_enumerator ]
!15 = metadata !{i32 786472, metadata !"_S_scientific", i64 256} ; [ DW_TAG_enumerator ]
!16 = metadata !{i32 786472, metadata !"_S_showbase", i64 512} ; [ DW_TAG_enumerator ]
!17 = metadata !{i32 786472, metadata !"_S_showpoint", i64 1024} ; [ DW_TAG_enumerator ]
!18 = metadata !{i32 786472, metadata !"_S_showpos", i64 2048} ; [ DW_TAG_enumerator ]
!19 = metadata !{i32 786472, metadata !"_S_skipws", i64 4096} ; [ DW_TAG_enumerator ]
!20 = metadata !{i32 786472, metadata !"_S_unitbuf", i64 8192} ; [ DW_TAG_enumerator ]
!21 = metadata !{i32 786472, metadata !"_S_uppercase", i64 16384} ; [ DW_TAG_enumerator ]
!22 = metadata !{i32 786472, metadata !"_S_adjustfield", i64 176} ; [ DW_TAG_enumerator ]
!23 = metadata !{i32 786472, metadata !"_S_basefield", i64 74} ; [ DW_TAG_enumerator ]
!24 = metadata !{i32 786472, metadata !"_S_floatfield", i64 260} ; [ DW_TAG_enumerator ]
!25 = metadata !{i32 786472, metadata !"_S_ios_fmtflags_end", i64 65536} ; [ DW_TAG_enumerator ]
!26 = metadata !{i32 786436, metadata !4, metadata !"_Ios_Iostate", metadata !5, i32 144, i64 17, i64 32, i32 0, i32 0, null, metadata !27, i32 0, i32 0} ; [ DW_TAG_enumeration_type ]
!27 = metadata !{metadata !28, metadata !29, metadata !30, metadata !31, metadata !32}
!28 = metadata !{i32 786472, metadata !"_S_goodbit", i64 0} ; [ DW_TAG_enumerator ]
!29 = metadata !{i32 786472, metadata !"_S_badbit", i64 1} ; [ DW_TAG_enumerator ]
!30 = metadata !{i32 786472, metadata !"_S_eofbit", i64 2} ; [ DW_TAG_enumerator ]
!31 = metadata !{i32 786472, metadata !"_S_failbit", i64 4} ; [ DW_TAG_enumerator ]
!32 = metadata !{i32 786472, metadata !"_S_ios_iostate_end", i64 65536} ; [ DW_TAG_enumerator ]
!33 = metadata !{i32 786436, metadata !4, metadata !"_Ios_Openmode", metadata !5, i32 104, i64 17, i64 32, i32 0, i32 0, null, metadata !34, i32 0, i32 0} ; [ DW_TAG_enumeration_type ]
!34 = metadata !{metadata !35, metadata !36, metadata !37, metadata !38, metadata !39, metadata !40, metadata !41}
!35 = metadata !{i32 786472, metadata !"_S_app", i64 1} ; [ DW_TAG_enumerator ]
!36 = metadata !{i32 786472, metadata !"_S_ate", i64 2} ; [ DW_TAG_enumerator ]
!37 = metadata !{i32 786472, metadata !"_S_bin", i64 4} ; [ DW_TAG_enumerator ]
!38 = metadata !{i32 786472, metadata !"_S_in", i64 8} ; [ DW_TAG_enumerator ]
!39 = metadata !{i32 786472, metadata !"_S_out", i64 16} ; [ DW_TAG_enumerator ]
!40 = metadata !{i32 786472, metadata !"_S_trunc", i64 32} ; [ DW_TAG_enumerator ]
!41 = metadata !{i32 786472, metadata !"_S_ios_openmode_end", i64 65536} ; [ DW_TAG_enumerator ]
!42 = metadata !{i32 786436, metadata !4, metadata !"_Ios_Seekdir", metadata !5, i32 182, i64 17, i64 32, i32 0, i32 0, null, metadata !43, i32 0, i32 0} ; [ DW_TAG_enumeration_type ]
!43 = metadata !{metadata !44, metadata !45, metadata !46, metadata !47}
!44 = metadata !{i32 786472, metadata !"_S_beg", i64 0} ; [ DW_TAG_enumerator ]
!45 = metadata !{i32 786472, metadata !"_S_cur", i64 1} ; [ DW_TAG_enumerator ]
!46 = metadata !{i32 786472, metadata !"_S_end", i64 2} ; [ DW_TAG_enumerator ]
!47 = metadata !{i32 786472, metadata !"_S_ios_seekdir_end", i64 65536} ; [ DW_TAG_enumerator ]
!48 = metadata !{i32 786436, metadata !49, metadata !"event", metadata !5, i32 420, i64 2, i64 2, i32 0, i32 0, null, metadata !886, i32 0, i32 0} ; [ DW_TAG_enumeration_type ]
!49 = metadata !{i32 786434, metadata !4, metadata !"ios_base", metadata !5, i32 200, i64 1728, i64 64, i32 0, i32 0, null, metadata !50, i32 0, metadata !49, null} ; [ DW_TAG_class_type ]
!50 = metadata !{metadata !51, metadata !57, metadata !65, metadata !66, metadata !68, metadata !70, metadata !71, metadata !97, metadata !107, metadata !111, metadata !112, metadata !114, metadata !818, metadata !822, metadata !825, metadata !828, metadata !832, metadata !833, metadata !838, metadata !841, metadata !842, metadata !845, metadata !848, metadata !851, metadata !854, metadata !855, metadata !856, metadata !859, metadata !862, metadata !865, metadata !868, metadata !869, metadata !873, metadata !877, metadata !878, metadata !879, metadata !883}
!51 = metadata !{i32 786445, metadata !5, metadata !"_vptr$ios_base", metadata !5, i32 0, i64 64, i64 0, i64 0, i32 0, metadata !52} ; [ DW_TAG_member ]
!52 = metadata !{i32 786447, null, metadata !"", null, i32 0, i64 64, i64 0, i64 0, i32 0, metadata !53} ; [ DW_TAG_pointer_type ]
!53 = metadata !{i32 786447, null, metadata !"__vtbl_ptr_type", null, i32 0, i64 64, i64 0, i64 0, i32 0, metadata !54} ; [ DW_TAG_pointer_type ]
!54 = metadata !{i32 786453, i32 0, metadata !"", i32 0, i32 0, i64 0, i64 0, i64 0, i32 0, null, metadata !55, i32 0, i32 0} ; [ DW_TAG_subroutine_type ]
!55 = metadata !{metadata !56}
!56 = metadata !{i32 786468, null, metadata !"int", null, i32 0, i64 32, i64 32, i64 0, i32 0, i32 5} ; [ DW_TAG_base_type ]
!57 = metadata !{i32 786445, metadata !49, metadata !"_M_precision", metadata !5, i32 453, i64 64, i64 64, i64 64, i32 2, metadata !58} ; [ DW_TAG_member ]
!58 = metadata !{i32 786454, metadata !59, metadata !"streamsize", metadata !5, i32 99, i64 0, i64 0, i64 0, i32 0, metadata !61} ; [ DW_TAG_typedef ]
!59 = metadata !{i32 786489, null, metadata !"std", metadata !60, i32 69} ; [ DW_TAG_namespace ]
!60 = metadata !{i32 786473, metadata !"/Xilinx/Vivado_HLS/2017.1/lnx64/tools/gcc/lib/gcc/x86_64-unknown-linux-gnu/4.6.3/../../../../include/c++/4.6.3/bits/postypes.h", metadata !"/home/aimee/root_of_trust/experiments/secure_filesystem", null} ; [ DW_TAG_file_type ]
!61 = metadata !{i32 786454, metadata !62, metadata !"ptrdiff_t", metadata !5, i32 156, i64 0, i64 0, i64 0, i32 0, metadata !64} ; [ DW_TAG_typedef ]
!62 = metadata !{i32 786489, null, metadata !"std", metadata !63, i32 153} ; [ DW_TAG_namespace ]
!63 = metadata !{i32 786473, metadata !"/Xilinx/Vivado_HLS/2017.1/lnx64/tools/gcc/lib/gcc/x86_64-unknown-linux-gnu/4.6.3/../../../../include/c++/4.6.3/x86_64-unknown-linux-gnu/bits/c++config.h", metadata !"/home/aimee/root_of_trust/experiments/secure_filesystem", null} ; [ DW_TAG_file_type ]
!64 = metadata !{i32 786468, null, metadata !"long int", null, i32 0, i64 64, i64 64, i64 0, i32 0, i32 5} ; [ DW_TAG_base_type ]
!65 = metadata !{i32 786445, metadata !49, metadata !"_M_width", metadata !5, i32 454, i64 64, i64 64, i64 128, i32 2, metadata !58} ; [ DW_TAG_member ]
!66 = metadata !{i32 786445, metadata !49, metadata !"_M_flags", metadata !5, i32 455, i64 17, i64 32, i64 192, i32 2, metadata !67} ; [ DW_TAG_member ]
!67 = metadata !{i32 786454, metadata !49, metadata !"fmtflags", metadata !5, i32 256, i64 0, i64 0, i64 0, i32 0, metadata !3} ; [ DW_TAG_typedef ]
!68 = metadata !{i32 786445, metadata !49, metadata !"_M_exception", metadata !5, i32 456, i64 17, i64 32, i64 224, i32 2, metadata !69} ; [ DW_TAG_member ]
!69 = metadata !{i32 786454, metadata !49, metadata !"iostate", metadata !5, i32 331, i64 0, i64 0, i64 0, i32 0, metadata !26} ; [ DW_TAG_typedef ]
!70 = metadata !{i32 786445, metadata !49, metadata !"_M_streambuf_state", metadata !5, i32 457, i64 17, i64 32, i64 256, i32 2, metadata !69} ; [ DW_TAG_member ]
!71 = metadata !{i32 786445, metadata !49, metadata !"_M_callbacks", metadata !5, i32 491, i64 64, i64 64, i64 320, i32 2, metadata !72} ; [ DW_TAG_member ]
!72 = metadata !{i32 786447, null, metadata !"", null, i32 0, i64 64, i64 64, i64 0, i32 0, metadata !73} ; [ DW_TAG_pointer_type ]
!73 = metadata !{i32 786434, metadata !49, metadata !"_Callback_list", metadata !5, i32 461, i64 192, i64 64, i32 0, i32 0, null, metadata !74, i32 0, null, null} ; [ DW_TAG_class_type ]
!74 = metadata !{metadata !75, metadata !76, metadata !82, metadata !83, metadata !85, metadata !91, metadata !94}
!75 = metadata !{i32 786445, metadata !73, metadata !"_M_next", metadata !5, i32 464, i64 64, i64 64, i64 0, i32 0, metadata !72} ; [ DW_TAG_member ]
!76 = metadata !{i32 786445, metadata !73, metadata !"_M_fn", metadata !5, i32 465, i64 64, i64 64, i64 64, i32 0, metadata !77} ; [ DW_TAG_member ]
!77 = metadata !{i32 786454, metadata !49, metadata !"event_callback", metadata !5, i32 437, i64 0, i64 0, i64 0, i32 0, metadata !78} ; [ DW_TAG_typedef ]
!78 = metadata !{i32 786447, null, metadata !"", null, i32 0, i64 64, i64 64, i64 0, i32 0, metadata !79} ; [ DW_TAG_pointer_type ]
!79 = metadata !{i32 786453, i32 0, metadata !"", i32 0, i32 0, i64 0, i64 0, i64 0, i32 0, null, metadata !80, i32 0, i32 0} ; [ DW_TAG_subroutine_type ]
!80 = metadata !{null, metadata !48, metadata !81, metadata !56}
!81 = metadata !{i32 786448, null, null, null, i32 0, i64 0, i64 0, i64 0, i32 0, metadata !49} ; [ DW_TAG_reference_type ]
!82 = metadata !{i32 786445, metadata !73, metadata !"_M_index", metadata !5, i32 466, i64 32, i64 32, i64 128, i32 0, metadata !56} ; [ DW_TAG_member ]
!83 = metadata !{i32 786445, metadata !73, metadata !"_M_refcount", metadata !5, i32 467, i64 32, i64 32, i64 160, i32 0, metadata !84} ; [ DW_TAG_member ]
!84 = metadata !{i32 786454, null, metadata !"_Atomic_word", metadata !5, i32 32, i64 0, i64 0, i64 0, i32 0, metadata !56} ; [ DW_TAG_typedef ]
!85 = metadata !{i32 786478, i32 0, metadata !73, metadata !"_Callback_list", metadata !"_Callback_list", metadata !"", metadata !5, i32 469, metadata !86, i1 false, i1 false, i32 0, i32 0, null, i32 256, i1 false, null, null, i32 0, metadata !89, i32 469} ; [ DW_TAG_subprogram ]
!86 = metadata !{i32 786453, i32 0, metadata !"", i32 0, i32 0, i64 0, i64 0, i64 0, i32 0, null, metadata !87, i32 0, i32 0} ; [ DW_TAG_subroutine_type ]
!87 = metadata !{null, metadata !88, metadata !77, metadata !56, metadata !72}
!88 = metadata !{i32 786447, i32 0, metadata !"", i32 0, i32 0, i64 64, i64 64, i64 0, i32 64, metadata !73} ; [ DW_TAG_pointer_type ]
!89 = metadata !{metadata !90}
!90 = metadata !{i32 786468}                      ; [ DW_TAG_base_type ]
!91 = metadata !{i32 786478, i32 0, metadata !73, metadata !"_M_add_reference", metadata !"_M_add_reference", metadata !"_ZNSt8ios_base14_Callback_list16_M_add_referenceEv", metadata !5, i32 474, metadata !92, i1 false, i1 false, i32 0, i32 0, null, i32 256, i1 false, null, null, i32 0, metadata !89, i32 474} ; [ DW_TAG_subprogram ]
!92 = metadata !{i32 786453, i32 0, metadata !"", i32 0, i32 0, i64 0, i64 0, i64 0, i32 0, null, metadata !93, i32 0, i32 0} ; [ DW_TAG_subroutine_type ]
!93 = metadata !{null, metadata !88}
!94 = metadata !{i32 786478, i32 0, metadata !73, metadata !"_M_remove_reference", metadata !"_M_remove_reference", metadata !"_ZNSt8ios_base14_Callback_list19_M_remove_referenceEv", metadata !5, i32 478, metadata !95, i1 false, i1 false, i32 0, i32 0, null, i32 256, i1 false, null, null, i32 0, metadata !89, i32 478} ; [ DW_TAG_subprogram ]
!95 = metadata !{i32 786453, i32 0, metadata !"", i32 0, i32 0, i64 0, i64 0, i64 0, i32 0, null, metadata !96, i32 0, i32 0} ; [ DW_TAG_subroutine_type ]
!96 = metadata !{metadata !56, metadata !88}
!97 = metadata !{i32 786445, metadata !49, metadata !"_M_word_zero", metadata !5, i32 508, i64 128, i64 64, i64 384, i32 2, metadata !98} ; [ DW_TAG_member ]
!98 = metadata !{i32 786434, metadata !49, metadata !"_Words", metadata !5, i32 500, i64 128, i64 64, i32 0, i32 0, null, metadata !99, i32 0, null, null} ; [ DW_TAG_class_type ]
!99 = metadata !{metadata !100, metadata !102, metadata !103}
!100 = metadata !{i32 786445, metadata !98, metadata !"_M_pword", metadata !5, i32 502, i64 64, i64 64, i64 0, i32 0, metadata !101} ; [ DW_TAG_member ]
!101 = metadata !{i32 786447, null, metadata !"", null, i32 0, i64 64, i64 64, i64 0, i32 0, null} ; [ DW_TAG_pointer_type ]
!102 = metadata !{i32 786445, metadata !98, metadata !"_M_iword", metadata !5, i32 503, i64 64, i64 64, i64 64, i32 0, metadata !64} ; [ DW_TAG_member ]
!103 = metadata !{i32 786478, i32 0, metadata !98, metadata !"_Words", metadata !"_Words", metadata !"", metadata !5, i32 504, metadata !104, i1 false, i1 false, i32 0, i32 0, null, i32 256, i1 false, null, null, i32 0, metadata !89, i32 504} ; [ DW_TAG_subprogram ]
!104 = metadata !{i32 786453, i32 0, metadata !"", i32 0, i32 0, i64 0, i64 0, i64 0, i32 0, null, metadata !105, i32 0, i32 0} ; [ DW_TAG_subroutine_type ]
!105 = metadata !{null, metadata !106}
!106 = metadata !{i32 786447, i32 0, metadata !"", i32 0, i32 0, i64 64, i64 64, i64 0, i32 64, metadata !98} ; [ DW_TAG_pointer_type ]
!107 = metadata !{i32 786445, metadata !49, metadata !"_M_local_word", metadata !5, i32 513, i64 1024, i64 64, i64 512, i32 2, metadata !108} ; [ DW_TAG_member ]
!108 = metadata !{i32 786433, null, metadata !"", null, i32 0, i64 1024, i64 64, i32 0, i32 0, metadata !98, metadata !109, i32 0, i32 0} ; [ DW_TAG_array_type ]
!109 = metadata !{metadata !110}
!110 = metadata !{i32 786465, i64 0, i64 7}       ; [ DW_TAG_subrange_type ]
!111 = metadata !{i32 786445, metadata !49, metadata !"_M_word_size", metadata !5, i32 516, i64 32, i64 32, i64 1536, i32 2, metadata !56} ; [ DW_TAG_member ]
!112 = metadata !{i32 786445, metadata !49, metadata !"_M_word", metadata !5, i32 517, i64 64, i64 64, i64 1600, i32 2, metadata !113} ; [ DW_TAG_member ]
!113 = metadata !{i32 786447, null, metadata !"", null, i32 0, i64 64, i64 64, i64 0, i32 0, metadata !98} ; [ DW_TAG_pointer_type ]
!114 = metadata !{i32 786445, metadata !49, metadata !"_M_ios_locale", metadata !5, i32 523, i64 64, i64 64, i64 1664, i32 2, metadata !115} ; [ DW_TAG_member ]
!115 = metadata !{i32 786434, metadata !116, metadata !"locale", metadata !117, i32 63, i64 64, i64 64, i32 0, i32 0, null, metadata !118, i32 0, null, null} ; [ DW_TAG_class_type ]
!116 = metadata !{i32 786489, null, metadata !"std", metadata !117, i32 44} ; [ DW_TAG_namespace ]
!117 = metadata !{i32 786473, metadata !"/Xilinx/Vivado_HLS/2017.1/lnx64/tools/gcc/lib/gcc/x86_64-unknown-linux-gnu/4.6.3/../../../../include/c++/4.6.3/bits/locale_classes.h", metadata !"/home/aimee/root_of_trust/experiments/secure_filesystem", null} ; [ DW_TAG_file_type ]
!118 = metadata !{metadata !119, metadata !280, metadata !284, metadata !289, metadata !292, metadata !295, metadata !298, metadata !299, metadata !302, metadata !797, metadata !800, metadata !801, metadata !804, metadata !807, metadata !810, metadata !811, metadata !812, metadata !815, metadata !816, metadata !817}
!119 = metadata !{i32 786445, metadata !115, metadata !"_M_impl", metadata !117, i32 280, i64 64, i64 64, i64 0, i32 1, metadata !120} ; [ DW_TAG_member ]
!120 = metadata !{i32 786447, null, metadata !"", null, i32 0, i64 64, i64 64, i64 0, i32 0, metadata !121} ; [ DW_TAG_pointer_type ]
!121 = metadata !{i32 786434, metadata !115, metadata !"_Impl", metadata !117, i32 475, i64 320, i64 64, i32 0, i32 0, null, metadata !122, i32 0, null, null} ; [ DW_TAG_class_type ]
!122 = metadata !{metadata !123, metadata !124, metadata !209, metadata !210, metadata !211, metadata !214, metadata !218, metadata !219, metadata !224, metadata !227, metadata !230, metadata !231, metadata !234, metadata !235, metadata !239, metadata !244, metadata !269, metadata !272, metadata !275, metadata !278, metadata !279}
!123 = metadata !{i32 786445, metadata !121, metadata !"_M_refcount", metadata !117, i32 495, i64 32, i64 32, i64 0, i32 1, metadata !84} ; [ DW_TAG_member ]
!124 = metadata !{i32 786445, metadata !121, metadata !"_M_facets", metadata !117, i32 496, i64 64, i64 64, i64 64, i32 1, metadata !125} ; [ DW_TAG_member ]
!125 = metadata !{i32 786447, null, metadata !"", null, i32 0, i64 64, i64 64, i64 0, i32 0, metadata !126} ; [ DW_TAG_pointer_type ]
!126 = metadata !{i32 786447, null, metadata !"", null, i32 0, i64 64, i64 64, i64 0, i32 0, metadata !127} ; [ DW_TAG_pointer_type ]
!127 = metadata !{i32 786470, null, metadata !"", null, i32 0, i64 0, i64 0, i64 0, i32 0, metadata !128} ; [ DW_TAG_const_type ]
!128 = metadata !{i32 786434, metadata !115, metadata !"facet", metadata !117, i32 338, i64 128, i64 64, i32 0, i32 0, null, metadata !129, i32 0, metadata !128, null} ; [ DW_TAG_class_type ]
!129 = metadata !{metadata !130, metadata !131, metadata !132, metadata !135, metadata !141, metadata !144, metadata !179, metadata !182, metadata !185, metadata !188, metadata !191, metadata !194, metadata !198, metadata !199, metadata !203, metadata !207, metadata !208}
!130 = metadata !{i32 786445, metadata !117, metadata !"_vptr$facet", metadata !117, i32 0, i64 64, i64 0, i64 0, i32 0, metadata !52} ; [ DW_TAG_member ]
!131 = metadata !{i32 786445, metadata !128, metadata !"_M_refcount", metadata !117, i32 344, i64 32, i64 32, i64 64, i32 1, metadata !84} ; [ DW_TAG_member ]
!132 = metadata !{i32 786478, i32 0, metadata !128, metadata !"_S_initialize_once", metadata !"_S_initialize_once", metadata !"_ZNSt6locale5facet18_S_initialize_onceEv", metadata !117, i32 357, metadata !133, i1 false, i1 false, i32 0, i32 0, null, i32 257, i1 false, null, null, i32 0, metadata !89, i32 357} ; [ DW_TAG_subprogram ]
!133 = metadata !{i32 786453, i32 0, metadata !"", i32 0, i32 0, i64 0, i64 0, i64 0, i32 0, null, metadata !134, i32 0, i32 0} ; [ DW_TAG_subroutine_type ]
!134 = metadata !{null}
!135 = metadata !{i32 786478, i32 0, metadata !128, metadata !"facet", metadata !"facet", metadata !"", metadata !117, i32 370, metadata !136, i1 false, i1 false, i32 0, i32 0, null, i32 386, i1 false, null, null, i32 0, metadata !89, i32 370} ; [ DW_TAG_subprogram ]
!136 = metadata !{i32 786453, i32 0, metadata !"", i32 0, i32 0, i64 0, i64 0, i64 0, i32 0, null, metadata !137, i32 0, i32 0} ; [ DW_TAG_subroutine_type ]
!137 = metadata !{null, metadata !138, metadata !139}
!138 = metadata !{i32 786447, i32 0, metadata !"", i32 0, i32 0, i64 64, i64 64, i64 0, i32 64, metadata !128} ; [ DW_TAG_pointer_type ]
!139 = metadata !{i32 786454, metadata !62, metadata !"size_t", metadata !117, i32 155, i64 0, i64 0, i64 0, i32 0, metadata !140} ; [ DW_TAG_typedef ]
!140 = metadata !{i32 786468, null, metadata !"long unsigned int", null, i32 0, i64 64, i64 64, i64 0, i32 0, i32 7} ; [ DW_TAG_base_type ]
!141 = metadata !{i32 786478, i32 0, metadata !128, metadata !"~facet", metadata !"~facet", metadata !"", metadata !117, i32 375, metadata !142, i1 false, i1 false, i32 1, i32 0, metadata !128, i32 258, i1 false, null, null, i32 0, metadata !89, i32 375} ; [ DW_TAG_subprogram ]
!142 = metadata !{i32 786453, i32 0, metadata !"", i32 0, i32 0, i64 0, i64 0, i64 0, i32 0, null, metadata !143, i32 0, i32 0} ; [ DW_TAG_subroutine_type ]
!143 = metadata !{null, metadata !138}
!144 = metadata !{i32 786478, i32 0, metadata !128, metadata !"_S_create_c_locale", metadata !"_S_create_c_locale", metadata !"_ZNSt6locale5facet18_S_create_c_localeERP15__locale_structPKcS2_", metadata !117, i32 378, metadata !145, i1 false, i1 false, i32 0, i32 0, null, i32 258, i1 false, null, null, i32 0, metadata !89, i32 378} ; [ DW_TAG_subprogram ]
!145 = metadata !{i32 786453, i32 0, metadata !"", i32 0, i32 0, i64 0, i64 0, i64 0, i32 0, null, metadata !146, i32 0, i32 0} ; [ DW_TAG_subroutine_type ]
!146 = metadata !{null, metadata !147, metadata !172, metadata !148}
!147 = metadata !{i32 786448, null, null, null, i32 0, i64 0, i64 0, i64 0, i32 0, metadata !148} ; [ DW_TAG_reference_type ]
!148 = metadata !{i32 786454, metadata !149, metadata !"__c_locale", metadata !117, i32 62, i64 0, i64 0, i64 0, i32 0, metadata !151} ; [ DW_TAG_typedef ]
!149 = metadata !{i32 786489, null, metadata !"std", metadata !150, i32 58} ; [ DW_TAG_namespace ]
!150 = metadata !{i32 786473, metadata !"/Xilinx/Vivado_HLS/2017.1/lnx64/tools/gcc/lib/gcc/x86_64-unknown-linux-gnu/4.6.3/../../../../include/c++/4.6.3/x86_64-unknown-linux-gnu/bits/c++locale.h", metadata !"/home/aimee/root_of_trust/experiments/secure_filesystem", null} ; [ DW_TAG_file_type ]
!151 = metadata !{i32 786454, null, metadata !"__locale_t", metadata !117, i32 39, i64 0, i64 0, i64 0, i32 0, metadata !152} ; [ DW_TAG_typedef ]
!152 = metadata !{i32 786447, null, metadata !"", null, i32 0, i64 64, i64 64, i64 0, i32 0, metadata !153} ; [ DW_TAG_pointer_type ]
!153 = metadata !{i32 786434, null, metadata !"__locale_struct", metadata !154, i32 27, i64 1856, i64 64, i32 0, i32 0, null, metadata !155, i32 0, null, null} ; [ DW_TAG_class_type ]
!154 = metadata !{i32 786473, metadata !"/usr/include/xlocale.h", metadata !"/home/aimee/root_of_trust/experiments/secure_filesystem", null} ; [ DW_TAG_file_type ]
!155 = metadata !{metadata !156, metadata !162, metadata !166, metadata !169, metadata !170, metadata !175}
!156 = metadata !{i32 786445, metadata !153, metadata !"__locales", metadata !154, i32 30, i64 832, i64 64, i64 0, i32 0, metadata !157} ; [ DW_TAG_member ]
!157 = metadata !{i32 786433, null, metadata !"", null, i32 0, i64 832, i64 64, i32 0, i32 0, metadata !158, metadata !160, i32 0, i32 0} ; [ DW_TAG_array_type ]
!158 = metadata !{i32 786447, null, metadata !"", null, i32 0, i64 64, i64 64, i64 0, i32 0, metadata !159} ; [ DW_TAG_pointer_type ]
!159 = metadata !{i32 786434, null, metadata !"__locale_data", metadata !154, i32 30, i32 0, i32 0, i32 0, i32 4, null, null, i32 0} ; [ DW_TAG_class_type ]
!160 = metadata !{metadata !161}
!161 = metadata !{i32 786465, i64 0, i64 12}      ; [ DW_TAG_subrange_type ]
!162 = metadata !{i32 786445, metadata !153, metadata !"__ctype_b", metadata !154, i32 33, i64 64, i64 64, i64 832, i32 0, metadata !163} ; [ DW_TAG_member ]
!163 = metadata !{i32 786447, null, metadata !"", null, i32 0, i64 64, i64 64, i64 0, i32 0, metadata !164} ; [ DW_TAG_pointer_type ]
!164 = metadata !{i32 786470, null, metadata !"", null, i32 0, i64 0, i64 0, i64 0, i32 0, metadata !165} ; [ DW_TAG_const_type ]
!165 = metadata !{i32 786468, null, metadata !"unsigned short", null, i32 0, i64 16, i64 16, i64 0, i32 0, i32 7} ; [ DW_TAG_base_type ]
!166 = metadata !{i32 786445, metadata !153, metadata !"__ctype_tolower", metadata !154, i32 34, i64 64, i64 64, i64 896, i32 0, metadata !167} ; [ DW_TAG_member ]
!167 = metadata !{i32 786447, null, metadata !"", null, i32 0, i64 64, i64 64, i64 0, i32 0, metadata !168} ; [ DW_TAG_pointer_type ]
!168 = metadata !{i32 786470, null, metadata !"", null, i32 0, i64 0, i64 0, i64 0, i32 0, metadata !56} ; [ DW_TAG_const_type ]
!169 = metadata !{i32 786445, metadata !153, metadata !"__ctype_toupper", metadata !154, i32 35, i64 64, i64 64, i64 960, i32 0, metadata !167} ; [ DW_TAG_member ]
!170 = metadata !{i32 786445, metadata !153, metadata !"__names", metadata !154, i32 38, i64 832, i64 64, i64 1024, i32 0, metadata !171} ; [ DW_TAG_member ]
!171 = metadata !{i32 786433, null, metadata !"", null, i32 0, i64 832, i64 64, i32 0, i32 0, metadata !172, metadata !160, i32 0, i32 0} ; [ DW_TAG_array_type ]
!172 = metadata !{i32 786447, null, metadata !"", null, i32 0, i64 64, i64 64, i64 0, i32 0, metadata !173} ; [ DW_TAG_pointer_type ]
!173 = metadata !{i32 786470, null, metadata !"", null, i32 0, i64 0, i64 0, i64 0, i32 0, metadata !174} ; [ DW_TAG_const_type ]
!174 = metadata !{i32 786468, null, metadata !"char", null, i32 0, i64 8, i64 8, i64 0, i32 0, i32 6} ; [ DW_TAG_base_type ]
!175 = metadata !{i32 786478, i32 0, metadata !153, metadata !"__locale_struct", metadata !"__locale_struct", metadata !"", metadata !154, i32 41, metadata !176, i1 false, i1 false, i32 0, i32 0, null, i32 256, i1 false, null, null, i32 0, metadata !89, i32 41} ; [ DW_TAG_subprogram ]
!176 = metadata !{i32 786453, i32 0, metadata !"", i32 0, i32 0, i64 0, i64 0, i64 0, i32 0, null, metadata !177, i32 0, i32 0} ; [ DW_TAG_subroutine_type ]
!177 = metadata !{null, metadata !178}
!178 = metadata !{i32 786447, i32 0, metadata !"", i32 0, i32 0, i64 64, i64 64, i64 0, i32 64, metadata !153} ; [ DW_TAG_pointer_type ]
!179 = metadata !{i32 786478, i32 0, metadata !128, metadata !"_S_clone_c_locale", metadata !"_S_clone_c_locale", metadata !"_ZNSt6locale5facet17_S_clone_c_localeERP15__locale_struct", metadata !117, i32 382, metadata !180, i1 false, i1 false, i32 0, i32 0, null, i32 258, i1 false, null, null, i32 0, metadata !89, i32 382} ; [ DW_TAG_subprogram ]
!180 = metadata !{i32 786453, i32 0, metadata !"", i32 0, i32 0, i64 0, i64 0, i64 0, i32 0, null, metadata !181, i32 0, i32 0} ; [ DW_TAG_subroutine_type ]
!181 = metadata !{metadata !148, metadata !147}
!182 = metadata !{i32 786478, i32 0, metadata !128, metadata !"_S_destroy_c_locale", metadata !"_S_destroy_c_locale", metadata !"_ZNSt6locale5facet19_S_destroy_c_localeERP15__locale_struct", metadata !117, i32 385, metadata !183, i1 false, i1 false, i32 0, i32 0, null, i32 258, i1 false, null, null, i32 0, metadata !89, i32 385} ; [ DW_TAG_subprogram ]
!183 = metadata !{i32 786453, i32 0, metadata !"", i32 0, i32 0, i64 0, i64 0, i64 0, i32 0, null, metadata !184, i32 0, i32 0} ; [ DW_TAG_subroutine_type ]
!184 = metadata !{null, metadata !147}
!185 = metadata !{i32 786478, i32 0, metadata !128, metadata !"_S_lc_ctype_c_locale", metadata !"_S_lc_ctype_c_locale", metadata !"_ZNSt6locale5facet20_S_lc_ctype_c_localeEP15__locale_structPKc", metadata !117, i32 388, metadata !186, i1 false, i1 false, i32 0, i32 0, null, i32 258, i1 false, null, null, i32 0, metadata !89, i32 388} ; [ DW_TAG_subprogram ]
!186 = metadata !{i32 786453, i32 0, metadata !"", i32 0, i32 0, i64 0, i64 0, i64 0, i32 0, null, metadata !187, i32 0, i32 0} ; [ DW_TAG_subroutine_type ]
!187 = metadata !{metadata !148, metadata !148, metadata !172}
!188 = metadata !{i32 786478, i32 0, metadata !128, metadata !"_S_get_c_locale", metadata !"_S_get_c_locale", metadata !"_ZNSt6locale5facet15_S_get_c_localeEv", metadata !117, i32 393, metadata !189, i1 false, i1 false, i32 0, i32 0, null, i32 258, i1 false, null, null, i32 0, metadata !89, i32 393} ; [ DW_TAG_subprogram ]
!189 = metadata !{i32 786453, i32 0, metadata !"", i32 0, i32 0, i64 0, i64 0, i64 0, i32 0, null, metadata !190, i32 0, i32 0} ; [ DW_TAG_subroutine_type ]
!190 = metadata !{metadata !148}
!191 = metadata !{i32 786478, i32 0, metadata !128, metadata !"_S_get_c_name", metadata !"_S_get_c_name", metadata !"_ZNSt6locale5facet13_S_get_c_nameEv", metadata !117, i32 396, metadata !192, i1 false, i1 false, i32 0, i32 0, null, i32 258, i1 false, null, null, i32 0, metadata !89, i32 396} ; [ DW_TAG_subprogram ]
!192 = metadata !{i32 786453, i32 0, metadata !"", i32 0, i32 0, i64 0, i64 0, i64 0, i32 0, null, metadata !193, i32 0, i32 0} ; [ DW_TAG_subroutine_type ]
!193 = metadata !{metadata !172}
!194 = metadata !{i32 786478, i32 0, metadata !128, metadata !"_M_add_reference", metadata !"_M_add_reference", metadata !"_ZNKSt6locale5facet16_M_add_referenceEv", metadata !117, i32 400, metadata !195, i1 false, i1 false, i32 0, i32 0, null, i32 257, i1 false, null, null, i32 0, metadata !89, i32 400} ; [ DW_TAG_subprogram ]
!195 = metadata !{i32 786453, i32 0, metadata !"", i32 0, i32 0, i64 0, i64 0, i64 0, i32 0, null, metadata !196, i32 0, i32 0} ; [ DW_TAG_subroutine_type ]
!196 = metadata !{null, metadata !197}
!197 = metadata !{i32 786447, i32 0, metadata !"", i32 0, i32 0, i64 64, i64 64, i64 0, i32 64, metadata !127} ; [ DW_TAG_pointer_type ]
!198 = metadata !{i32 786478, i32 0, metadata !128, metadata !"_M_remove_reference", metadata !"_M_remove_reference", metadata !"_ZNKSt6locale5facet19_M_remove_referenceEv", metadata !117, i32 404, metadata !195, i1 false, i1 false, i32 0, i32 0, null, i32 257, i1 false, null, null, i32 0, metadata !89, i32 404} ; [ DW_TAG_subprogram ]
!199 = metadata !{i32 786478, i32 0, metadata !128, metadata !"facet", metadata !"facet", metadata !"", metadata !117, i32 418, metadata !200, i1 false, i1 false, i32 0, i32 0, null, i32 257, i1 false, null, null, i32 0, metadata !89, i32 418} ; [ DW_TAG_subprogram ]
!200 = metadata !{i32 786453, i32 0, metadata !"", i32 0, i32 0, i64 0, i64 0, i64 0, i32 0, null, metadata !201, i32 0, i32 0} ; [ DW_TAG_subroutine_type ]
!201 = metadata !{null, metadata !138, metadata !202}
!202 = metadata !{i32 786448, null, null, null, i32 0, i64 0, i64 0, i64 0, i32 0, metadata !127} ; [ DW_TAG_reference_type ]
!203 = metadata !{i32 786478, i32 0, metadata !128, metadata !"operator=", metadata !"operator=", metadata !"_ZNSt6locale5facetaSERKS0_", metadata !117, i32 421, metadata !204, i1 false, i1 false, i32 0, i32 0, null, i32 257, i1 false, null, null, i32 0, metadata !89, i32 421} ; [ DW_TAG_subprogram ]
!204 = metadata !{i32 786453, i32 0, metadata !"", i32 0, i32 0, i64 0, i64 0, i64 0, i32 0, null, metadata !205, i32 0, i32 0} ; [ DW_TAG_subroutine_type ]
!205 = metadata !{metadata !206, metadata !138, metadata !202}
!206 = metadata !{i32 786448, null, null, null, i32 0, i64 0, i64 0, i64 0, i32 0, metadata !128} ; [ DW_TAG_reference_type ]
!207 = metadata !{i32 786474, metadata !128, null, metadata !117, i32 0, i64 0, i64 0, i64 0, i32 0, metadata !121} ; [ DW_TAG_friend ]
!208 = metadata !{i32 786474, metadata !128, null, metadata !117, i32 0, i64 0, i64 0, i64 0, i32 0, metadata !115} ; [ DW_TAG_friend ]
!209 = metadata !{i32 786445, metadata !121, metadata !"_M_facets_size", metadata !117, i32 497, i64 64, i64 64, i64 128, i32 1, metadata !139} ; [ DW_TAG_member ]
!210 = metadata !{i32 786445, metadata !121, metadata !"_M_caches", metadata !117, i32 498, i64 64, i64 64, i64 192, i32 1, metadata !125} ; [ DW_TAG_member ]
!211 = metadata !{i32 786445, metadata !121, metadata !"_M_names", metadata !117, i32 499, i64 64, i64 64, i64 256, i32 1, metadata !212} ; [ DW_TAG_member ]
!212 = metadata !{i32 786447, null, metadata !"", null, i32 0, i64 64, i64 64, i64 0, i32 0, metadata !213} ; [ DW_TAG_pointer_type ]
!213 = metadata !{i32 786447, null, metadata !"", null, i32 0, i64 64, i64 64, i64 0, i32 0, metadata !174} ; [ DW_TAG_pointer_type ]
!214 = metadata !{i32 786478, i32 0, metadata !121, metadata !"_M_add_reference", metadata !"_M_add_reference", metadata !"_ZNSt6locale5_Impl16_M_add_referenceEv", metadata !117, i32 509, metadata !215, i1 false, i1 false, i32 0, i32 0, null, i32 257, i1 false, null, null, i32 0, metadata !89, i32 509} ; [ DW_TAG_subprogram ]
!215 = metadata !{i32 786453, i32 0, metadata !"", i32 0, i32 0, i64 0, i64 0, i64 0, i32 0, null, metadata !216, i32 0, i32 0} ; [ DW_TAG_subroutine_type ]
!216 = metadata !{null, metadata !217}
!217 = metadata !{i32 786447, i32 0, metadata !"", i32 0, i32 0, i64 64, i64 64, i64 0, i32 64, metadata !121} ; [ DW_TAG_pointer_type ]
!218 = metadata !{i32 786478, i32 0, metadata !121, metadata !"_M_remove_reference", metadata !"_M_remove_reference", metadata !"_ZNSt6locale5_Impl19_M_remove_referenceEv", metadata !117, i32 513, metadata !215, i1 false, i1 false, i32 0, i32 0, null, i32 257, i1 false, null, null, i32 0, metadata !89, i32 513} ; [ DW_TAG_subprogram ]
!219 = metadata !{i32 786478, i32 0, metadata !121, metadata !"_Impl", metadata !"_Impl", metadata !"", metadata !117, i32 527, metadata !220, i1 false, i1 false, i32 0, i32 0, null, i32 257, i1 false, null, null, i32 0, metadata !89, i32 527} ; [ DW_TAG_subprogram ]
!220 = metadata !{i32 786453, i32 0, metadata !"", i32 0, i32 0, i64 0, i64 0, i64 0, i32 0, null, metadata !221, i32 0, i32 0} ; [ DW_TAG_subroutine_type ]
!221 = metadata !{null, metadata !217, metadata !222, metadata !139}
!222 = metadata !{i32 786448, null, null, null, i32 0, i64 0, i64 0, i64 0, i32 0, metadata !223} ; [ DW_TAG_reference_type ]
!223 = metadata !{i32 786470, null, metadata !"", null, i32 0, i64 0, i64 0, i64 0, i32 0, metadata !121} ; [ DW_TAG_const_type ]
!224 = metadata !{i32 786478, i32 0, metadata !121, metadata !"_Impl", metadata !"_Impl", metadata !"", metadata !117, i32 528, metadata !225, i1 false, i1 false, i32 0, i32 0, null, i32 257, i1 false, null, null, i32 0, metadata !89, i32 528} ; [ DW_TAG_subprogram ]
!225 = metadata !{i32 786453, i32 0, metadata !"", i32 0, i32 0, i64 0, i64 0, i64 0, i32 0, null, metadata !226, i32 0, i32 0} ; [ DW_TAG_subroutine_type ]
!226 = metadata !{null, metadata !217, metadata !172, metadata !139}
!227 = metadata !{i32 786478, i32 0, metadata !121, metadata !"_Impl", metadata !"_Impl", metadata !"", metadata !117, i32 529, metadata !228, i1 false, i1 false, i32 0, i32 0, null, i32 257, i1 false, null, null, i32 0, metadata !89, i32 529} ; [ DW_TAG_subprogram ]
!228 = metadata !{i32 786453, i32 0, metadata !"", i32 0, i32 0, i64 0, i64 0, i64 0, i32 0, null, metadata !229, i32 0, i32 0} ; [ DW_TAG_subroutine_type ]
!229 = metadata !{null, metadata !217, metadata !139}
!230 = metadata !{i32 786478, i32 0, metadata !121, metadata !"~_Impl", metadata !"~_Impl", metadata !"", metadata !117, i32 531, metadata !215, i1 false, i1 false, i32 0, i32 0, null, i32 257, i1 false, null, null, i32 0, metadata !89, i32 531} ; [ DW_TAG_subprogram ]
!231 = metadata !{i32 786478, i32 0, metadata !121, metadata !"_Impl", metadata !"_Impl", metadata !"", metadata !117, i32 533, metadata !232, i1 false, i1 false, i32 0, i32 0, null, i32 257, i1 false, null, null, i32 0, metadata !89, i32 533} ; [ DW_TAG_subprogram ]
!232 = metadata !{i32 786453, i32 0, metadata !"", i32 0, i32 0, i64 0, i64 0, i64 0, i32 0, null, metadata !233, i32 0, i32 0} ; [ DW_TAG_subroutine_type ]
!233 = metadata !{null, metadata !217, metadata !222}
!234 = metadata !{i32 786478, i32 0, metadata !121, metadata !"operator=", metadata !"operator=", metadata !"_ZNSt6locale5_ImplaSERKS0_", metadata !117, i32 536, metadata !232, i1 false, i1 false, i32 0, i32 0, null, i32 257, i1 false, null, null, i32 0, metadata !89, i32 536} ; [ DW_TAG_subprogram ]
!235 = metadata !{i32 786478, i32 0, metadata !121, metadata !"_M_check_same_name", metadata !"_M_check_same_name", metadata !"_ZNSt6locale5_Impl18_M_check_same_nameEv", metadata !117, i32 539, metadata !236, i1 false, i1 false, i32 0, i32 0, null, i32 257, i1 false, null, null, i32 0, metadata !89, i32 539} ; [ DW_TAG_subprogram ]
!236 = metadata !{i32 786453, i32 0, metadata !"", i32 0, i32 0, i64 0, i64 0, i64 0, i32 0, null, metadata !237, i32 0, i32 0} ; [ DW_TAG_subroutine_type ]
!237 = metadata !{metadata !238, metadata !217}
!238 = metadata !{i32 786468, null, metadata !"bool", null, i32 0, i64 8, i64 8, i64 0, i32 0, i32 2} ; [ DW_TAG_base_type ]
!239 = metadata !{i32 786478, i32 0, metadata !121, metadata !"_M_replace_categories", metadata !"_M_replace_categories", metadata !"_ZNSt6locale5_Impl21_M_replace_categoriesEPKS0_i", metadata !117, i32 550, metadata !240, i1 false, i1 false, i32 0, i32 0, null, i32 257, i1 false, null, null, i32 0, metadata !89, i32 550} ; [ DW_TAG_subprogram ]
!240 = metadata !{i32 786453, i32 0, metadata !"", i32 0, i32 0, i64 0, i64 0, i64 0, i32 0, null, metadata !241, i32 0, i32 0} ; [ DW_TAG_subroutine_type ]
!241 = metadata !{null, metadata !217, metadata !242, metadata !243}
!242 = metadata !{i32 786447, null, metadata !"", null, i32 0, i64 64, i64 64, i64 0, i32 0, metadata !223} ; [ DW_TAG_pointer_type ]
!243 = metadata !{i32 786454, metadata !115, metadata !"category", metadata !117, i32 68, i64 0, i64 0, i64 0, i32 0, metadata !56} ; [ DW_TAG_typedef ]
!244 = metadata !{i32 786478, i32 0, metadata !121, metadata !"_M_replace_category", metadata !"_M_replace_category", metadata !"_ZNSt6locale5_Impl19_M_replace_categoryEPKS0_PKPKNS_2idE", metadata !117, i32 553, metadata !245, i1 false, i1 false, i32 0, i32 0, null, i32 257, i1 false, null, null, i32 0, metadata !89, i32 553} ; [ DW_TAG_subprogram ]
!245 = metadata !{i32 786453, i32 0, metadata !"", i32 0, i32 0, i64 0, i64 0, i64 0, i32 0, null, metadata !246, i32 0, i32 0} ; [ DW_TAG_subroutine_type ]
!246 = metadata !{null, metadata !217, metadata !242, metadata !247}
!247 = metadata !{i32 786447, null, metadata !"", null, i32 0, i64 64, i64 64, i64 0, i32 0, metadata !248} ; [ DW_TAG_pointer_type ]
!248 = metadata !{i32 786470, null, metadata !"", null, i32 0, i64 0, i64 0, i64 0, i32 0, metadata !249} ; [ DW_TAG_const_type ]
!249 = metadata !{i32 786447, null, metadata !"", null, i32 0, i64 64, i64 64, i64 0, i32 0, metadata !250} ; [ DW_TAG_pointer_type ]
!250 = metadata !{i32 786470, null, metadata !"", null, i32 0, i64 0, i64 0, i64 0, i32 0, metadata !251} ; [ DW_TAG_const_type ]
!251 = metadata !{i32 786434, metadata !115, metadata !"id", metadata !117, i32 436, i64 64, i64 64, i32 0, i32 0, null, metadata !252, i32 0, null, null} ; [ DW_TAG_class_type ]
!252 = metadata !{metadata !253, metadata !254, metadata !259, metadata !260, metadata !263, metadata !267, metadata !268}
!253 = metadata !{i32 786445, metadata !251, metadata !"_M_index", metadata !117, i32 453, i64 64, i64 64, i64 0, i32 1, metadata !139} ; [ DW_TAG_member ]
!254 = metadata !{i32 786478, i32 0, metadata !251, metadata !"operator=", metadata !"operator=", metadata !"_ZNSt6locale2idaSERKS0_", metadata !117, i32 459, metadata !255, i1 false, i1 false, i32 0, i32 0, null, i32 257, i1 false, null, null, i32 0, metadata !89, i32 459} ; [ DW_TAG_subprogram ]
!255 = metadata !{i32 786453, i32 0, metadata !"", i32 0, i32 0, i64 0, i64 0, i64 0, i32 0, null, metadata !256, i32 0, i32 0} ; [ DW_TAG_subroutine_type ]
!256 = metadata !{null, metadata !257, metadata !258}
!257 = metadata !{i32 786447, i32 0, metadata !"", i32 0, i32 0, i64 64, i64 64, i64 0, i32 64, metadata !251} ; [ DW_TAG_pointer_type ]
!258 = metadata !{i32 786448, null, null, null, i32 0, i64 0, i64 0, i64 0, i32 0, metadata !250} ; [ DW_TAG_reference_type ]
!259 = metadata !{i32 786478, i32 0, metadata !251, metadata !"id", metadata !"id", metadata !"", metadata !117, i32 461, metadata !255, i1 false, i1 false, i32 0, i32 0, null, i32 257, i1 false, null, null, i32 0, metadata !89, i32 461} ; [ DW_TAG_subprogram ]
!260 = metadata !{i32 786478, i32 0, metadata !251, metadata !"id", metadata !"id", metadata !"", metadata !117, i32 467, metadata !261, i1 false, i1 false, i32 0, i32 0, null, i32 256, i1 false, null, null, i32 0, metadata !89, i32 467} ; [ DW_TAG_subprogram ]
!261 = metadata !{i32 786453, i32 0, metadata !"", i32 0, i32 0, i64 0, i64 0, i64 0, i32 0, null, metadata !262, i32 0, i32 0} ; [ DW_TAG_subroutine_type ]
!262 = metadata !{null, metadata !257}
!263 = metadata !{i32 786478, i32 0, metadata !251, metadata !"_M_id", metadata !"_M_id", metadata !"_ZNKSt6locale2id5_M_idEv", metadata !117, i32 470, metadata !264, i1 false, i1 false, i32 0, i32 0, null, i32 256, i1 false, null, null, i32 0, metadata !89, i32 470} ; [ DW_TAG_subprogram ]
!264 = metadata !{i32 786453, i32 0, metadata !"", i32 0, i32 0, i64 0, i64 0, i64 0, i32 0, null, metadata !265, i32 0, i32 0} ; [ DW_TAG_subroutine_type ]
!265 = metadata !{metadata !139, metadata !266}
!266 = metadata !{i32 786447, i32 0, metadata !"", i32 0, i32 0, i64 64, i64 64, i64 0, i32 64, metadata !250} ; [ DW_TAG_pointer_type ]
!267 = metadata !{i32 786474, metadata !251, null, metadata !117, i32 0, i64 0, i64 0, i64 0, i32 0, metadata !121} ; [ DW_TAG_friend ]
!268 = metadata !{i32 786474, metadata !251, null, metadata !117, i32 0, i64 0, i64 0, i64 0, i32 0, metadata !115} ; [ DW_TAG_friend ]
!269 = metadata !{i32 786478, i32 0, metadata !121, metadata !"_M_replace_facet", metadata !"_M_replace_facet", metadata !"_ZNSt6locale5_Impl16_M_replace_facetEPKS0_PKNS_2idE", metadata !117, i32 556, metadata !270, i1 false, i1 false, i32 0, i32 0, null, i32 257, i1 false, null, null, i32 0, metadata !89, i32 556} ; [ DW_TAG_subprogram ]
!270 = metadata !{i32 786453, i32 0, metadata !"", i32 0, i32 0, i64 0, i64 0, i64 0, i32 0, null, metadata !271, i32 0, i32 0} ; [ DW_TAG_subroutine_type ]
!271 = metadata !{null, metadata !217, metadata !242, metadata !249}
!272 = metadata !{i32 786478, i32 0, metadata !121, metadata !"_M_install_facet", metadata !"_M_install_facet", metadata !"_ZNSt6locale5_Impl16_M_install_facetEPKNS_2idEPKNS_5facetE", metadata !117, i32 559, metadata !273, i1 false, i1 false, i32 0, i32 0, null, i32 257, i1 false, null, null, i32 0, metadata !89, i32 559} ; [ DW_TAG_subprogram ]
!273 = metadata !{i32 786453, i32 0, metadata !"", i32 0, i32 0, i64 0, i64 0, i64 0, i32 0, null, metadata !274, i32 0, i32 0} ; [ DW_TAG_subroutine_type ]
!274 = metadata !{null, metadata !217, metadata !249, metadata !126}
!275 = metadata !{i32 786478, i32 0, metadata !121, metadata !"_M_install_cache", metadata !"_M_install_cache", metadata !"_ZNSt6locale5_Impl16_M_install_cacheEPKNS_5facetEm", metadata !117, i32 567, metadata !276, i1 false, i1 false, i32 0, i32 0, null, i32 257, i1 false, null, null, i32 0, metadata !89, i32 567} ; [ DW_TAG_subprogram ]
!276 = metadata !{i32 786453, i32 0, metadata !"", i32 0, i32 0, i64 0, i64 0, i64 0, i32 0, null, metadata !277, i32 0, i32 0} ; [ DW_TAG_subroutine_type ]
!277 = metadata !{null, metadata !217, metadata !126, metadata !139}
!278 = metadata !{i32 786474, metadata !121, null, metadata !117, i32 0, i64 0, i64 0, i64 0, i32 0, metadata !128} ; [ DW_TAG_friend ]
!279 = metadata !{i32 786474, metadata !121, null, metadata !117, i32 0, i64 0, i64 0, i64 0, i32 0, metadata !115} ; [ DW_TAG_friend ]
!280 = metadata !{i32 786478, i32 0, metadata !115, metadata !"locale", metadata !"locale", metadata !"", metadata !117, i32 118, metadata !281, i1 false, i1 false, i32 0, i32 0, null, i32 256, i1 false, null, null, i32 0, metadata !89, i32 118} ; [ DW_TAG_subprogram ]
!281 = metadata !{i32 786453, i32 0, metadata !"", i32 0, i32 0, i64 0, i64 0, i64 0, i32 0, null, metadata !282, i32 0, i32 0} ; [ DW_TAG_subroutine_type ]
!282 = metadata !{null, metadata !283}
!283 = metadata !{i32 786447, i32 0, metadata !"", i32 0, i32 0, i64 64, i64 64, i64 0, i32 64, metadata !115} ; [ DW_TAG_pointer_type ]
!284 = metadata !{i32 786478, i32 0, metadata !115, metadata !"locale", metadata !"locale", metadata !"", metadata !117, i32 127, metadata !285, i1 false, i1 false, i32 0, i32 0, null, i32 256, i1 false, null, null, i32 0, metadata !89, i32 127} ; [ DW_TAG_subprogram ]
!285 = metadata !{i32 786453, i32 0, metadata !"", i32 0, i32 0, i64 0, i64 0, i64 0, i32 0, null, metadata !286, i32 0, i32 0} ; [ DW_TAG_subroutine_type ]
!286 = metadata !{null, metadata !283, metadata !287}
!287 = metadata !{i32 786448, null, null, null, i32 0, i64 0, i64 0, i64 0, i32 0, metadata !288} ; [ DW_TAG_reference_type ]
!288 = metadata !{i32 786470, null, metadata !"", null, i32 0, i64 0, i64 0, i64 0, i32 0, metadata !115} ; [ DW_TAG_const_type ]
!289 = metadata !{i32 786478, i32 0, metadata !115, metadata !"locale", metadata !"locale", metadata !"", metadata !117, i32 138, metadata !290, i1 false, i1 false, i32 0, i32 0, null, i32 384, i1 false, null, null, i32 0, metadata !89, i32 138} ; [ DW_TAG_subprogram ]
!290 = metadata !{i32 786453, i32 0, metadata !"", i32 0, i32 0, i64 0, i64 0, i64 0, i32 0, null, metadata !291, i32 0, i32 0} ; [ DW_TAG_subroutine_type ]
!291 = metadata !{null, metadata !283, metadata !172}
!292 = metadata !{i32 786478, i32 0, metadata !115, metadata !"locale", metadata !"locale", metadata !"", metadata !117, i32 152, metadata !293, i1 false, i1 false, i32 0, i32 0, null, i32 256, i1 false, null, null, i32 0, metadata !89, i32 152} ; [ DW_TAG_subprogram ]
!293 = metadata !{i32 786453, i32 0, metadata !"", i32 0, i32 0, i64 0, i64 0, i64 0, i32 0, null, metadata !294, i32 0, i32 0} ; [ DW_TAG_subroutine_type ]
!294 = metadata !{null, metadata !283, metadata !287, metadata !172, metadata !243}
!295 = metadata !{i32 786478, i32 0, metadata !115, metadata !"locale", metadata !"locale", metadata !"", metadata !117, i32 165, metadata !296, i1 false, i1 false, i32 0, i32 0, null, i32 256, i1 false, null, null, i32 0, metadata !89, i32 165} ; [ DW_TAG_subprogram ]
!296 = metadata !{i32 786453, i32 0, metadata !"", i32 0, i32 0, i64 0, i64 0, i64 0, i32 0, null, metadata !297, i32 0, i32 0} ; [ DW_TAG_subroutine_type ]
!297 = metadata !{null, metadata !283, metadata !287, metadata !287, metadata !243}
!298 = metadata !{i32 786478, i32 0, metadata !115, metadata !"~locale", metadata !"~locale", metadata !"", metadata !117, i32 181, metadata !281, i1 false, i1 false, i32 0, i32 0, null, i32 256, i1 false, null, null, i32 0, metadata !89, i32 181} ; [ DW_TAG_subprogram ]
!299 = metadata !{i32 786478, i32 0, metadata !115, metadata !"operator=", metadata !"operator=", metadata !"_ZNSt6localeaSERKS_", metadata !117, i32 192, metadata !300, i1 false, i1 false, i32 0, i32 0, null, i32 256, i1 false, null, null, i32 0, metadata !89, i32 192} ; [ DW_TAG_subprogram ]
!300 = metadata !{i32 786453, i32 0, metadata !"", i32 0, i32 0, i64 0, i64 0, i64 0, i32 0, null, metadata !301, i32 0, i32 0} ; [ DW_TAG_subroutine_type ]
!301 = metadata !{metadata !287, metadata !283, metadata !287}
!302 = metadata !{i32 786478, i32 0, metadata !115, metadata !"name", metadata !"name", metadata !"_ZNKSt6locale4nameEv", metadata !117, i32 216, metadata !303, i1 false, i1 false, i32 0, i32 0, null, i32 256, i1 false, null, null, i32 0, metadata !89, i32 216} ; [ DW_TAG_subprogram ]
!303 = metadata !{i32 786453, i32 0, metadata !"", i32 0, i32 0, i64 0, i64 0, i64 0, i32 0, null, metadata !304, i32 0, i32 0} ; [ DW_TAG_subroutine_type ]
!304 = metadata !{metadata !305, metadata !796}
!305 = metadata !{i32 786454, metadata !306, metadata !"string", metadata !117, i32 64, i64 0, i64 0, i64 0, i32 0, metadata !308} ; [ DW_TAG_typedef ]
!306 = metadata !{i32 786489, null, metadata !"std", metadata !307, i32 42} ; [ DW_TAG_namespace ]
!307 = metadata !{i32 786473, metadata !"/Xilinx/Vivado_HLS/2017.1/lnx64/tools/gcc/lib/gcc/x86_64-unknown-linux-gnu/4.6.3/../../../../include/c++/4.6.3/bits/stringfwd.h", metadata !"/home/aimee/root_of_trust/experiments/secure_filesystem", null} ; [ DW_TAG_file_type ]
!308 = metadata !{i32 786434, metadata !306, metadata !"basic_string<char>", metadata !309, i32 1133, i64 64, i64 64, i32 0, i32 0, null, metadata !310, i32 0, null, metadata !740} ; [ DW_TAG_class_type ]
!309 = metadata !{i32 786473, metadata !"/Xilinx/Vivado_HLS/2017.1/lnx64/tools/gcc/lib/gcc/x86_64-unknown-linux-gnu/4.6.3/../../../../include/c++/4.6.3/bits/basic_string.tcc", metadata !"/home/aimee/root_of_trust/experiments/secure_filesystem", null} ; [ DW_TAG_file_type ]
!310 = metadata !{metadata !311, metadata !384, metadata !389, metadata !393, metadata !442, metadata !448, metadata !449, metadata !452, metadata !455, metadata !458, metadata !461, metadata !464, metadata !467, metadata !468, metadata !471, metadata !474, metadata !479, metadata !482, metadata !485, metadata !488, metadata !491, metadata !492, metadata !493, metadata !494, metadata !497, metadata !501, metadata !504, metadata !507, metadata !510, metadata !513, metadata !516, metadata !517, metadata !521, metadata !524, metadata !527, metadata !530, metadata !533, metadata !534, metadata !535, metadata !540, metadata !545, metadata !546, metadata !547, metadata !550, metadata !551, metadata !552, metadata !555, metadata !558, metadata !559, metadata !560, metadata !561, metadata !564, metadata !569, metadata !574, metadata !575, metadata !576, metadata !577, metadata !578, metadata !579, metadata !580, metadata !583, metadata !586, metadata !587, metadata !590, metadata !593, metadata !594, metadata !595, metadata !596, metadata !597, metadata !598, metadata !601, metadata !604, metadata !607, metadata !610, metadata !613, metadata !616, metadata !619, metadata !622, metadata !625, metadata !628, metadata !631, metadata !634, metadata !637, metadata !640, metadata !643, metadata !646, metadata !649, metadata !652, metadata !655, metadata !658, metadata !661, metadata !664, metadata !667, metadata !668, metadata !669, metadata !672, metadata !673, metadata !676, metadata !679, metadata !682, metadata !683, metadata !687, metadata !690, metadata !693, metadata !696, metadata !699, metadata !700, metadata !701, metadata !702, metadata !703, metadata !704, metadata !705, metadata !706, metadata !707, metadata !708, metadata !709, metadata !710, metadata !711, metadata !712, metadata !713, metadata !714, metadata !715, metadata !716, metadata !717, metadata !718, metadata !719, metadata !722, metadata !725, metadata !728, metadata !731, metadata !734, metadata !737}
!311 = metadata !{i32 786445, metadata !308, metadata !"_M_dataplus", metadata !312, i32 283, i64 64, i64 64, i64 0, i32 1, metadata !313} ; [ DW_TAG_member ]
!312 = metadata !{i32 786473, metadata !"/Xilinx/Vivado_HLS/2017.1/lnx64/tools/gcc/lib/gcc/x86_64-unknown-linux-gnu/4.6.3/../../../../include/c++/4.6.3/bits/basic_string.h", metadata !"/home/aimee/root_of_trust/experiments/secure_filesystem", null} ; [ DW_TAG_file_type ]
!313 = metadata !{i32 786434, metadata !308, metadata !"_Alloc_hider", metadata !312, i32 266, i64 64, i64 64, i32 0, i32 0, null, metadata !314, i32 0, null, null} ; [ DW_TAG_class_type ]
!314 = metadata !{metadata !315, metadata !379, metadata !380}
!315 = metadata !{i32 786460, metadata !313, null, metadata !312, i32 0, i64 0, i64 0, i64 0, i32 0, metadata !316} ; [ DW_TAG_inheritance ]
!316 = metadata !{i32 786434, metadata !306, metadata !"allocator<char>", metadata !317, i32 143, i64 8, i64 8, i32 0, i32 0, null, metadata !318, i32 0, null, metadata !377} ; [ DW_TAG_class_type ]
!317 = metadata !{i32 786473, metadata !"/Xilinx/Vivado_HLS/2017.1/lnx64/tools/gcc/lib/gcc/x86_64-unknown-linux-gnu/4.6.3/../../../../include/c++/4.6.3/bits/allocator.h", metadata !"/home/aimee/root_of_trust/experiments/secure_filesystem", null} ; [ DW_TAG_file_type ]
!318 = metadata !{metadata !319, metadata !367, metadata !371, metadata !376}
!319 = metadata !{i32 786460, metadata !316, null, metadata !317, i32 0, i64 0, i64 0, i64 0, i32 0, metadata !320} ; [ DW_TAG_inheritance ]
!320 = metadata !{i32 786434, metadata !321, metadata !"new_allocator<char>", metadata !322, i32 54, i64 8, i64 8, i32 0, i32 0, null, metadata !323, i32 0, null, metadata !365} ; [ DW_TAG_class_type ]
!321 = metadata !{i32 786489, null, metadata !"__gnu_cxx", metadata !322, i32 38} ; [ DW_TAG_namespace ]
!322 = metadata !{i32 786473, metadata !"/Xilinx/Vivado_HLS/2017.1/lnx64/tools/gcc/lib/gcc/x86_64-unknown-linux-gnu/4.6.3/../../../../include/c++/4.6.3/ext/new_allocator.h", metadata !"/home/aimee/root_of_trust/experiments/secure_filesystem", null} ; [ DW_TAG_file_type ]
!323 = metadata !{metadata !324, metadata !328, metadata !333, metadata !334, metadata !341, metadata !347, metadata !353, metadata !356, metadata !359, metadata !362}
!324 = metadata !{i32 786478, i32 0, metadata !320, metadata !"new_allocator", metadata !"new_allocator", metadata !"", metadata !322, i32 69, metadata !325, i1 false, i1 false, i32 0, i32 0, null, i32 256, i1 false, null, null, i32 0, metadata !89, i32 69} ; [ DW_TAG_subprogram ]
!325 = metadata !{i32 786453, i32 0, metadata !"", i32 0, i32 0, i64 0, i64 0, i64 0, i32 0, null, metadata !326, i32 0, i32 0} ; [ DW_TAG_subroutine_type ]
!326 = metadata !{null, metadata !327}
!327 = metadata !{i32 786447, i32 0, metadata !"", i32 0, i32 0, i64 64, i64 64, i64 0, i32 64, metadata !320} ; [ DW_TAG_pointer_type ]
!328 = metadata !{i32 786478, i32 0, metadata !320, metadata !"new_allocator", metadata !"new_allocator", metadata !"", metadata !322, i32 71, metadata !329, i1 false, i1 false, i32 0, i32 0, null, i32 256, i1 false, null, null, i32 0, metadata !89, i32 71} ; [ DW_TAG_subprogram ]
!329 = metadata !{i32 786453, i32 0, metadata !"", i32 0, i32 0, i64 0, i64 0, i64 0, i32 0, null, metadata !330, i32 0, i32 0} ; [ DW_TAG_subroutine_type ]
!330 = metadata !{null, metadata !327, metadata !331}
!331 = metadata !{i32 786448, null, null, null, i32 0, i64 0, i64 0, i64 0, i32 0, metadata !332} ; [ DW_TAG_reference_type ]
!332 = metadata !{i32 786470, null, metadata !"", null, i32 0, i64 0, i64 0, i64 0, i32 0, metadata !320} ; [ DW_TAG_const_type ]
!333 = metadata !{i32 786478, i32 0, metadata !320, metadata !"~new_allocator", metadata !"~new_allocator", metadata !"", metadata !322, i32 76, metadata !325, i1 false, i1 false, i32 0, i32 0, null, i32 256, i1 false, null, null, i32 0, metadata !89, i32 76} ; [ DW_TAG_subprogram ]
!334 = metadata !{i32 786478, i32 0, metadata !320, metadata !"address", metadata !"address", metadata !"_ZNK9__gnu_cxx13new_allocatorIcE7addressERc", metadata !322, i32 79, metadata !335, i1 false, i1 false, i32 0, i32 0, null, i32 256, i1 false, null, null, i32 0, metadata !89, i32 79} ; [ DW_TAG_subprogram ]
!335 = metadata !{i32 786453, i32 0, metadata !"", i32 0, i32 0, i64 0, i64 0, i64 0, i32 0, null, metadata !336, i32 0, i32 0} ; [ DW_TAG_subroutine_type ]
!336 = metadata !{metadata !337, metadata !338, metadata !339}
!337 = metadata !{i32 786454, metadata !320, metadata !"pointer", metadata !322, i32 59, i64 0, i64 0, i64 0, i32 0, metadata !213} ; [ DW_TAG_typedef ]
!338 = metadata !{i32 786447, i32 0, metadata !"", i32 0, i32 0, i64 64, i64 64, i64 0, i32 64, metadata !332} ; [ DW_TAG_pointer_type ]
!339 = metadata !{i32 786454, metadata !320, metadata !"reference", metadata !322, i32 61, i64 0, i64 0, i64 0, i32 0, metadata !340} ; [ DW_TAG_typedef ]
!340 = metadata !{i32 786448, null, null, null, i32 0, i64 0, i64 0, i64 0, i32 0, metadata !174} ; [ DW_TAG_reference_type ]
!341 = metadata !{i32 786478, i32 0, metadata !320, metadata !"address", metadata !"address", metadata !"_ZNK9__gnu_cxx13new_allocatorIcE7addressERKc", metadata !322, i32 82, metadata !342, i1 false, i1 false, i32 0, i32 0, null, i32 256, i1 false, null, null, i32 0, metadata !89, i32 82} ; [ DW_TAG_subprogram ]
!342 = metadata !{i32 786453, i32 0, metadata !"", i32 0, i32 0, i64 0, i64 0, i64 0, i32 0, null, metadata !343, i32 0, i32 0} ; [ DW_TAG_subroutine_type ]
!343 = metadata !{metadata !344, metadata !338, metadata !345}
!344 = metadata !{i32 786454, metadata !320, metadata !"const_pointer", metadata !322, i32 60, i64 0, i64 0, i64 0, i32 0, metadata !172} ; [ DW_TAG_typedef ]
!345 = metadata !{i32 786454, metadata !320, metadata !"const_reference", metadata !322, i32 62, i64 0, i64 0, i64 0, i32 0, metadata !346} ; [ DW_TAG_typedef ]
!346 = metadata !{i32 786448, null, null, null, i32 0, i64 0, i64 0, i64 0, i32 0, metadata !173} ; [ DW_TAG_reference_type ]
!347 = metadata !{i32 786478, i32 0, metadata !320, metadata !"allocate", metadata !"allocate", metadata !"_ZN9__gnu_cxx13new_allocatorIcE8allocateEmPKv", metadata !322, i32 87, metadata !348, i1 false, i1 false, i32 0, i32 0, null, i32 256, i1 false, null, null, i32 0, metadata !89, i32 87} ; [ DW_TAG_subprogram ]
!348 = metadata !{i32 786453, i32 0, metadata !"", i32 0, i32 0, i64 0, i64 0, i64 0, i32 0, null, metadata !349, i32 0, i32 0} ; [ DW_TAG_subroutine_type ]
!349 = metadata !{metadata !337, metadata !327, metadata !350, metadata !351}
!350 = metadata !{i32 786454, null, metadata !"size_type", metadata !322, i32 57, i64 0, i64 0, i64 0, i32 0, metadata !139} ; [ DW_TAG_typedef ]
!351 = metadata !{i32 786447, null, metadata !"", null, i32 0, i64 64, i64 64, i64 0, i32 0, metadata !352} ; [ DW_TAG_pointer_type ]
!352 = metadata !{i32 786470, null, metadata !"", null, i32 0, i64 0, i64 0, i64 0, i32 0, null} ; [ DW_TAG_const_type ]
!353 = metadata !{i32 786478, i32 0, metadata !320, metadata !"deallocate", metadata !"deallocate", metadata !"_ZN9__gnu_cxx13new_allocatorIcE10deallocateEPcm", metadata !322, i32 97, metadata !354, i1 false, i1 false, i32 0, i32 0, null, i32 256, i1 false, null, null, i32 0, metadata !89, i32 97} ; [ DW_TAG_subprogram ]
!354 = metadata !{i32 786453, i32 0, metadata !"", i32 0, i32 0, i64 0, i64 0, i64 0, i32 0, null, metadata !355, i32 0, i32 0} ; [ DW_TAG_subroutine_type ]
!355 = metadata !{null, metadata !327, metadata !337, metadata !350}
!356 = metadata !{i32 786478, i32 0, metadata !320, metadata !"max_size", metadata !"max_size", metadata !"_ZNK9__gnu_cxx13new_allocatorIcE8max_sizeEv", metadata !322, i32 101, metadata !357, i1 false, i1 false, i32 0, i32 0, null, i32 256, i1 false, null, null, i32 0, metadata !89, i32 101} ; [ DW_TAG_subprogram ]
!357 = metadata !{i32 786453, i32 0, metadata !"", i32 0, i32 0, i64 0, i64 0, i64 0, i32 0, null, metadata !358, i32 0, i32 0} ; [ DW_TAG_subroutine_type ]
!358 = metadata !{metadata !350, metadata !338}
!359 = metadata !{i32 786478, i32 0, metadata !320, metadata !"construct", metadata !"construct", metadata !"_ZN9__gnu_cxx13new_allocatorIcE9constructEPcRKc", metadata !322, i32 107, metadata !360, i1 false, i1 false, i32 0, i32 0, null, i32 256, i1 false, null, null, i32 0, metadata !89, i32 107} ; [ DW_TAG_subprogram ]
!360 = metadata !{i32 786453, i32 0, metadata !"", i32 0, i32 0, i64 0, i64 0, i64 0, i32 0, null, metadata !361, i32 0, i32 0} ; [ DW_TAG_subroutine_type ]
!361 = metadata !{null, metadata !327, metadata !337, metadata !346}
!362 = metadata !{i32 786478, i32 0, metadata !320, metadata !"destroy", metadata !"destroy", metadata !"_ZN9__gnu_cxx13new_allocatorIcE7destroyEPc", metadata !322, i32 118, metadata !363, i1 false, i1 false, i32 0, i32 0, null, i32 256, i1 false, null, null, i32 0, metadata !89, i32 118} ; [ DW_TAG_subprogram ]
!363 = metadata !{i32 786453, i32 0, metadata !"", i32 0, i32 0, i64 0, i64 0, i64 0, i32 0, null, metadata !364, i32 0, i32 0} ; [ DW_TAG_subroutine_type ]
!364 = metadata !{null, metadata !327, metadata !337}
!365 = metadata !{metadata !366}
!366 = metadata !{i32 786479, null, metadata !"_Tp", metadata !174, null, i32 0, i32 0} ; [ DW_TAG_template_type_parameter ]
!367 = metadata !{i32 786478, i32 0, metadata !316, metadata !"allocator", metadata !"allocator", metadata !"", metadata !317, i32 107, metadata !368, i1 false, i1 false, i32 0, i32 0, null, i32 256, i1 false, null, null, i32 0, metadata !89, i32 107} ; [ DW_TAG_subprogram ]
!368 = metadata !{i32 786453, i32 0, metadata !"", i32 0, i32 0, i64 0, i64 0, i64 0, i32 0, null, metadata !369, i32 0, i32 0} ; [ DW_TAG_subroutine_type ]
!369 = metadata !{null, metadata !370}
!370 = metadata !{i32 786447, i32 0, metadata !"", i32 0, i32 0, i64 64, i64 64, i64 0, i32 64, metadata !316} ; [ DW_TAG_pointer_type ]
!371 = metadata !{i32 786478, i32 0, metadata !316, metadata !"allocator", metadata !"allocator", metadata !"", metadata !317, i32 109, metadata !372, i1 false, i1 false, i32 0, i32 0, null, i32 256, i1 false, null, null, i32 0, metadata !89, i32 109} ; [ DW_TAG_subprogram ]
!372 = metadata !{i32 786453, i32 0, metadata !"", i32 0, i32 0, i64 0, i64 0, i64 0, i32 0, null, metadata !373, i32 0, i32 0} ; [ DW_TAG_subroutine_type ]
!373 = metadata !{null, metadata !370, metadata !374}
!374 = metadata !{i32 786448, null, null, null, i32 0, i64 0, i64 0, i64 0, i32 0, metadata !375} ; [ DW_TAG_reference_type ]
!375 = metadata !{i32 786470, null, metadata !"", null, i32 0, i64 0, i64 0, i64 0, i32 0, metadata !316} ; [ DW_TAG_const_type ]
!376 = metadata !{i32 786478, i32 0, metadata !316, metadata !"~allocator", metadata !"~allocator", metadata !"", metadata !317, i32 115, metadata !368, i1 false, i1 false, i32 0, i32 0, null, i32 256, i1 false, null, null, i32 0, metadata !89, i32 115} ; [ DW_TAG_subprogram ]
!377 = metadata !{metadata !378}
!378 = metadata !{i32 786479, null, metadata !"_Alloc", metadata !174, null, i32 0, i32 0} ; [ DW_TAG_template_type_parameter ]
!379 = metadata !{i32 786445, metadata !313, metadata !"_M_p", metadata !312, i32 271, i64 64, i64 64, i64 0, i32 0, metadata !213} ; [ DW_TAG_member ]
!380 = metadata !{i32 786478, i32 0, metadata !313, metadata !"_Alloc_hider", metadata !"_Alloc_hider", metadata !"", metadata !312, i32 268, metadata !381, i1 false, i1 false, i32 0, i32 0, null, i32 256, i1 false, null, null, i32 0, metadata !89, i32 268} ; [ DW_TAG_subprogram ]
!381 = metadata !{i32 786453, i32 0, metadata !"", i32 0, i32 0, i64 0, i64 0, i64 0, i32 0, null, metadata !382, i32 0, i32 0} ; [ DW_TAG_subroutine_type ]
!382 = metadata !{null, metadata !383, metadata !213, metadata !374}
!383 = metadata !{i32 786447, i32 0, metadata !"", i32 0, i32 0, i64 64, i64 64, i64 0, i32 64, metadata !313} ; [ DW_TAG_pointer_type ]
!384 = metadata !{i32 786478, i32 0, metadata !308, metadata !"_M_data", metadata !"_M_data", metadata !"_ZNKSs7_M_dataEv", metadata !312, i32 286, metadata !385, i1 false, i1 false, i32 0, i32 0, null, i32 257, i1 false, null, null, i32 0, metadata !89, i32 286} ; [ DW_TAG_subprogram ]
!385 = metadata !{i32 786453, i32 0, metadata !"", i32 0, i32 0, i64 0, i64 0, i64 0, i32 0, null, metadata !386, i32 0, i32 0} ; [ DW_TAG_subroutine_type ]
!386 = metadata !{metadata !213, metadata !387}
!387 = metadata !{i32 786447, i32 0, metadata !"", i32 0, i32 0, i64 64, i64 64, i64 0, i32 64, metadata !388} ; [ DW_TAG_pointer_type ]
!388 = metadata !{i32 786470, null, metadata !"", null, i32 0, i64 0, i64 0, i64 0, i32 0, metadata !308} ; [ DW_TAG_const_type ]
!389 = metadata !{i32 786478, i32 0, metadata !308, metadata !"_M_data", metadata !"_M_data", metadata !"_ZNSs7_M_dataEPc", metadata !312, i32 290, metadata !390, i1 false, i1 false, i32 0, i32 0, null, i32 257, i1 false, null, null, i32 0, metadata !89, i32 290} ; [ DW_TAG_subprogram ]
!390 = metadata !{i32 786453, i32 0, metadata !"", i32 0, i32 0, i64 0, i64 0, i64 0, i32 0, null, metadata !391, i32 0, i32 0} ; [ DW_TAG_subroutine_type ]
!391 = metadata !{metadata !213, metadata !392, metadata !213}
!392 = metadata !{i32 786447, i32 0, metadata !"", i32 0, i32 0, i64 64, i64 64, i64 0, i32 64, metadata !308} ; [ DW_TAG_pointer_type ]
!393 = metadata !{i32 786478, i32 0, metadata !308, metadata !"_M_rep", metadata !"_M_rep", metadata !"_ZNKSs6_M_repEv", metadata !312, i32 294, metadata !394, i1 false, i1 false, i32 0, i32 0, null, i32 257, i1 false, null, null, i32 0, metadata !89, i32 294} ; [ DW_TAG_subprogram ]
!394 = metadata !{i32 786453, i32 0, metadata !"", i32 0, i32 0, i64 0, i64 0, i64 0, i32 0, null, metadata !395, i32 0, i32 0} ; [ DW_TAG_subroutine_type ]
!395 = metadata !{metadata !396, metadata !387}
!396 = metadata !{i32 786447, null, metadata !"", null, i32 0, i64 64, i64 64, i64 0, i32 0, metadata !397} ; [ DW_TAG_pointer_type ]
!397 = metadata !{i32 786434, metadata !308, metadata !"_Rep", metadata !312, i32 149, i64 192, i64 64, i32 0, i32 0, null, metadata !398, i32 0, null, null} ; [ DW_TAG_class_type ]
!398 = metadata !{metadata !399, metadata !407, metadata !411, metadata !416, metadata !417, metadata !421, metadata !422, metadata !425, metadata !428, metadata !431, metadata !434, metadata !437, metadata !438, metadata !439}
!399 = metadata !{i32 786460, metadata !397, null, metadata !312, i32 0, i64 0, i64 0, i64 0, i32 0, metadata !400} ; [ DW_TAG_inheritance ]
!400 = metadata !{i32 786434, metadata !308, metadata !"_Rep_base", metadata !312, i32 142, i64 192, i64 64, i32 0, i32 0, null, metadata !401, i32 0, null, null} ; [ DW_TAG_class_type ]
!401 = metadata !{metadata !402, metadata !405, metadata !406}
!402 = metadata !{i32 786445, metadata !400, metadata !"_M_length", metadata !312, i32 144, i64 64, i64 64, i64 0, i32 0, metadata !403} ; [ DW_TAG_member ]
!403 = metadata !{i32 786454, metadata !308, metadata !"size_type", metadata !312, i32 115, i64 0, i64 0, i64 0, i32 0, metadata !404} ; [ DW_TAG_typedef ]
!404 = metadata !{i32 786454, metadata !316, metadata !"size_type", metadata !312, i32 95, i64 0, i64 0, i64 0, i32 0, metadata !139} ; [ DW_TAG_typedef ]
!405 = metadata !{i32 786445, metadata !400, metadata !"_M_capacity", metadata !312, i32 145, i64 64, i64 64, i64 64, i32 0, metadata !403} ; [ DW_TAG_member ]
!406 = metadata !{i32 786445, metadata !400, metadata !"_M_refcount", metadata !312, i32 146, i64 32, i64 32, i64 128, i32 0, metadata !84} ; [ DW_TAG_member ]
!407 = metadata !{i32 786478, i32 0, metadata !397, metadata !"_S_empty_rep", metadata !"_S_empty_rep", metadata !"_ZNSs4_Rep12_S_empty_repEv", metadata !312, i32 175, metadata !408, i1 false, i1 false, i32 0, i32 0, null, i32 256, i1 false, null, null, i32 0, metadata !89, i32 175} ; [ DW_TAG_subprogram ]
!408 = metadata !{i32 786453, i32 0, metadata !"", i32 0, i32 0, i64 0, i64 0, i64 0, i32 0, null, metadata !409, i32 0, i32 0} ; [ DW_TAG_subroutine_type ]
!409 = metadata !{metadata !410}
!410 = metadata !{i32 786448, null, null, null, i32 0, i64 0, i64 0, i64 0, i32 0, metadata !397} ; [ DW_TAG_reference_type ]
!411 = metadata !{i32 786478, i32 0, metadata !397, metadata !"_M_is_leaked", metadata !"_M_is_leaked", metadata !"_ZNKSs4_Rep12_M_is_leakedEv", metadata !312, i32 185, metadata !412, i1 false, i1 false, i32 0, i32 0, null, i32 256, i1 false, null, null, i32 0, metadata !89, i32 185} ; [ DW_TAG_subprogram ]
!412 = metadata !{i32 786453, i32 0, metadata !"", i32 0, i32 0, i64 0, i64 0, i64 0, i32 0, null, metadata !413, i32 0, i32 0} ; [ DW_TAG_subroutine_type ]
!413 = metadata !{metadata !238, metadata !414}
!414 = metadata !{i32 786447, i32 0, metadata !"", i32 0, i32 0, i64 64, i64 64, i64 0, i32 64, metadata !415} ; [ DW_TAG_pointer_type ]
!415 = metadata !{i32 786470, null, metadata !"", null, i32 0, i64 0, i64 0, i64 0, i32 0, metadata !397} ; [ DW_TAG_const_type ]
!416 = metadata !{i32 786478, i32 0, metadata !397, metadata !"_M_is_shared", metadata !"_M_is_shared", metadata !"_ZNKSs4_Rep12_M_is_sharedEv", metadata !312, i32 189, metadata !412, i1 false, i1 false, i32 0, i32 0, null, i32 256, i1 false, null, null, i32 0, metadata !89, i32 189} ; [ DW_TAG_subprogram ]
!417 = metadata !{i32 786478, i32 0, metadata !397, metadata !"_M_set_leaked", metadata !"_M_set_leaked", metadata !"_ZNSs4_Rep13_M_set_leakedEv", metadata !312, i32 193, metadata !418, i1 false, i1 false, i32 0, i32 0, null, i32 256, i1 false, null, null, i32 0, metadata !89, i32 193} ; [ DW_TAG_subprogram ]
!418 = metadata !{i32 786453, i32 0, metadata !"", i32 0, i32 0, i64 0, i64 0, i64 0, i32 0, null, metadata !419, i32 0, i32 0} ; [ DW_TAG_subroutine_type ]
!419 = metadata !{null, metadata !420}
!420 = metadata !{i32 786447, i32 0, metadata !"", i32 0, i32 0, i64 64, i64 64, i64 0, i32 64, metadata !397} ; [ DW_TAG_pointer_type ]
!421 = metadata !{i32 786478, i32 0, metadata !397, metadata !"_M_set_sharable", metadata !"_M_set_sharable", metadata !"_ZNSs4_Rep15_M_set_sharableEv", metadata !312, i32 197, metadata !418, i1 false, i1 false, i32 0, i32 0, null, i32 256, i1 false, null, null, i32 0, metadata !89, i32 197} ; [ DW_TAG_subprogram ]
!422 = metadata !{i32 786478, i32 0, metadata !397, metadata !"_M_set_length_and_sharable", metadata !"_M_set_length_and_sharable", metadata !"_ZNSs4_Rep26_M_set_length_and_sharableEm", metadata !312, i32 201, metadata !423, i1 false, i1 false, i32 0, i32 0, null, i32 256, i1 false, null, null, i32 0, metadata !89, i32 201} ; [ DW_TAG_subprogram ]
!423 = metadata !{i32 786453, i32 0, metadata !"", i32 0, i32 0, i64 0, i64 0, i64 0, i32 0, null, metadata !424, i32 0, i32 0} ; [ DW_TAG_subroutine_type ]
!424 = metadata !{null, metadata !420, metadata !403}
!425 = metadata !{i32 786478, i32 0, metadata !397, metadata !"_M_refdata", metadata !"_M_refdata", metadata !"_ZNSs4_Rep10_M_refdataEv", metadata !312, i32 216, metadata !426, i1 false, i1 false, i32 0, i32 0, null, i32 256, i1 false, null, null, i32 0, metadata !89, i32 216} ; [ DW_TAG_subprogram ]
!426 = metadata !{i32 786453, i32 0, metadata !"", i32 0, i32 0, i64 0, i64 0, i64 0, i32 0, null, metadata !427, i32 0, i32 0} ; [ DW_TAG_subroutine_type ]
!427 = metadata !{metadata !213, metadata !420}
!428 = metadata !{i32 786478, i32 0, metadata !397, metadata !"_M_grab", metadata !"_M_grab", metadata !"_ZNSs4_Rep7_M_grabERKSaIcES2_", metadata !312, i32 220, metadata !429, i1 false, i1 false, i32 0, i32 0, null, i32 256, i1 false, null, null, i32 0, metadata !89, i32 220} ; [ DW_TAG_subprogram ]
!429 = metadata !{i32 786453, i32 0, metadata !"", i32 0, i32 0, i64 0, i64 0, i64 0, i32 0, null, metadata !430, i32 0, i32 0} ; [ DW_TAG_subroutine_type ]
!430 = metadata !{metadata !213, metadata !420, metadata !374, metadata !374}
!431 = metadata !{i32 786478, i32 0, metadata !397, metadata !"_S_create", metadata !"_S_create", metadata !"_ZNSs4_Rep9_S_createEmmRKSaIcE", metadata !312, i32 228, metadata !432, i1 false, i1 false, i32 0, i32 0, null, i32 256, i1 false, null, null, i32 0, metadata !89, i32 228} ; [ DW_TAG_subprogram ]
!432 = metadata !{i32 786453, i32 0, metadata !"", i32 0, i32 0, i64 0, i64 0, i64 0, i32 0, null, metadata !433, i32 0, i32 0} ; [ DW_TAG_subroutine_type ]
!433 = metadata !{metadata !396, metadata !403, metadata !403, metadata !374}
!434 = metadata !{i32 786478, i32 0, metadata !397, metadata !"_M_dispose", metadata !"_M_dispose", metadata !"_ZNSs4_Rep10_M_disposeERKSaIcE", metadata !312, i32 231, metadata !435, i1 false, i1 false, i32 0, i32 0, null, i32 256, i1 false, null, null, i32 0, metadata !89, i32 231} ; [ DW_TAG_subprogram ]
!435 = metadata !{i32 786453, i32 0, metadata !"", i32 0, i32 0, i64 0, i64 0, i64 0, i32 0, null, metadata !436, i32 0, i32 0} ; [ DW_TAG_subroutine_type ]
!436 = metadata !{null, metadata !420, metadata !374}
!437 = metadata !{i32 786478, i32 0, metadata !397, metadata !"_M_destroy", metadata !"_M_destroy", metadata !"_ZNSs4_Rep10_M_destroyERKSaIcE", metadata !312, i32 249, metadata !435, i1 false, i1 false, i32 0, i32 0, null, i32 256, i1 false, null, null, i32 0, metadata !89, i32 249} ; [ DW_TAG_subprogram ]
!438 = metadata !{i32 786478, i32 0, metadata !397, metadata !"_M_refcopy", metadata !"_M_refcopy", metadata !"_ZNSs4_Rep10_M_refcopyEv", metadata !312, i32 252, metadata !426, i1 false, i1 false, i32 0, i32 0, null, i32 256, i1 false, null, null, i32 0, metadata !89, i32 252} ; [ DW_TAG_subprogram ]
!439 = metadata !{i32 786478, i32 0, metadata !397, metadata !"_M_clone", metadata !"_M_clone", metadata !"_ZNSs4_Rep8_M_cloneERKSaIcEm", metadata !312, i32 262, metadata !440, i1 false, i1 false, i32 0, i32 0, null, i32 256, i1 false, null, null, i32 0, metadata !89, i32 262} ; [ DW_TAG_subprogram ]
!440 = metadata !{i32 786453, i32 0, metadata !"", i32 0, i32 0, i64 0, i64 0, i64 0, i32 0, null, metadata !441, i32 0, i32 0} ; [ DW_TAG_subroutine_type ]
!441 = metadata !{metadata !213, metadata !420, metadata !374, metadata !403}
!442 = metadata !{i32 786478, i32 0, metadata !308, metadata !"_M_ibegin", metadata !"_M_ibegin", metadata !"_ZNKSs9_M_ibeginEv", metadata !312, i32 300, metadata !443, i1 false, i1 false, i32 0, i32 0, null, i32 257, i1 false, null, null, i32 0, metadata !89, i32 300} ; [ DW_TAG_subprogram ]
!443 = metadata !{i32 786453, i32 0, metadata !"", i32 0, i32 0, i64 0, i64 0, i64 0, i32 0, null, metadata !444, i32 0, i32 0} ; [ DW_TAG_subroutine_type ]
!444 = metadata !{metadata !445, metadata !387}
!445 = metadata !{i32 786454, metadata !308, metadata !"iterator", metadata !309, i32 121, i64 0, i64 0, i64 0, i32 0, metadata !446} ; [ DW_TAG_typedef ]
!446 = metadata !{i32 786434, null, metadata !"__normal_iterator<char *, std::basic_string<char> >", metadata !447, i32 702, i32 0, i32 0, i32 0, i32 4, null, null, i32 0} ; [ DW_TAG_class_type ]
!447 = metadata !{i32 786473, metadata !"/Xilinx/Vivado_HLS/2017.1/lnx64/tools/gcc/lib/gcc/x86_64-unknown-linux-gnu/4.6.3/../../../../include/c++/4.6.3/bits/stl_iterator.h", metadata !"/home/aimee/root_of_trust/experiments/secure_filesystem", null} ; [ DW_TAG_file_type ]
!448 = metadata !{i32 786478, i32 0, metadata !308, metadata !"_M_iend", metadata !"_M_iend", metadata !"_ZNKSs7_M_iendEv", metadata !312, i32 304, metadata !443, i1 false, i1 false, i32 0, i32 0, null, i32 257, i1 false, null, null, i32 0, metadata !89, i32 304} ; [ DW_TAG_subprogram ]
!449 = metadata !{i32 786478, i32 0, metadata !308, metadata !"_M_leak", metadata !"_M_leak", metadata !"_ZNSs7_M_leakEv", metadata !312, i32 308, metadata !450, i1 false, i1 false, i32 0, i32 0, null, i32 257, i1 false, null, null, i32 0, metadata !89, i32 308} ; [ DW_TAG_subprogram ]
!450 = metadata !{i32 786453, i32 0, metadata !"", i32 0, i32 0, i64 0, i64 0, i64 0, i32 0, null, metadata !451, i32 0, i32 0} ; [ DW_TAG_subroutine_type ]
!451 = metadata !{null, metadata !392}
!452 = metadata !{i32 786478, i32 0, metadata !308, metadata !"_M_check", metadata !"_M_check", metadata !"_ZNKSs8_M_checkEmPKc", metadata !312, i32 315, metadata !453, i1 false, i1 false, i32 0, i32 0, null, i32 257, i1 false, null, null, i32 0, metadata !89, i32 315} ; [ DW_TAG_subprogram ]
!453 = metadata !{i32 786453, i32 0, metadata !"", i32 0, i32 0, i64 0, i64 0, i64 0, i32 0, null, metadata !454, i32 0, i32 0} ; [ DW_TAG_subroutine_type ]
!454 = metadata !{metadata !403, metadata !387, metadata !403, metadata !172}
!455 = metadata !{i32 786478, i32 0, metadata !308, metadata !"_M_check_length", metadata !"_M_check_length", metadata !"_ZNKSs15_M_check_lengthEmmPKc", metadata !312, i32 323, metadata !456, i1 false, i1 false, i32 0, i32 0, null, i32 257, i1 false, null, null, i32 0, metadata !89, i32 323} ; [ DW_TAG_subprogram ]
!456 = metadata !{i32 786453, i32 0, metadata !"", i32 0, i32 0, i64 0, i64 0, i64 0, i32 0, null, metadata !457, i32 0, i32 0} ; [ DW_TAG_subroutine_type ]
!457 = metadata !{null, metadata !387, metadata !403, metadata !403, metadata !172}
!458 = metadata !{i32 786478, i32 0, metadata !308, metadata !"_M_limit", metadata !"_M_limit", metadata !"_ZNKSs8_M_limitEmm", metadata !312, i32 331, metadata !459, i1 false, i1 false, i32 0, i32 0, null, i32 257, i1 false, null, null, i32 0, metadata !89, i32 331} ; [ DW_TAG_subprogram ]
!459 = metadata !{i32 786453, i32 0, metadata !"", i32 0, i32 0, i64 0, i64 0, i64 0, i32 0, null, metadata !460, i32 0, i32 0} ; [ DW_TAG_subroutine_type ]
!460 = metadata !{metadata !403, metadata !387, metadata !403, metadata !403}
!461 = metadata !{i32 786478, i32 0, metadata !308, metadata !"_M_disjunct", metadata !"_M_disjunct", metadata !"_ZNKSs11_M_disjunctEPKc", metadata !312, i32 339, metadata !462, i1 false, i1 false, i32 0, i32 0, null, i32 257, i1 false, null, null, i32 0, metadata !89, i32 339} ; [ DW_TAG_subprogram ]
!462 = metadata !{i32 786453, i32 0, metadata !"", i32 0, i32 0, i64 0, i64 0, i64 0, i32 0, null, metadata !463, i32 0, i32 0} ; [ DW_TAG_subroutine_type ]
!463 = metadata !{metadata !238, metadata !387, metadata !172}
!464 = metadata !{i32 786478, i32 0, metadata !308, metadata !"_M_copy", metadata !"_M_copy", metadata !"_ZNSs7_M_copyEPcPKcm", metadata !312, i32 348, metadata !465, i1 false, i1 false, i32 0, i32 0, null, i32 257, i1 false, null, null, i32 0, metadata !89, i32 348} ; [ DW_TAG_subprogram ]
!465 = metadata !{i32 786453, i32 0, metadata !"", i32 0, i32 0, i64 0, i64 0, i64 0, i32 0, null, metadata !466, i32 0, i32 0} ; [ DW_TAG_subroutine_type ]
!466 = metadata !{null, metadata !213, metadata !172, metadata !403}
!467 = metadata !{i32 786478, i32 0, metadata !308, metadata !"_M_move", metadata !"_M_move", metadata !"_ZNSs7_M_moveEPcPKcm", metadata !312, i32 357, metadata !465, i1 false, i1 false, i32 0, i32 0, null, i32 257, i1 false, null, null, i32 0, metadata !89, i32 357} ; [ DW_TAG_subprogram ]
!468 = metadata !{i32 786478, i32 0, metadata !308, metadata !"_M_assign", metadata !"_M_assign", metadata !"_ZNSs9_M_assignEPcmc", metadata !312, i32 366, metadata !469, i1 false, i1 false, i32 0, i32 0, null, i32 257, i1 false, null, null, i32 0, metadata !89, i32 366} ; [ DW_TAG_subprogram ]
!469 = metadata !{i32 786453, i32 0, metadata !"", i32 0, i32 0, i64 0, i64 0, i64 0, i32 0, null, metadata !470, i32 0, i32 0} ; [ DW_TAG_subroutine_type ]
!470 = metadata !{null, metadata !213, metadata !403, metadata !174}
!471 = metadata !{i32 786478, i32 0, metadata !308, metadata !"_S_copy_chars", metadata !"_S_copy_chars", metadata !"_ZNSs13_S_copy_charsEPcN9__gnu_cxx17__normal_iteratorIS_SsEES2_", metadata !312, i32 385, metadata !472, i1 false, i1 false, i32 0, i32 0, null, i32 257, i1 false, null, null, i32 0, metadata !89, i32 385} ; [ DW_TAG_subprogram ]
!472 = metadata !{i32 786453, i32 0, metadata !"", i32 0, i32 0, i64 0, i64 0, i64 0, i32 0, null, metadata !473, i32 0, i32 0} ; [ DW_TAG_subroutine_type ]
!473 = metadata !{null, metadata !213, metadata !445, metadata !445}
!474 = metadata !{i32 786478, i32 0, metadata !308, metadata !"_S_copy_chars", metadata !"_S_copy_chars", metadata !"_ZNSs13_S_copy_charsEPcN9__gnu_cxx17__normal_iteratorIPKcSsEES4_", metadata !312, i32 389, metadata !475, i1 false, i1 false, i32 0, i32 0, null, i32 257, i1 false, null, null, i32 0, metadata !89, i32 389} ; [ DW_TAG_subprogram ]
!475 = metadata !{i32 786453, i32 0, metadata !"", i32 0, i32 0, i64 0, i64 0, i64 0, i32 0, null, metadata !476, i32 0, i32 0} ; [ DW_TAG_subroutine_type ]
!476 = metadata !{null, metadata !213, metadata !477, metadata !477}
!477 = metadata !{i32 786454, metadata !308, metadata !"const_iterator", metadata !309, i32 123, i64 0, i64 0, i64 0, i32 0, metadata !478} ; [ DW_TAG_typedef ]
!478 = metadata !{i32 786434, null, metadata !"__normal_iterator<const char *, std::basic_string<char> >", metadata !447, i32 702, i32 0, i32 0, i32 0, i32 4, null, null, i32 0} ; [ DW_TAG_class_type ]
!479 = metadata !{i32 786478, i32 0, metadata !308, metadata !"_S_copy_chars", metadata !"_S_copy_chars", metadata !"_ZNSs13_S_copy_charsEPcS_S_", metadata !312, i32 393, metadata !480, i1 false, i1 false, i32 0, i32 0, null, i32 257, i1 false, null, null, i32 0, metadata !89, i32 393} ; [ DW_TAG_subprogram ]
!480 = metadata !{i32 786453, i32 0, metadata !"", i32 0, i32 0, i64 0, i64 0, i64 0, i32 0, null, metadata !481, i32 0, i32 0} ; [ DW_TAG_subroutine_type ]
!481 = metadata !{null, metadata !213, metadata !213, metadata !213}
!482 = metadata !{i32 786478, i32 0, metadata !308, metadata !"_S_copy_chars", metadata !"_S_copy_chars", metadata !"_ZNSs13_S_copy_charsEPcPKcS1_", metadata !312, i32 397, metadata !483, i1 false, i1 false, i32 0, i32 0, null, i32 257, i1 false, null, null, i32 0, metadata !89, i32 397} ; [ DW_TAG_subprogram ]
!483 = metadata !{i32 786453, i32 0, metadata !"", i32 0, i32 0, i64 0, i64 0, i64 0, i32 0, null, metadata !484, i32 0, i32 0} ; [ DW_TAG_subroutine_type ]
!484 = metadata !{null, metadata !213, metadata !172, metadata !172}
!485 = metadata !{i32 786478, i32 0, metadata !308, metadata !"_S_compare", metadata !"_S_compare", metadata !"_ZNSs10_S_compareEmm", metadata !312, i32 401, metadata !486, i1 false, i1 false, i32 0, i32 0, null, i32 257, i1 false, null, null, i32 0, metadata !89, i32 401} ; [ DW_TAG_subprogram ]
!486 = metadata !{i32 786453, i32 0, metadata !"", i32 0, i32 0, i64 0, i64 0, i64 0, i32 0, null, metadata !487, i32 0, i32 0} ; [ DW_TAG_subroutine_type ]
!487 = metadata !{metadata !56, metadata !403, metadata !403}
!488 = metadata !{i32 786478, i32 0, metadata !308, metadata !"_M_mutate", metadata !"_M_mutate", metadata !"_ZNSs9_M_mutateEmmm", metadata !312, i32 414, metadata !489, i1 false, i1 false, i32 0, i32 0, null, i32 257, i1 false, null, null, i32 0, metadata !89, i32 414} ; [ DW_TAG_subprogram ]
!489 = metadata !{i32 786453, i32 0, metadata !"", i32 0, i32 0, i64 0, i64 0, i64 0, i32 0, null, metadata !490, i32 0, i32 0} ; [ DW_TAG_subroutine_type ]
!490 = metadata !{null, metadata !392, metadata !403, metadata !403, metadata !403}
!491 = metadata !{i32 786478, i32 0, metadata !308, metadata !"_M_leak_hard", metadata !"_M_leak_hard", metadata !"_ZNSs12_M_leak_hardEv", metadata !312, i32 417, metadata !450, i1 false, i1 false, i32 0, i32 0, null, i32 257, i1 false, null, null, i32 0, metadata !89, i32 417} ; [ DW_TAG_subprogram ]
!492 = metadata !{i32 786478, i32 0, metadata !308, metadata !"_S_empty_rep", metadata !"_S_empty_rep", metadata !"_ZNSs12_S_empty_repEv", metadata !312, i32 420, metadata !408, i1 false, i1 false, i32 0, i32 0, null, i32 257, i1 false, null, null, i32 0, metadata !89, i32 420} ; [ DW_TAG_subprogram ]
!493 = metadata !{i32 786478, i32 0, metadata !308, metadata !"basic_string", metadata !"basic_string", metadata !"", metadata !312, i32 431, metadata !450, i1 false, i1 false, i32 0, i32 0, null, i32 256, i1 false, null, null, i32 0, metadata !89, i32 431} ; [ DW_TAG_subprogram ]
!494 = metadata !{i32 786478, i32 0, metadata !308, metadata !"basic_string", metadata !"basic_string", metadata !"", metadata !312, i32 442, metadata !495, i1 false, i1 false, i32 0, i32 0, null, i32 384, i1 false, null, null, i32 0, metadata !89, i32 442} ; [ DW_TAG_subprogram ]
!495 = metadata !{i32 786453, i32 0, metadata !"", i32 0, i32 0, i64 0, i64 0, i64 0, i32 0, null, metadata !496, i32 0, i32 0} ; [ DW_TAG_subroutine_type ]
!496 = metadata !{null, metadata !392, metadata !374}
!497 = metadata !{i32 786478, i32 0, metadata !308, metadata !"basic_string", metadata !"basic_string", metadata !"", metadata !312, i32 449, metadata !498, i1 false, i1 false, i32 0, i32 0, null, i32 256, i1 false, null, null, i32 0, metadata !89, i32 449} ; [ DW_TAG_subprogram ]
!498 = metadata !{i32 786453, i32 0, metadata !"", i32 0, i32 0, i64 0, i64 0, i64 0, i32 0, null, metadata !499, i32 0, i32 0} ; [ DW_TAG_subroutine_type ]
!499 = metadata !{null, metadata !392, metadata !500}
!500 = metadata !{i32 786448, null, null, null, i32 0, i64 0, i64 0, i64 0, i32 0, metadata !388} ; [ DW_TAG_reference_type ]
!501 = metadata !{i32 786478, i32 0, metadata !308, metadata !"basic_string", metadata !"basic_string", metadata !"", metadata !312, i32 456, metadata !502, i1 false, i1 false, i32 0, i32 0, null, i32 256, i1 false, null, null, i32 0, metadata !89, i32 456} ; [ DW_TAG_subprogram ]
!502 = metadata !{i32 786453, i32 0, metadata !"", i32 0, i32 0, i64 0, i64 0, i64 0, i32 0, null, metadata !503, i32 0, i32 0} ; [ DW_TAG_subroutine_type ]
!503 = metadata !{null, metadata !392, metadata !500, metadata !403, metadata !403}
!504 = metadata !{i32 786478, i32 0, metadata !308, metadata !"basic_string", metadata !"basic_string", metadata !"", metadata !312, i32 465, metadata !505, i1 false, i1 false, i32 0, i32 0, null, i32 256, i1 false, null, null, i32 0, metadata !89, i32 465} ; [ DW_TAG_subprogram ]
!505 = metadata !{i32 786453, i32 0, metadata !"", i32 0, i32 0, i64 0, i64 0, i64 0, i32 0, null, metadata !506, i32 0, i32 0} ; [ DW_TAG_subroutine_type ]
!506 = metadata !{null, metadata !392, metadata !500, metadata !403, metadata !403, metadata !374}
!507 = metadata !{i32 786478, i32 0, metadata !308, metadata !"basic_string", metadata !"basic_string", metadata !"", metadata !312, i32 477, metadata !508, i1 false, i1 false, i32 0, i32 0, null, i32 256, i1 false, null, null, i32 0, metadata !89, i32 477} ; [ DW_TAG_subprogram ]
!508 = metadata !{i32 786453, i32 0, metadata !"", i32 0, i32 0, i64 0, i64 0, i64 0, i32 0, null, metadata !509, i32 0, i32 0} ; [ DW_TAG_subroutine_type ]
!509 = metadata !{null, metadata !392, metadata !172, metadata !403, metadata !374}
!510 = metadata !{i32 786478, i32 0, metadata !308, metadata !"basic_string", metadata !"basic_string", metadata !"", metadata !312, i32 484, metadata !511, i1 false, i1 false, i32 0, i32 0, null, i32 256, i1 false, null, null, i32 0, metadata !89, i32 484} ; [ DW_TAG_subprogram ]
!511 = metadata !{i32 786453, i32 0, metadata !"", i32 0, i32 0, i64 0, i64 0, i64 0, i32 0, null, metadata !512, i32 0, i32 0} ; [ DW_TAG_subroutine_type ]
!512 = metadata !{null, metadata !392, metadata !172, metadata !374}
!513 = metadata !{i32 786478, i32 0, metadata !308, metadata !"basic_string", metadata !"basic_string", metadata !"", metadata !312, i32 491, metadata !514, i1 false, i1 false, i32 0, i32 0, null, i32 256, i1 false, null, null, i32 0, metadata !89, i32 491} ; [ DW_TAG_subprogram ]
!514 = metadata !{i32 786453, i32 0, metadata !"", i32 0, i32 0, i64 0, i64 0, i64 0, i32 0, null, metadata !515, i32 0, i32 0} ; [ DW_TAG_subroutine_type ]
!515 = metadata !{null, metadata !392, metadata !403, metadata !174, metadata !374}
!516 = metadata !{i32 786478, i32 0, metadata !308, metadata !"~basic_string", metadata !"~basic_string", metadata !"", metadata !312, i32 532, metadata !450, i1 false, i1 false, i32 0, i32 0, null, i32 256, i1 false, null, null, i32 0, metadata !89, i32 532} ; [ DW_TAG_subprogram ]
!517 = metadata !{i32 786478, i32 0, metadata !308, metadata !"operator=", metadata !"operator=", metadata !"_ZNSsaSERKSs", metadata !312, i32 540, metadata !518, i1 false, i1 false, i32 0, i32 0, null, i32 256, i1 false, null, null, i32 0, metadata !89, i32 540} ; [ DW_TAG_subprogram ]
!518 = metadata !{i32 786453, i32 0, metadata !"", i32 0, i32 0, i64 0, i64 0, i64 0, i32 0, null, metadata !519, i32 0, i32 0} ; [ DW_TAG_subroutine_type ]
!519 = metadata !{metadata !520, metadata !392, metadata !500}
!520 = metadata !{i32 786448, null, null, null, i32 0, i64 0, i64 0, i64 0, i32 0, metadata !308} ; [ DW_TAG_reference_type ]
!521 = metadata !{i32 786478, i32 0, metadata !308, metadata !"operator=", metadata !"operator=", metadata !"_ZNSsaSEPKc", metadata !312, i32 548, metadata !522, i1 false, i1 false, i32 0, i32 0, null, i32 256, i1 false, null, null, i32 0, metadata !89, i32 548} ; [ DW_TAG_subprogram ]
!522 = metadata !{i32 786453, i32 0, metadata !"", i32 0, i32 0, i64 0, i64 0, i64 0, i32 0, null, metadata !523, i32 0, i32 0} ; [ DW_TAG_subroutine_type ]
!523 = metadata !{metadata !520, metadata !392, metadata !172}
!524 = metadata !{i32 786478, i32 0, metadata !308, metadata !"operator=", metadata !"operator=", metadata !"_ZNSsaSEc", metadata !312, i32 559, metadata !525, i1 false, i1 false, i32 0, i32 0, null, i32 256, i1 false, null, null, i32 0, metadata !89, i32 559} ; [ DW_TAG_subprogram ]
!525 = metadata !{i32 786453, i32 0, metadata !"", i32 0, i32 0, i64 0, i64 0, i64 0, i32 0, null, metadata !526, i32 0, i32 0} ; [ DW_TAG_subroutine_type ]
!526 = metadata !{metadata !520, metadata !392, metadata !174}
!527 = metadata !{i32 786478, i32 0, metadata !308, metadata !"begin", metadata !"begin", metadata !"_ZNSs5beginEv", metadata !312, i32 599, metadata !528, i1 false, i1 false, i32 0, i32 0, null, i32 256, i1 false, null, null, i32 0, metadata !89, i32 599} ; [ DW_TAG_subprogram ]
!528 = metadata !{i32 786453, i32 0, metadata !"", i32 0, i32 0, i64 0, i64 0, i64 0, i32 0, null, metadata !529, i32 0, i32 0} ; [ DW_TAG_subroutine_type ]
!529 = metadata !{metadata !445, metadata !392}
!530 = metadata !{i32 786478, i32 0, metadata !308, metadata !"begin", metadata !"begin", metadata !"_ZNKSs5beginEv", metadata !312, i32 610, metadata !531, i1 false, i1 false, i32 0, i32 0, null, i32 256, i1 false, null, null, i32 0, metadata !89, i32 610} ; [ DW_TAG_subprogram ]
!531 = metadata !{i32 786453, i32 0, metadata !"", i32 0, i32 0, i64 0, i64 0, i64 0, i32 0, null, metadata !532, i32 0, i32 0} ; [ DW_TAG_subroutine_type ]
!532 = metadata !{metadata !477, metadata !387}
!533 = metadata !{i32 786478, i32 0, metadata !308, metadata !"end", metadata !"end", metadata !"_ZNSs3endEv", metadata !312, i32 618, metadata !528, i1 false, i1 false, i32 0, i32 0, null, i32 256, i1 false, null, null, i32 0, metadata !89, i32 618} ; [ DW_TAG_subprogram ]
!534 = metadata !{i32 786478, i32 0, metadata !308, metadata !"end", metadata !"end", metadata !"_ZNKSs3endEv", metadata !312, i32 629, metadata !531, i1 false, i1 false, i32 0, i32 0, null, i32 256, i1 false, null, null, i32 0, metadata !89, i32 629} ; [ DW_TAG_subprogram ]
!535 = metadata !{i32 786478, i32 0, metadata !308, metadata !"rbegin", metadata !"rbegin", metadata !"_ZNSs6rbeginEv", metadata !312, i32 638, metadata !536, i1 false, i1 false, i32 0, i32 0, null, i32 256, i1 false, null, null, i32 0, metadata !89, i32 638} ; [ DW_TAG_subprogram ]
!536 = metadata !{i32 786453, i32 0, metadata !"", i32 0, i32 0, i64 0, i64 0, i64 0, i32 0, null, metadata !537, i32 0, i32 0} ; [ DW_TAG_subroutine_type ]
!537 = metadata !{metadata !538, metadata !392}
!538 = metadata !{i32 786454, metadata !308, metadata !"reverse_iterator", metadata !309, i32 125, i64 0, i64 0, i64 0, i32 0, metadata !539} ; [ DW_TAG_typedef ]
!539 = metadata !{i32 786434, null, metadata !"reverse_iterator<__gnu_cxx::__normal_iterator<char *, std::basic_string<char> > >", metadata !447, i32 97, i32 0, i32 0, i32 0, i32 4, null, null, i32 0} ; [ DW_TAG_class_type ]
!540 = metadata !{i32 786478, i32 0, metadata !308, metadata !"rbegin", metadata !"rbegin", metadata !"_ZNKSs6rbeginEv", metadata !312, i32 647, metadata !541, i1 false, i1 false, i32 0, i32 0, null, i32 256, i1 false, null, null, i32 0, metadata !89, i32 647} ; [ DW_TAG_subprogram ]
!541 = metadata !{i32 786453, i32 0, metadata !"", i32 0, i32 0, i64 0, i64 0, i64 0, i32 0, null, metadata !542, i32 0, i32 0} ; [ DW_TAG_subroutine_type ]
!542 = metadata !{metadata !543, metadata !387}
!543 = metadata !{i32 786454, metadata !308, metadata !"const_reverse_iterator", metadata !309, i32 124, i64 0, i64 0, i64 0, i32 0, metadata !544} ; [ DW_TAG_typedef ]
!544 = metadata !{i32 786434, null, metadata !"reverse_iterator<__gnu_cxx::__normal_iterator<const char *, std::basic_string<char> > >", metadata !447, i32 97, i32 0, i32 0, i32 0, i32 4, null, null, i32 0} ; [ DW_TAG_class_type ]
!545 = metadata !{i32 786478, i32 0, metadata !308, metadata !"rend", metadata !"rend", metadata !"_ZNSs4rendEv", metadata !312, i32 656, metadata !536, i1 false, i1 false, i32 0, i32 0, null, i32 256, i1 false, null, null, i32 0, metadata !89, i32 656} ; [ DW_TAG_subprogram ]
!546 = metadata !{i32 786478, i32 0, metadata !308, metadata !"rend", metadata !"rend", metadata !"_ZNKSs4rendEv", metadata !312, i32 665, metadata !541, i1 false, i1 false, i32 0, i32 0, null, i32 256, i1 false, null, null, i32 0, metadata !89, i32 665} ; [ DW_TAG_subprogram ]
!547 = metadata !{i32 786478, i32 0, metadata !308, metadata !"size", metadata !"size", metadata !"_ZNKSs4sizeEv", metadata !312, i32 709, metadata !548, i1 false, i1 false, i32 0, i32 0, null, i32 256, i1 false, null, null, i32 0, metadata !89, i32 709} ; [ DW_TAG_subprogram ]
!548 = metadata !{i32 786453, i32 0, metadata !"", i32 0, i32 0, i64 0, i64 0, i64 0, i32 0, null, metadata !549, i32 0, i32 0} ; [ DW_TAG_subroutine_type ]
!549 = metadata !{metadata !403, metadata !387}
!550 = metadata !{i32 786478, i32 0, metadata !308, metadata !"length", metadata !"length", metadata !"_ZNKSs6lengthEv", metadata !312, i32 715, metadata !548, i1 false, i1 false, i32 0, i32 0, null, i32 256, i1 false, null, null, i32 0, metadata !89, i32 715} ; [ DW_TAG_subprogram ]
!551 = metadata !{i32 786478, i32 0, metadata !308, metadata !"max_size", metadata !"max_size", metadata !"_ZNKSs8max_sizeEv", metadata !312, i32 720, metadata !548, i1 false, i1 false, i32 0, i32 0, null, i32 256, i1 false, null, null, i32 0, metadata !89, i32 720} ; [ DW_TAG_subprogram ]
!552 = metadata !{i32 786478, i32 0, metadata !308, metadata !"resize", metadata !"resize", metadata !"_ZNSs6resizeEmc", metadata !312, i32 734, metadata !553, i1 false, i1 false, i32 0, i32 0, null, i32 256, i1 false, null, null, i32 0, metadata !89, i32 734} ; [ DW_TAG_subprogram ]
!553 = metadata !{i32 786453, i32 0, metadata !"", i32 0, i32 0, i64 0, i64 0, i64 0, i32 0, null, metadata !554, i32 0, i32 0} ; [ DW_TAG_subroutine_type ]
!554 = metadata !{null, metadata !392, metadata !403, metadata !174}
!555 = metadata !{i32 786478, i32 0, metadata !308, metadata !"resize", metadata !"resize", metadata !"_ZNSs6resizeEm", metadata !312, i32 747, metadata !556, i1 false, i1 false, i32 0, i32 0, null, i32 256, i1 false, null, null, i32 0, metadata !89, i32 747} ; [ DW_TAG_subprogram ]
!556 = metadata !{i32 786453, i32 0, metadata !"", i32 0, i32 0, i64 0, i64 0, i64 0, i32 0, null, metadata !557, i32 0, i32 0} ; [ DW_TAG_subroutine_type ]
!557 = metadata !{null, metadata !392, metadata !403}
!558 = metadata !{i32 786478, i32 0, metadata !308, metadata !"capacity", metadata !"capacity", metadata !"_ZNKSs8capacityEv", metadata !312, i32 767, metadata !548, i1 false, i1 false, i32 0, i32 0, null, i32 256, i1 false, null, null, i32 0, metadata !89, i32 767} ; [ DW_TAG_subprogram ]
